

Microchip Technology PIC LITE Macro Assembler V1.37 build -260352376 
                                                                                               Mon May 16 20:31:04 2016

Microchip Technology Omniscient Code Generator v1.37 (Free mode) build 201603110536
     1                           	processor	16F1619
     2                           	opt	pw 120
     3                           	opt	lm
     4                           	psect	stringtext,global,class=STRCODE,delta=2
     5                           	psect	cinit,global,class=CODE,merge=1,delta=2
     6                           	psect	bssBANK0,global,class=BANK0,space=1,delta=1
     7                           	psect	bssBANK3,global,class=BANK3,space=1,delta=1
     8                           	psect	cstackBANK3,global,class=BANK3,space=1,delta=1
     9                           	psect	cstackBANK2,global,class=BANK2,space=1,delta=1
    10                           	psect	cstackBANK1,global,class=BANK1,space=1,delta=1
    11                           	psect	cstackCOMMON,global,class=COMMON,space=1,delta=1
    12                           	psect	cstackBANK0,global,class=BANK0,space=1,delta=1
    13                           	psect	maintext,global,class=CODE,merge=1,split=1,delta=2
    14                           	psect	text1,local,class=CODE,merge=1,delta=2
    15                           	psect	text2,local,class=CODE,merge=1,delta=2
    16                           	psect	text3,local,class=CODE,merge=1,delta=2
    17                           	psect	text4,local,class=CODE,merge=1,delta=2
    18                           	psect	text5,local,class=CODE,merge=1,delta=2
    19                           	psect	text6,local,class=CODE,merge=1,delta=2
    20                           	psect	text7,local,class=CODE,merge=1,delta=2
    21                           	psect	text8,local,class=CODE,merge=1,delta=2
    22                           	psect	text9,local,class=CODE,merge=1,delta=2
    23                           	psect	text10,local,class=CODE,merge=1,delta=2
    24                           	psect	text11,local,class=CODE,merge=1,delta=2
    25                           	psect	text12,local,class=CODE,merge=1,delta=2
    26                           	psect	text13,local,class=CODE,merge=1,delta=2
    27                           	psect	text14,local,class=CODE,merge=1,delta=2
    28                           	psect	text15,local,class=CODE,merge=1,delta=2
    29                           	psect	text16,local,class=CODE,merge=1,delta=2
    30                           	psect	text17,local,class=CODE,merge=1,delta=2
    31                           	psect	text18,local,class=CODE,merge=1,delta=2
    32                           	psect	text19,local,class=CODE,merge=1,delta=2
    33                           	psect	text20,local,class=CODE,merge=1,delta=2
    34                           	psect	text21,local,class=CODE,merge=1,delta=2
    35                           	psect	intentry,global,class=CODE,delta=2
    36                           	psect	text23,local,class=CODE,merge=1,delta=2
    37                           	psect	text24,local,class=CODE,merge=1,delta=2
    38                           	psect	text25,local,class=CODE,merge=1,delta=2
    39                           	dabs	1,0x7E,2
    40  0000                     	;# 
    41  0001                     	;# 
    42  0002                     	;# 
    43  0003                     	;# 
    44  0004                     	;# 
    45  0005                     	;# 
    46  0006                     	;# 
    47  0007                     	;# 
    48  0008                     	;# 
    49  0009                     	;# 
    50  000A                     	;# 
    51  000B                     	;# 
    52  000C                     	;# 
    53  000D                     	;# 
    54  000E                     	;# 
    55  0010                     	;# 
    56  0011                     	;# 
    57  0012                     	;# 
    58  0013                     	;# 
    59  0014                     	;# 
    60  0015                     	;# 
    61  0016                     	;# 
    62  0016                     	;# 
    63  0017                     	;# 
    64  0018                     	;# 
    65  0019                     	;# 
    66  001A                     	;# 
    67  001A                     	;# 
    68  001B                     	;# 
    69  001B                     	;# 
    70  001C                     	;# 
    71  001D                     	;# 
    72  001E                     	;# 
    73  001F                     	;# 
    74  008C                     	;# 
    75  008D                     	;# 
    76  008E                     	;# 
    77  0090                     	;# 
    78  0091                     	;# 
    79  0092                     	;# 
    80  0093                     	;# 
    81  0094                     	;# 
    82  0095                     	;# 
    83  0096                     	;# 
    84  0098                     	;# 
    85  0099                     	;# 
    86  009A                     	;# 
    87  009B                     	;# 
    88  009B                     	;# 
    89  009C                     	;# 
    90  009D                     	;# 
    91  009E                     	;# 
    92  009F                     	;# 
    93  010C                     	;# 
    94  010D                     	;# 
    95  010E                     	;# 
    96  0111                     	;# 
    97  0112                     	;# 
    98  0113                     	;# 
    99  0114                     	;# 
   100  0115                     	;# 
   101  0116                     	;# 
   102  0117                     	;# 
   103  0118                     	;# 
   104  0119                     	;# 
   105  011C                     	;# 
   106  018C                     	;# 
   107  018D                     	;# 
   108  018E                     	;# 
   109  0191                     	;# 
   110  0191                     	;# 
   111  0192                     	;# 
   112  0193                     	;# 
   113  0193                     	;# 
   114  0194                     	;# 
   115  0195                     	;# 
   116  0196                     	;# 
   117  0197                     	;# 
   118  0199                     	;# 
   119  0199                     	;# 
   120  0199                     	;# 
   121  019A                     	;# 
   122  019A                     	;# 
   123  019A                     	;# 
   124  019B                     	;# 
   125  019B                     	;# 
   126  019B                     	;# 
   127  019B                     	;# 
   128  019B                     	;# 
   129  019C                     	;# 
   130  019C                     	;# 
   131  019C                     	;# 
   132  019D                     	;# 
   133  019D                     	;# 
   134  019D                     	;# 
   135  019E                     	;# 
   136  019E                     	;# 
   137  019E                     	;# 
   138  019F                     	;# 
   139  019F                     	;# 
   140  019F                     	;# 
   141  019F                     	;# 
   142  019F                     	;# 
   143  020C                     	;# 
   144  020D                     	;# 
   145  020E                     	;# 
   146  0211                     	;# 
   147  0211                     	;# 
   148  0212                     	;# 
   149  0212                     	;# 
   150  0213                     	;# 
   151  0213                     	;# 
   152  0214                     	;# 
   153  0214                     	;# 
   154  0215                     	;# 
   155  0215                     	;# 
   156  0215                     	;# 
   157  0215                     	;# 
   158  0216                     	;# 
   159  0216                     	;# 
   160  0217                     	;# 
   161  0217                     	;# 
   162  028C                     	;# 
   163  028D                     	;# 
   164  028E                     	;# 
   165  0291                     	;# 
   166  0291                     	;# 
   167  0292                     	;# 
   168  0293                     	;# 
   169  0294                     	;# 
   170  0298                     	;# 
   171  0298                     	;# 
   172  0299                     	;# 
   173  029A                     	;# 
   174  029B                     	;# 
   175  029E                     	;# 
   176  030C                     	;# 
   177  030D                     	;# 
   178  030E                     	;# 
   179  038C                     	;# 
   180  038D                     	;# 
   181  038E                     	;# 
   182  0391                     	;# 
   183  0392                     	;# 
   184  0393                     	;# 
   185  0394                     	;# 
   186  0395                     	;# 
   187  0396                     	;# 
   188  0397                     	;# 
   189  0398                     	;# 
   190  0399                     	;# 
   191  040E                     	;# 
   192  0413                     	;# 
   193  0413                     	;# 
   194  0414                     	;# 
   195  0414                     	;# 
   196  0415                     	;# 
   197  0416                     	;# 
   198  0417                     	;# 
   199  0418                     	;# 
   200  041A                     	;# 
   201  041A                     	;# 
   202  041B                     	;# 
   203  041B                     	;# 
   204  041C                     	;# 
   205  041D                     	;# 
   206  041E                     	;# 
   207  041F                     	;# 
   208  0493                     	;# 
   209  0494                     	;# 
   210  0495                     	;# 
   211  0496                     	;# 
   212  049A                     	;# 
   213  049B                     	;# 
   214  049C                     	;# 
   215  049D                     	;# 
   216  058C                     	;# 
   217  058C                     	;# 
   218  058D                     	;# 
   219  058E                     	;# 
   220  058E                     	;# 
   221  058F                     	;# 
   222  0590                     	;# 
   223  0590                     	;# 
   224  0591                     	;# 
   225  0592                     	;# 
   226  0592                     	;# 
   227  0593                     	;# 
   228  0594                     	;# 
   229  0594                     	;# 
   230  0595                     	;# 
   231  0596                     	;# 
   232  0596                     	;# 
   233  0597                     	;# 
   234  0598                     	;# 
   235  0599                     	;# 
   236  059A                     	;# 
   237  059B                     	;# 
   238  059B                     	;# 
   239  059C                     	;# 
   240  059D                     	;# 
   241  060C                     	;# 
   242  060C                     	;# 
   243  060D                     	;# 
   244  060E                     	;# 
   245  060F                     	;# 
   246  060F                     	;# 
   247  0610                     	;# 
   248  0611                     	;# 
   249  0612                     	;# 
   250  0613                     	;# 
   251  0614                     	;# 
   252  0617                     	;# 
   253  0618                     	;# 
   254  0619                     	;# 
   255  061A                     	;# 
   256  061B                     	;# 
   257  061C                     	;# 
   258  0691                     	;# 
   259  0692                     	;# 
   260  0693                     	;# 
   261  0694                     	;# 
   262  0695                     	;# 
   263  0696                     	;# 
   264  0697                     	;# 
   265  0699                     	;# 
   266  069A                     	;# 
   267  0711                     	;# 
   268  0712                     	;# 
   269  0713                     	;# 
   270  0714                     	;# 
   271  0715                     	;# 
   272  0718                     	;# 
   273  0718                     	;# 
   274  0719                     	;# 
   275  071A                     	;# 
   276  071A                     	;# 
   277  071B                     	;# 
   278  071C                     	;# 
   279  071D                     	;# 
   280  0791                     	;# 
   281  0791                     	;# 
   282  0792                     	;# 
   283  0793                     	;# 
   284  0793                     	;# 
   285  0794                     	;# 
   286  0795                     	;# 
   287  0795                     	;# 
   288  0796                     	;# 
   289  0797                     	;# 
   290  0797                     	;# 
   291  0798                     	;# 
   292  0799                     	;# 
   293  079A                     	;# 
   294  080C                     	;# 
   295  080C                     	;# 
   296  080D                     	;# 
   297  080E                     	;# 
   298  080E                     	;# 
   299  080F                     	;# 
   300  0810                     	;# 
   301  0810                     	;# 
   302  0811                     	;# 
   303  0812                     	;# 
   304  0812                     	;# 
   305  0813                     	;# 
   306  0814                     	;# 
   307  0815                     	;# 
   308  0816                     	;# 
   309  0817                     	;# 
   310  0818                     	;# 
   311  0819                     	;# 
   312  081A                     	;# 
   313  081A                     	;# 
   314  081B                     	;# 
   315  081C                     	;# 
   316  081C                     	;# 
   317  081D                     	;# 
   318  088C                     	;# 
   319  088D                     	;# 
   320  088E                     	;# 
   321  088F                     	;# 
   322  088F                     	;# 
   323  0890                     	;# 
   324  0891                     	;# 
   325  0892                     	;# 
   326  0893                     	;# 
   327  0893                     	;# 
   328  0894                     	;# 
   329  0895                     	;# 
   330  0896                     	;# 
   331  0897                     	;# 
   332  0897                     	;# 
   333  0898                     	;# 
   334  0899                     	;# 
   335  0D8C                     	;# 
   336  0D8C                     	;# 
   337  0D8D                     	;# 
   338  0D8E                     	;# 
   339  0D8F                     	;# 
   340  0D8F                     	;# 
   341  0D90                     	;# 
   342  0D91                     	;# 
   343  0D92                     	;# 
   344  0D92                     	;# 
   345  0D93                     	;# 
   346  0D94                     	;# 
   347  0D95                     	;# 
   348  0D95                     	;# 
   349  0D96                     	;# 
   350  0D97                     	;# 
   351  0D98                     	;# 
   352  0D99                     	;# 
   353  0D9A                     	;# 
   354  0D9B                     	;# 
   355  0D9C                     	;# 
   356  0D9D                     	;# 
   357  0D9E                     	;# 
   358  0D9E                     	;# 
   359  0D9F                     	;# 
   360  0DA0                     	;# 
   361  0DA1                     	;# 
   362  0DA1                     	;# 
   363  0DA2                     	;# 
   364  0DA3                     	;# 
   365  0DA4                     	;# 
   366  0DA4                     	;# 
   367  0DA5                     	;# 
   368  0DA6                     	;# 
   369  0DA7                     	;# 
   370  0DA7                     	;# 
   371  0DA8                     	;# 
   372  0DA9                     	;# 
   373  0DAA                     	;# 
   374  0DAB                     	;# 
   375  0DAC                     	;# 
   376  0DAD                     	;# 
   377  0DAE                     	;# 
   378  0DAF                     	;# 
   379  0E0F                     	;# 
   380  0E10                     	;# 
   381  0E11                     	;# 
   382  0E12                     	;# 
   383  0E13                     	;# 
   384  0E14                     	;# 
   385  0E15                     	;# 
   386  0E16                     	;# 
   387  0E17                     	;# 
   388  0E18                     	;# 
   389  0E19                     	;# 
   390  0E1A                     	;# 
   391  0E1B                     	;# 
   392  0E1C                     	;# 
   393  0E1D                     	;# 
   394  0E1E                     	;# 
   395  0E1F                     	;# 
   396  0E20                     	;# 
   397  0E21                     	;# 
   398  0E22                     	;# 
   399  0E23                     	;# 
   400  0E24                     	;# 
   401  0E25                     	;# 
   402  0E26                     	;# 
   403  0E27                     	;# 
   404  0E28                     	;# 
   405  0E29                     	;# 
   406  0E2A                     	;# 
   407  0E2B                     	;# 
   408  0E2C                     	;# 
   409  0E2D                     	;# 
   410  0E2E                     	;# 
   411  0E90                     	;# 
   412  0E91                     	;# 
   413  0E92                     	;# 
   414  0E94                     	;# 
   415  0E95                     	;# 
   416  0E9C                     	;# 
   417  0E9D                     	;# 
   418  0E9E                     	;# 
   419  0E9F                     	;# 
   420  0EA0                     	;# 
   421  0EA1                     	;# 
   422  0EA2                     	;# 
   423  0EA3                     	;# 
   424  0EA4                     	;# 
   425  0EA5                     	;# 
   426  0EA6                     	;# 
   427  0EA7                     	;# 
   428  0F0F                     	;# 
   429  0F10                     	;# 
   430  0F11                     	;# 
   431  0F12                     	;# 
   432  0F13                     	;# 
   433  0F14                     	;# 
   434  0F15                     	;# 
   435  0F16                     	;# 
   436  0F17                     	;# 
   437  0F18                     	;# 
   438  0F19                     	;# 
   439  0F1A                     	;# 
   440  0F1B                     	;# 
   441  0F1C                     	;# 
   442  0F1D                     	;# 
   443  0F1E                     	;# 
   444  0F1F                     	;# 
   445  0F20                     	;# 
   446  0F21                     	;# 
   447  0F22                     	;# 
   448  0F23                     	;# 
   449  0F24                     	;# 
   450  0F25                     	;# 
   451  0F26                     	;# 
   452  0F27                     	;# 
   453  0F28                     	;# 
   454  0F29                     	;# 
   455  0F2A                     	;# 
   456  0F2B                     	;# 
   457  0F2C                     	;# 
   458  0F2D                     	;# 
   459  0F2E                     	;# 
   460  0F2F                     	;# 
   461  0F30                     	;# 
   462  0F31                     	;# 
   463  0F32                     	;# 
   464  0F33                     	;# 
   465  0F34                     	;# 
   466  0F35                     	;# 
   467  0F36                     	;# 
   468  0F37                     	;# 
   469  0FE4                     	;# 
   470  0FE5                     	;# 
   471  0FE6                     	;# 
   472  0FE7                     	;# 
   473  0FE8                     	;# 
   474  0FE9                     	;# 
   475  0FEA                     	;# 
   476  0FEB                     	;# 
   477  0FED                     	;# 
   478  0FEE                     	;# 
   479  0FEF                     	;# 
   480                           
   481                           	psect	stringtext
   482  1800                     __pstringtext:	
   483  1800                     __npowers_:	
   484  1800  3400               	retlw	0
   485  1801  3400               	retlw	0
   486  1802  3480               	retlw	128
   487  1803  343F               	retlw	63
   488  1804  34CD               	retlw	205
   489  1805  34CC               	retlw	204
   490  1806  34CC               	retlw	204
   491  1807  343D               	retlw	61
   492  1808  340A               	retlw	10
   493  1809  34D7               	retlw	215
   494  180A  3423               	retlw	35
   495  180B  343C               	retlw	60
   496  180C  346F               	retlw	111
   497  180D  3412               	retlw	18
   498  180E  3483               	retlw	131
   499  180F  343A               	retlw	58
   500  1810  3417               	retlw	23
   501  1811  34B7               	retlw	183
   502  1812  34D1               	retlw	209
   503  1813  3438               	retlw	56
   504  1814  34AC               	retlw	172
   505  1815  34C5               	retlw	197
   506  1816  3427               	retlw	39
   507  1817  3437               	retlw	55
   508  1818  34BD               	retlw	189
   509  1819  3437               	retlw	55
   510  181A  3486               	retlw	134
   511  181B  3435               	retlw	53
   512  181C  3495               	retlw	149
   513  181D  34BF               	retlw	191
   514  181E  34D6               	retlw	214
   515  181F  3433               	retlw	51
   516  1820  3477               	retlw	119
   517  1821  34CC               	retlw	204
   518  1822  342B               	retlw	43
   519  1823  3432               	retlw	50
   520  1824  345F               	retlw	95
   521  1825  3470               	retlw	112
   522  1826  3489               	retlw	137
   523  1827  3430               	retlw	48
   524  1828  34FF               	retlw	255
   525  1829  34E6               	retlw	230
   526  182A  34DB               	retlw	219
   527  182B  342E               	retlw	46
   528  182C  3408               	retlw	8
   529  182D  34E5               	retlw	229
   530  182E  343C               	retlw	60
   531  182F  341E               	retlw	30
   532  1830  3460               	retlw	96
   533  1831  3442               	retlw	66
   534  1832  34A2               	retlw	162
   535  1833  340D               	retlw	13
   536  1834                     __end_of__npowers_:	
   537  1834                     __powers_:	
   538  1834  3400               	retlw	0
   539  1835  3400               	retlw	0
   540  1836  3480               	retlw	128
   541  1837  343F               	retlw	63
   542  1838  3400               	retlw	0
   543  1839  3400               	retlw	0
   544  183A  3420               	retlw	32
   545  183B  3441               	retlw	65
   546  183C  3400               	retlw	0
   547  183D  3400               	retlw	0
   548  183E  34C8               	retlw	200
   549  183F  3442               	retlw	66
   550  1840  3400               	retlw	0
   551  1841  3400               	retlw	0
   552  1842  347A               	retlw	122
   553  1843  3444               	retlw	68
   554  1844  3400               	retlw	0
   555  1845  3440               	retlw	64
   556  1846  341C               	retlw	28
   557  1847  3446               	retlw	70
   558  1848  3400               	retlw	0
   559  1849  3450               	retlw	80
   560  184A  34C3               	retlw	195
   561  184B  3447               	retlw	71
   562  184C  3400               	retlw	0
   563  184D  3424               	retlw	36
   564  184E  3474               	retlw	116
   565  184F  3449               	retlw	73
   566  1850  3480               	retlw	128
   567  1851  3496               	retlw	150
   568  1852  3418               	retlw	24
   569  1853  344B               	retlw	75
   570  1854  3420               	retlw	32
   571  1855  34BC               	retlw	188
   572  1856  34BE               	retlw	190
   573  1857  344C               	retlw	76
   574  1858  3428               	retlw	40
   575  1859  346B               	retlw	107
   576  185A  346E               	retlw	110
   577  185B  344E               	retlw	78
   578  185C  34F9               	retlw	249
   579  185D  3402               	retlw	2
   580  185E  3415               	retlw	21
   581  185F  3450               	retlw	80
   582  1860  34EC               	retlw	236
   583  1861  3478               	retlw	120
   584  1862  34AD               	retlw	173
   585  1863  3460               	retlw	96
   586  1864  34CA               	retlw	202
   587  1865  34F2               	retlw	242
   588  1866  3449               	retlw	73
   589  1867  3471               	retlw	113
   590  1868                     __end_of__powers_:	
   591  1868                     _dpowers:	
   592  1868  3401               	retlw	1
   593  1869  3400               	retlw	0
   594  186A  3400               	retlw	0
   595  186B  3400               	retlw	0
   596  186C  340A               	retlw	10
   597  186D  3400               	retlw	0
   598  186E  3400               	retlw	0
   599  186F  3400               	retlw	0
   600  1870  3464               	retlw	100
   601  1871  3400               	retlw	0
   602  1872  3400               	retlw	0
   603  1873  3400               	retlw	0
   604  1874  34E8               	retlw	232
   605  1875  3403               	retlw	3
   606  1876  3400               	retlw	0
   607  1877  3400               	retlw	0
   608  1878  3410               	retlw	16
   609  1879  3427               	retlw	39
   610  187A  3400               	retlw	0
   611  187B  3400               	retlw	0
   612  187C  34A0               	retlw	160
   613  187D  3486               	retlw	134
   614  187E  3401               	retlw	1
   615  187F  3400               	retlw	0
   616  1880  3440               	retlw	64
   617  1881  3442               	retlw	66
   618  1882  340F               	retlw	15
   619  1883  3400               	retlw	0
   620  1884  3480               	retlw	128
   621  1885  3496               	retlw	150
   622  1886  3498               	retlw	152
   623  1887  3400               	retlw	0
   624  1888  3400               	retlw	0
   625  1889  34E1               	retlw	225
   626  188A  34F5               	retlw	245
   627  188B  3405               	retlw	5
   628  188C  3400               	retlw	0
   629  188D  34CA               	retlw	202
   630  188E  349A               	retlw	154
   631  188F  343B               	retlw	59
   632  1890                     __end_of_dpowers:	
   633  005F                     _GIE	set	95
   634  005E                     _PEIE	set	94
   635  0099                     _SMT1PRAIF	set	153
   636  0084                     _TXIF	set	132
   637  0094                     _ZCDIF	set	148
   638  0499                     _SMT1PRAIE	set	1177
   639  046D                     _TRISB5	set	1133
   640  046E                     _TRISB6	set	1134
   641  0494                     _ZCDIE	set	1172
   642  086D                     _LATB5	set	2157
   643  086E                     _LATB6	set	2158
   644  08E7                     _ZCD1EN	set	2279
   645  08E0                     _ZCD1INTN	set	2272
   646  018C                     _ANSELA	set	396
   647  018D                     _ANSELB	set	397
   648  018E                     _ANSELC	set	398
   649  019B                     _SP1BRGL	set	411
   650  019A                     _TXREG	set	410
   651  0CEF                     _SPEN	set	3311
   652  0CF4                     _SYNC	set	3316
   653  0CF5                     _TXEN	set	3317
   654  0812                     _AT1PHS	set	2066
   655  080C                     _AT1RES	set	2060
   656  0814                     _AT1CON0bits	set	2068
   657  088D                     _AT1SIGbits	set	2189
   658  0D8F                     _SMT1CPR	set	3471
   659  0D98                     _SMT1CON0bits	set	3480
   660  0D99                     _SMT1CON1bits	set	3481
   661  0D9D                     _SMT1WINbits	set	3485
   662  0E9F                     _RB7PPS	set	3743
   663  1890                     STR_1:	
   664  1890  3420               	retlw	32	;' '
   665  1891  3446               	retlw	70	;'F'
   666  1892  3452               	retlw	82	;'R'
   667  1893  3445               	retlw	69	;'E'
   668  1894  3451               	retlw	81	;'Q'
   669  1895  343A               	retlw	58	;':'
   670  1896  3420               	retlw	32	;' '
   671  1897  3425               	retlw	37	;'%'
   672  1898  3437               	retlw	55	;'7'
   673  1899  342E               	retlw	46	;'.'
   674  189A  3435               	retlw	53	;'5'
   675  189B  3466               	retlw	102	;'f'
   676  189C  3420               	retlw	32	;' '
   677  189D  3420               	retlw	32	;' '
   678  189E  3420               	retlw	32	;' '
   679  189F  3420               	retlw	32	;' '
   680  18A0  3420               	retlw	32	;' '
   681  18A1  3425               	retlw	37	;'%'
   682  18A2  3430               	retlw	48	;'0'
   683  18A3  3432               	retlw	50	;'2'
   684  18A4  3464               	retlw	100	;'d'
   685  18A5  343A               	retlw	58	;':'
   686  18A6  3425               	retlw	37	;'%'
   687  18A7  3430               	retlw	48	;'0'
   688  18A8  3432               	retlw	50	;'2'
   689  18A9  3464               	retlw	100	;'d'
   690  18AA  343A               	retlw	58	;':'
   691  18AB  3425               	retlw	37	;'%'
   692  18AC  3430               	retlw	48	;'0'
   693  18AD  3432               	retlw	50	;'2'
   694  18AE  3464               	retlw	100	;'d'
   695  18AF  3420               	retlw	32	;' '
   696  18B0  3420               	retlw	32	;' '
   697  18B1  3420               	retlw	32	;' '
   698  18B2  3420               	retlw	32	;' '
   699  18B3  3400               	retlw	0
   700                           
   701                           ; #config settings
   702  0000                     
   703                           	psect	cinit
   704  0099                     start_initialization:	
   705  0099                     __initialization:	
   706                           
   707                           ; Clear objects allocated to BANK0
   708  0099  01D4               	clrf	__pbssBANK0& (0+127)
   709  009A  01D5               	clrf	(__pbssBANK0+1)& (0+127)
   710  009B  01D6               	clrf	(__pbssBANK0+2)& (0+127)
   711  009C  01D7               	clrf	(__pbssBANK0+3)& (0+127)
   712  009D  01D8               	clrf	(__pbssBANK0+4)& (0+127)
   713  009E  01D9               	clrf	(__pbssBANK0+5)& (0+127)
   714                           
   715                           ; Clear objects allocated to BANK3
   716  009F  0023               	movlb	3	; select bank3
   717  00A0  01A0               	clrf	__pbssBANK3& (0+127)
   718  00A1  01A1               	clrf	(__pbssBANK3+1)& (0+127)
   719  00A2  01A2               	clrf	(__pbssBANK3+2)& (0+127)
   720  00A3  01A3               	clrf	(__pbssBANK3+3)& (0+127)
   721  00A4  01A4               	clrf	(__pbssBANK3+4)& (0+127)
   722  00A5  01A5               	clrf	(__pbssBANK3+5)& (0+127)
   723  00A6                     end_of_initialization:	
   724                           ;End of C runtime variable initialization code
   725                           
   726  00A6                     __end_of__initialization:	
   727  00A6  107E               	bcf	int$flags,0	;clear compiler interrupt flag (level 1)
   728  00A7  0020               	movlb	0
   729  00A8  3190  2859         	ljmp	_main	;jump to C main() function
   730                           
   731                           	psect	bssBANK0
   732  0054                     __pbssBANK0:	
   733  0054                     _acqHolder:	
   734  0054                     	ds	4
   735  0058                     _acqCounter:	
   736  0058                     	ds	2
   737                           
   738                           	psect	bssBANK3
   739  01A0                     __pbssBANK3:	
   740  01A0                     _acqOut:	
   741  01A0                     	ds	4
   742  01A4                     _acqGate:	
   743  01A4                     	ds	1
   744  01A5                     _missedCycle:	
   745  01A5                     	ds	1
   746                           
   747                           	psect	cstackBANK3
   748  01A6                     __pcstackBANK3:	
   749  01A6                     main@hours:	
   750                           
   751                           ; 1 bytes @ 0x0
   752  01A6                     	ds	1
   753  01A7                     main@minutes:	
   754                           
   755                           ; 1 bytes @ 0x1
   756  01A7                     	ds	1
   757  01A8                     main@seconds:	
   758                           
   759                           ; 1 bytes @ 0x2
   760  01A8                     	ds	1
   761                           
   762                           	psect	cstackBANK2
   763  0120                     __pcstackBANK2:	
   764  0120                     ?___fladd:	
   765  0120                     ___fladd@b:	
   766                           ; 4 bytes @ 0x0
   767                           
   768                           
   769                           ; 4 bytes @ 0x0
   770  0120                     	ds	4
   771  0124                     ___fladd@a:	
   772                           
   773                           ; 4 bytes @ 0x4
   774  0124                     	ds	4
   775  0128                     ??___fladd:	
   776                           
   777                           ; 1 bytes @ 0x8
   778  0128                     	ds	12
   779  0134                     ?___flsub:	
   780  0134                     ___flsub@a:	
   781                           ; 4 bytes @ 0x14
   782                           
   783                           
   784                           ; 4 bytes @ 0x14
   785  0134                     	ds	4
   786  0138                     ___flsub@b:	
   787                           
   788                           ; 4 bytes @ 0x18
   789  0138                     	ds	4
   790  013C                     ?_printf:	
   791  013C                     printf@f:	
   792                           ; 2 bytes @ 0x1C
   793                           
   794                           
   795                           ; 2 bytes @ 0x1C
   796  013C                     	ds	12
   797  0148                     ??_printf:	
   798                           
   799                           ; 1 bytes @ 0x28
   800  0148                     	ds	6
   801  014E                     _printf$821:	
   802                           
   803                           ; 4 bytes @ 0x2E
   804  014E                     	ds	4
   805  0152                     printf@ap:	
   806                           
   807                           ; 1 bytes @ 0x32
   808  0152                     	ds	1
   809  0153                     printf@tmpval:	
   810                           
   811                           ; 4 bytes @ 0x33
   812  0153                     	ds	4
   813  0157                     printf@val:	
   814                           
   815                           ; 4 bytes @ 0x37
   816  0157                     	ds	4
   817  015B                     printf@exp:	
   818                           
   819                           ; 2 bytes @ 0x3B
   820  015B                     	ds	2
   821  015D                     printf@flag:	
   822                           
   823                           ; 2 bytes @ 0x3D
   824  015D                     	ds	2
   825  015F                     printf@width:	
   826                           
   827                           ; 2 bytes @ 0x3F
   828  015F                     	ds	2
   829  0161                     printf@fval:	
   830                           
   831                           ; 4 bytes @ 0x41
   832  0161                     	ds	4
   833  0165                     printf@prec:	
   834                           
   835                           ; 2 bytes @ 0x45
   836  0165                     	ds	2
   837  0167                     printf@c:	
   838                           
   839                           ; 1 bytes @ 0x47
   840  0167                     	ds	1
   841  0168                     ??_main:	
   842                           
   843                           ; 1 bytes @ 0x48
   844  0168                     	ds	6
   845                           
   846                           	psect	cstackBANK1
   847  00A0                     __pcstackBANK1:	
   848  00A0                     ?___flge:	
   849  00A0                     ??_putch:	
   850                           ; 1 bit 
   851                           
   852  00A0                     ??_isdigit:	
   853                           ; 1 bytes @ 0x0
   854                           
   855  00A0                     ?__Umul8_16:	
   856                           ; 1 bytes @ 0x0
   857                           
   858  00A0                     ?___wmul:	
   859                           ; 2 bytes @ 0x0
   860                           
   861  00A0                     ?___awmod:	
   862                           ; 2 bytes @ 0x0
   863                           
   864  00A0                     ?__tdiv_to_l_:	
   865                           ; 2 bytes @ 0x0
   866                           
   867  00A0                     ?__div_to_l_:	
   868                           ; 4 bytes @ 0x0
   869                           
   870  00A0                     ?___flneg:	
   871                           ; 4 bytes @ 0x0
   872                           
   873  00A0                     ?___lldiv:	
   874                           ; 4 bytes @ 0x0
   875                           
   876  00A0                     ?___fldiv:	
   877                           ; 4 bytes @ 0x0
   878                           
   879  00A0                     ?___xxtofl:	
   880                           ; 4 bytes @ 0x0
   881                           
   882  00A0                     putch@byte:	
   883                           ; 4 bytes @ 0x0
   884                           
   885  00A0                     _isdigit$490:	
   886                           ; 1 bytes @ 0x0
   887                           
   888  00A0                     __Umul8_16@multiplicand:	
   889                           ; 1 bytes @ 0x0
   890                           
   891  00A0                     ___wmul@multiplier:	
   892                           ; 1 bytes @ 0x0
   893                           
   894  00A0                     ___awmod@divisor:	
   895                           ; 2 bytes @ 0x0
   896                           
   897  00A0                     __tdiv_to_l_@f1:	
   898                           ; 2 bytes @ 0x0
   899                           
   900  00A0                     __div_to_l_@f1:	
   901                           ; 3 bytes @ 0x0
   902                           
   903  00A0                     ___flge@ff1:	
   904                           ; 4 bytes @ 0x0
   905                           
   906  00A0                     ___flneg@f1:	
   907                           ; 4 bytes @ 0x0
   908                           
   909  00A0                     ___lldiv@divisor:	
   910                           ; 4 bytes @ 0x0
   911                           
   912  00A0                     ___fldiv@a:	
   913                           ; 4 bytes @ 0x0
   914                           
   915  00A0                     ___xxtofl@val:	
   916                           ; 4 bytes @ 0x0
   917                           
   918                           
   919                           ; 4 bytes @ 0x0
   920  00A0                     	ds	1
   921  00A1                     isdigit@c:	
   922                           
   923                           ; 1 bytes @ 0x1
   924  00A1                     	ds	1
   925  00A2                     ??__Umul8_16:	
   926  00A2                     ___wmul@multiplicand:	
   927                           ; 1 bytes @ 0x2
   928                           
   929  00A2                     ___awmod@dividend:	
   930                           ; 2 bytes @ 0x2
   931                           
   932                           
   933                           ; 2 bytes @ 0x2
   934  00A2                     	ds	1
   935  00A3                     __tdiv_to_l_@f2:	
   936                           
   937                           ; 3 bytes @ 0x3
   938  00A3                     	ds	1
   939  00A4                     ??___wmul:	
   940  00A4                     ??___awmod:	
   941                           ; 1 bytes @ 0x4
   942                           
   943  00A4                     ??___flneg:	
   944                           ; 1 bytes @ 0x4
   945                           
   946  00A4                     ??___xxtofl:	
   947                           ; 1 bytes @ 0x4
   948                           
   949  00A4                     ___wmul@product:	
   950                           ; 1 bytes @ 0x4
   951                           
   952  00A4                     __Umul8_16@product:	
   953                           ; 2 bytes @ 0x4
   954                           
   955  00A4                     __div_to_l_@f2:	
   956                           ; 2 bytes @ 0x4
   957                           
   958  00A4                     ___flge@ff2:	
   959                           ; 4 bytes @ 0x4
   960                           
   961  00A4                     ___lldiv@dividend:	
   962                           ; 4 bytes @ 0x4
   963                           
   964  00A4                     ___fldiv@b:	
   965                           ; 4 bytes @ 0x4
   966                           
   967                           
   968                           ; 4 bytes @ 0x4
   969  00A4                     	ds	1
   970  00A5                     ___awmod@counter:	
   971                           
   972                           ; 1 bytes @ 0x5
   973  00A5                     	ds	1
   974  00A6                     ??__tdiv_to_l_:	
   975  00A6                     ___awmod@sign:	
   976                           ; 1 bytes @ 0x6
   977                           
   978  00A6                     __Umul8_16@word_mpld:	
   979                           ; 1 bytes @ 0x6
   980                           
   981                           
   982                           ; 2 bytes @ 0x6
   983  00A6                     	ds	1
   984  00A7                     ?___awdiv:	
   985  00A7                     ___awdiv@divisor:	
   986                           ; 2 bytes @ 0x7
   987                           
   988                           
   989                           ; 2 bytes @ 0x7
   990  00A7                     	ds	1
   991  00A8                     ??__div_to_l_:	
   992  00A8                     ??___flge:	
   993                           ; 1 bytes @ 0x8
   994                           
   995  00A8                     ??___lldiv:	
   996                           ; 1 bytes @ 0x8
   997                           
   998  00A8                     ??___fldiv:	
   999                           ; 1 bytes @ 0x8
  1000                           
  1001  00A8                     ___xxtofl@sign:	
  1002                           ; 1 bytes @ 0x8
  1003                           
  1004  00A8                     __Umul8_16@multiplier:	
  1005                           ; 1 bytes @ 0x8
  1006                           
  1007                           
  1008                           ; 1 bytes @ 0x8
  1009  00A8                     	ds	1
  1010  00A9                     ___xxtofl@exp:	
  1011  00A9                     ___awdiv@dividend:	
  1012                           ; 1 bytes @ 0x9
  1013                           
  1014  00A9                     ___lldiv@quotient:	
  1015                           ; 2 bytes @ 0x9
  1016                           
  1017                           
  1018                           ; 4 bytes @ 0x9
  1019  00A9                     	ds	1
  1020  00AA                     __tdiv_to_l_@quot:	
  1021  00AA                     ___xxtofl@arg:	
  1022                           ; 4 bytes @ 0xA
  1023                           
  1024                           
  1025                           ; 4 bytes @ 0xA
  1026  00AA                     	ds	1
  1027  00AB                     ??___awdiv:	
  1028                           
  1029                           ; 1 bytes @ 0xB
  1030  00AB                     	ds	1
  1031  00AC                     ___awdiv@counter:	
  1032                           
  1033                           ; 1 bytes @ 0xC
  1034  00AC                     	ds	1
  1035  00AD                     ___awdiv@sign:	
  1036  00AD                     ___lldiv@counter:	
  1037                           ; 1 bytes @ 0xD
  1038                           
  1039  00AD                     ___fldiv@sign:	
  1040                           ; 1 bytes @ 0xD
  1041                           
  1042  00AD                     __div_to_l_@quot:	
  1043                           ; 1 bytes @ 0xD
  1044                           
  1045                           
  1046                           ; 4 bytes @ 0xD
  1047  00AD                     	ds	1
  1048  00AE                     ?___llmod:	
  1049  00AE                     __tdiv_to_l_@cntr:	
  1050                           ; 4 bytes @ 0xE
  1051                           
  1052  00AE                     ___awdiv@quotient:	
  1053                           ; 1 bytes @ 0xE
  1054                           
  1055  00AE                     ___llmod@divisor:	
  1056                           ; 2 bytes @ 0xE
  1057                           
  1058  00AE                     ___fldiv@rem:	
  1059                           ; 4 bytes @ 0xE
  1060                           
  1061                           
  1062                           ; 4 bytes @ 0xE
  1063  00AE                     	ds	1
  1064  00AF                     __tdiv_to_l_@exp1:	
  1065                           
  1066                           ; 1 bytes @ 0xF
  1067  00AF                     	ds	1
  1068  00B0                     ?___flmul:	
  1069  00B0                     ___flmul@b:	
  1070                           ; 4 bytes @ 0x10
  1071                           
  1072                           
  1073                           ; 4 bytes @ 0x10
  1074  00B0                     	ds	1
  1075  00B1                     __div_to_l_@cntr:	
  1076                           
  1077                           ; 1 bytes @ 0x11
  1078  00B1                     	ds	1
  1079  00B2                     __div_to_l_@exp1:	
  1080  00B2                     ___fldiv@new_exp:	
  1081                           ; 1 bytes @ 0x12
  1082                           
  1083  00B2                     ___llmod@dividend:	
  1084                           ; 2 bytes @ 0x12
  1085                           
  1086                           
  1087                           ; 4 bytes @ 0x12
  1088  00B2                     	ds	2
  1089  00B4                     ___fldiv@grs:	
  1090  00B4                     ___flmul@a:	
  1091                           ; 4 bytes @ 0x14
  1092                           
  1093                           
  1094                           ; 4 bytes @ 0x14
  1095  00B4                     	ds	2
  1096  00B6                     ??___llmod:	
  1097                           
  1098                           ; 1 bytes @ 0x16
  1099  00B6                     	ds	1
  1100  00B7                     ___llmod@counter:	
  1101                           
  1102                           ; 1 bytes @ 0x17
  1103  00B7                     	ds	1
  1104  00B8                     ??___flmul:	
  1105  00B8                     ___fldiv@bexp:	
  1106                           ; 1 bytes @ 0x18
  1107                           
  1108                           
  1109                           ; 1 bytes @ 0x18
  1110  00B8                     	ds	1
  1111  00B9                     ___fldiv@aexp:	
  1112                           
  1113                           ; 1 bytes @ 0x19
  1114  00B9                     	ds	4
  1115  00BD                     ___flmul@sign:	
  1116                           
  1117                           ; 1 bytes @ 0x1D
  1118  00BD                     	ds	1
  1119  00BE                     ___flmul@grs:	
  1120                           
  1121                           ; 4 bytes @ 0x1E
  1122  00BE                     	ds	4
  1123  00C2                     ___flmul@aexp:	
  1124                           
  1125                           ; 1 bytes @ 0x22
  1126  00C2                     	ds	1
  1127  00C3                     ___flmul@bexp:	
  1128                           
  1129                           ; 1 bytes @ 0x23
  1130  00C3                     	ds	1
  1131  00C4                     ___flmul@prod:	
  1132                           
  1133                           ; 4 bytes @ 0x24
  1134  00C4                     	ds	4
  1135  00C8                     ___flmul@temp:	
  1136                           
  1137                           ; 2 bytes @ 0x28
  1138  00C8                     	ds	2
  1139  00CA                     ?_fround:	
  1140  00CA                     ?_scale:	
  1141                           ; 4 bytes @ 0x2A
  1142                           
  1143                           
  1144                           ; 4 bytes @ 0x2A
  1145  00CA                     	ds	4
  1146  00CE                     ??_fround:	
  1147  00CE                     ??_scale:	
  1148                           ; 1 bytes @ 0x2E
  1149                           
  1150                           
  1151                           ; 1 bytes @ 0x2E
  1152  00CE                     	ds	16
  1153  00DE                     _scale$820:	
  1154                           
  1155                           ; 4 bytes @ 0x3E
  1156  00DE                     	ds	4
  1157  00E2                     scale@scl:	
  1158  00E2                     _fround$819:	
  1159                           ; 1 bytes @ 0x42
  1160                           
  1161                           
  1162                           ; 4 bytes @ 0x42
  1163  00E2                     	ds	1
  1164  00E3                     ?___fltol:	
  1165  00E3                     ___fltol@f1:	
  1166                           ; 4 bytes @ 0x43
  1167                           
  1168                           
  1169                           ; 4 bytes @ 0x43
  1170  00E3                     	ds	3
  1171  00E6                     _fround$818:	
  1172                           
  1173                           ; 4 bytes @ 0x46
  1174  00E6                     	ds	1
  1175  00E7                     ??___fltol:	
  1176                           
  1177                           ; 1 bytes @ 0x47
  1178  00E7                     	ds	3
  1179  00EA                     fround@prec:	
  1180                           
  1181                           ; 1 bytes @ 0x4A
  1182  00EA                     	ds	1
  1183  00EB                     ___fladd@signs:	
  1184                           
  1185                           ; 1 bytes @ 0x4B
  1186  00EB                     	ds	1
  1187  00EC                     ___fltol@sign1:	
  1188  00EC                     ___fladd@aexp:	
  1189                           ; 1 bytes @ 0x4C
  1190                           
  1191                           
  1192                           ; 1 bytes @ 0x4C
  1193  00EC                     	ds	1
  1194  00ED                     ___fltol@exp1:	
  1195  00ED                     ___fladd@bexp:	
  1196                           ; 1 bytes @ 0x4D
  1197                           
  1198                           
  1199                           ; 1 bytes @ 0x4D
  1200  00ED                     	ds	1
  1201  00EE                     ___fladd@grs:	
  1202                           
  1203                           ; 1 bytes @ 0x4E
  1204  00EE                     	ds	1
  1205  00EF                     ??___flsub:	
  1206                           
  1207                           	psect	cstackCOMMON
  1208  0070                     __pcstackCOMMON:	
  1209                           ; 1 bytes @ 0x4F
  1210                           
  1211  0070                     ?_isdigit:	
  1212  0070                     ?_putch:	
  1213                           ; 1 bit 
  1214                           
  1215  0070                     ?_main:	
  1216                           ; 1 bytes @ 0x0
  1217                           
  1218  0070                     ?_ISR:	
  1219                           ; 1 bytes @ 0x0
  1220                           
  1221  0070                     ?i1___xxtofl:	
  1222                           ; 1 bytes @ 0x0
  1223                           
  1224  0070                     i1___xxtofl@val:	
  1225                           ; 4 bytes @ 0x0
  1226                           
  1227                           
  1228                           ; 4 bytes @ 0x0
  1229  0070                     	ds	4
  1230  0074                     ??i1___xxtofl:	
  1231                           
  1232                           ; 1 bytes @ 0x4
  1233  0074                     	ds	4
  1234  0078                     i1___xxtofl@sign:	
  1235                           
  1236                           ; 1 bytes @ 0x8
  1237  0078                     	ds	1
  1238  0079                     i1___xxtofl@exp:	
  1239                           
  1240                           ; 1 bytes @ 0x9
  1241  0079                     	ds	1
  1242  007A                     i1___xxtofl@arg:	
  1243                           
  1244                           ; 4 bytes @ 0xA
  1245  007A                     	ds	4
  1246                           
  1247                           	psect	cstackBANK0
  1248  0020                     __pcstackBANK0:	
  1249  0020                     ?i1___fldiv:	
  1250  0020                     i1___fldiv@a:	
  1251                           ; 4 bytes @ 0x0
  1252                           
  1253                           
  1254                           ; 4 bytes @ 0x0
  1255  0020                     	ds	4
  1256  0024                     i1___fldiv@b:	
  1257                           
  1258                           ; 4 bytes @ 0x4
  1259  0024                     	ds	4
  1260  0028                     ??i1___fldiv:	
  1261                           
  1262                           ; 1 bytes @ 0x8
  1263  0028                     	ds	5
  1264  002D                     i1___fldiv@sign:	
  1265                           
  1266                           ; 1 bytes @ 0xD
  1267  002D                     	ds	1
  1268  002E                     i1___fldiv@rem:	
  1269                           
  1270                           ; 4 bytes @ 0xE
  1271  002E                     	ds	4
  1272  0032                     i1___fldiv@new_exp:	
  1273                           
  1274                           ; 2 bytes @ 0x12
  1275  0032                     	ds	2
  1276  0034                     i1___fldiv@grs:	
  1277                           
  1278                           ; 4 bytes @ 0x14
  1279  0034                     	ds	4
  1280  0038                     i1___fldiv@bexp:	
  1281                           
  1282                           ; 1 bytes @ 0x18
  1283  0038                     	ds	1
  1284  0039                     i1___fldiv@aexp:	
  1285                           
  1286                           ; 1 bytes @ 0x19
  1287  0039                     	ds	1
  1288  003A                     ?i1___fladd:	
  1289  003A                     i1___fladd@b:	
  1290                           ; 4 bytes @ 0x1A
  1291                           
  1292                           
  1293                           ; 4 bytes @ 0x1A
  1294  003A                     	ds	4
  1295  003E                     i1___fladd@a:	
  1296                           
  1297                           ; 4 bytes @ 0x1E
  1298  003E                     	ds	4
  1299  0042                     ??i1___fladd:	
  1300                           
  1301                           ; 1 bytes @ 0x22
  1302  0042                     	ds	12
  1303  004E                     i1___fladd@signs:	
  1304                           
  1305                           ; 1 bytes @ 0x2E
  1306  004E                     	ds	1
  1307  004F                     i1___fladd@aexp:	
  1308                           
  1309                           ; 1 bytes @ 0x2F
  1310  004F                     	ds	1
  1311  0050                     i1___fladd@bexp:	
  1312                           
  1313                           ; 1 bytes @ 0x30
  1314  0050                     	ds	1
  1315  0051                     i1___fladd@grs:	
  1316                           
  1317                           ; 1 bytes @ 0x31
  1318  0051                     	ds	1
  1319  0052                     ??_ISR:	
  1320                           
  1321                           ; 1 bytes @ 0x32
  1322  0052                     	ds	2
  1323                           
  1324                           	psect	maintext
  1325  1059                     __pmaintext:	
  1326 ;;
  1327 ;;Main: autosize = 0, tempsize = 6, incstack = 0, save=0
  1328 ;;
  1329 ;; *************** function _main *****************
  1330 ;; Defined at:
  1331 ;;		line 57 in file "main.c"
  1332 ;; Parameters:    Size  Location     Type
  1333 ;;		None
  1334 ;; Auto vars:     Size  Location     Type
  1335 ;;  seconds         1    2[BANK3 ] unsigned char 
  1336 ;;  minutes         1    1[BANK3 ] unsigned char 
  1337 ;;  hours           1    0[BANK3 ] unsigned char 
  1338 ;; Return value:  Size  Location     Type
  1339 ;;                  1    wreg      void 
  1340 ;; Registers used:
  1341 ;;		wreg, fsr0l, fsr0h, fsr1l, fsr1h, status,2, status,0, pclath, cstack
  1342 ;; Tracked objects:
  1343 ;;		On entry : B1F/0
  1344 ;;		On exit  : 0/0
  1345 ;;		Unchanged: 0/0
  1346 ;; Data sizes:     COMMON   BANK0   BANK1   BANK2   BANK3   BANK4   BANK5   BANK6   BANK7   BANK8   BANK9  BANK10  BANK1
      +1  BANK12
  1347 ;;      Params:         0       0       0       0       0       0       0       0       0       0       0       0       
      +0       0
  1348 ;;      Locals:         0       0       0       0       3       0       0       0       0       0       0       0       
      +0       0
  1349 ;;      Temps:          0       0       0       6       0       0       0       0       0       0       0       0       
      +0       0
  1350 ;;      Totals:         0       0       0       6       3       0       0       0       0       0       0       0       
      +0       0
  1351 ;;Total ram usage:        9 bytes
  1352 ;; Hardware stack levels required when called:    6
  1353 ;; This function calls:
  1354 ;;		___fldiv
  1355 ;;		_printf
  1356 ;;		_putch
  1357 ;; This function is called by:
  1358 ;;		Startup code after reset
  1359 ;; This function uses a non-reentrant model
  1360 ;;
  1361                           
  1362                           
  1363                           ;psect for function _main
  1364  1059                     _main:	
  1365                           
  1366                           ;main.c: 60: ANSELA = 0x00;
  1367                           
  1368                           ;incstack = 0
  1369                           ; Regs used in _main: [wreg-fsr1h+status,2+status,0+pclath+cstack]
  1370  1059  0023               	movlb	3	; select bank3
  1371  105A  018C               	clrf	12	;volatile
  1372                           
  1373                           ;main.c: 61: ANSELB = 0x00;
  1374  105B  018D               	clrf	13	;volatile
  1375                           
  1376                           ;main.c: 62: ANSELC = 0x00;
  1377  105C  018E               	clrf	14	;volatile
  1378                           
  1379                           ;main.c: 63: TRISB6 = 0;
  1380  105D  0021               	movlb	1	; select bank1
  1381  105E  130D               	bcf	13,6	;volatile
  1382                           
  1383                           ;main.c: 64: TRISB5 = 0;
  1384  105F  128D               	bcf	13,5	;volatile
  1385                           
  1386                           ;main.c: 65: RB7PPS = 0b00010010;
  1387  1060  3012               	movlw	18
  1388  1061  003D               	movlb	29	; select bank29
  1389  1062  009F               	movwf	31	;volatile
  1390                           
  1391                           ;main.c: 68: SYNC = 0;
  1392  1063  0023               	movlb	3	; select bank3
  1393  1064  121E               	bcf	30,4	;volatile
  1394                           
  1395                           ;main.c: 69: SPEN = 1;
  1396  1065  179D               	bsf	29,7	;volatile
  1397                           
  1398                           ;main.c: 70: SP1BRGL = 15;
  1399  1066  300F               	movlw	15
  1400  1067  009B               	movwf	27	;volatile
  1401                           
  1402                           ;main.c: 71: TXEN = 1;
  1403  1068  169E               	bsf	30,5	;volatile
  1404                           
  1405                           ;main.c: 74: _delay((unsigned long)((1000)*(20000000.0/4000.0)));
  1406  1069  301A               	movlw	26
  1407  106A  0022               	movlb	2	; select bank2
  1408  106B  00EA               	movwf	(??_main^(0+256)+2)
  1409  106C  305E               	movlw	94
  1410  106D  00E9               	movwf	(??_main^(0+256)+1)
  1411  106E  3086               	movlw	134
  1412  106F  00E8               	movwf	??_main^(0+256)
  1413  1070                     u7117:	
  1414  1070  0BE8               	decfsz	??_main^(0+256),f
  1415  1071  2870               	goto	u7117
  1416  1072  0BE9               	decfsz	(??_main^(0+256)+1),f
  1417  1073  2870               	goto	u7117
  1418  1074  0BEA               	decfsz	(??_main^(0+256)+2),f
  1419  1075  2870               	goto	u7117
  1420  1076  0000               	nop
  1421                           
  1422                           ;main.c: 75: putch(22);
  1423  1077  3016               	movlw	22
  1424  1078  319C  2405  3190   	fcall	_putch
  1425                           
  1426                           ;main.c: 76: _delay((unsigned long)((10)*(20000000.0/4000.0)));
  1427  107B  3041               	movlw	65
  1428  107C  0022               	movlb	2	; select bank2
  1429  107D  00E9               	movwf	(??_main^(0+256)+1)
  1430  107E  30EE               	movlw	238
  1431  107F  00E8               	movwf	??_main^(0+256)
  1432  1080                     u7127:	
  1433  1080  0BE8               	decfsz	??_main^(0+256),f
  1434  1081  2880               	goto	u7127
  1435  1082  0BE9               	decfsz	(??_main^(0+256)+1),f
  1436  1083  2880               	goto	u7127
  1437  1084  0000               	nop
  1438                           
  1439                           ;main.c: 79: putch(12);
  1440  1085  300C               	movlw	12
  1441  1086  319C  2405  3190   	fcall	_putch
  1442                           
  1443                           ;main.c: 80: _delay((unsigned long)((10)*(20000000.0/4000.0)));
  1444  1089  3041               	movlw	65
  1445  108A  0022               	movlb	2	; select bank2
  1446  108B  00E9               	movwf	(??_main^(0+256)+1)
  1447  108C  30EE               	movlw	238
  1448  108D  00E8               	movwf	??_main^(0+256)
  1449  108E                     u7137:	
  1450  108E  0BE8               	decfsz	??_main^(0+256),f
  1451  108F  288E               	goto	u7137
  1452  1090  0BE9               	decfsz	(??_main^(0+256)+1),f
  1453  1091  288E               	goto	u7137
  1454  1092  0000               	nop
  1455                           
  1456                           ;main.c: 83: ZCD1EN = 1;
  1457  1093  0022               	movlb	2	; select bank2
  1458  1094  179C               	bsf	28,7	;volatile
  1459                           
  1460                           ;main.c: 84: ZCD1INTN = 1;
  1461  1095  141C               	bsf	28,0	;volatile
  1462                           
  1463                           ;main.c: 85: ZCDIE = 1;
  1464  1096  0021               	movlb	1	; select bank1
  1465  1097  1612               	bsf	18,4	;volatile
  1466                           
  1467                           ;main.c: 88: SMT1CON1bits.MODE = 0b100;
  1468  1098  003B               	movlb	27	; select bank27
  1469  1099  0819               	movf	25,w	;volatile
  1470  109A  39F0               	andlw	-16
  1471  109B  3804               	iorlw	4
  1472  109C  0099               	movwf	25	;volatile
  1473                           
  1474                           ;main.c: 89: SMT1CON1bits.REPEAT = 1;
  1475  109D  1719               	bsf	25,6	;volatile
  1476                           
  1477                           ;main.c: 90: SMT1CON0bits.EN = 1;
  1478  109E  1798               	bsf	24,7	;volatile
  1479                           
  1480                           ;main.c: 91: SMT1WINbits.SMT1WSEL = 0b00101;
  1481  109F  3005               	movlw	5
  1482  10A0  009D               	movwf	29	;volatile
  1483                           
  1484                           ;main.c: 92: SMT1PRAIE = 1;
  1485  10A1  0021               	movlb	1	; select bank1
  1486  10A2  1493               	bsf	19,1	;volatile
  1487                           
  1488                           ;main.c: 93: SMT1CON1bits.SMT1GO = 1;
  1489  10A3  003B               	movlb	27	; select bank27
  1490  10A4  1799               	bsf	25,7	;volatile
  1491                           
  1492                           ;main.c: 96: AT1CON0bits.AT1EN = 1;
  1493  10A5  0030               	movlb	16	; select bank16
  1494  10A6  1794               	bsf	20,7	;volatile
  1495                           
  1496                           ;main.c: 97: AT1SIGbits.AT1SSEL = 0b011;
  1497  10A7  0031               	movlb	17	; select bank17
  1498  10A8  080D               	movf	13,w	;volatile
  1499  10A9  39F8               	andlw	-8
  1500  10AA  3803               	iorlw	3
  1501  10AB  008D               	movwf	13	;volatile
  1502                           
  1503                           ;main.c: 98: AT1RES = 359;
  1504  10AC  3001               	movlw	1
  1505  10AD  0030               	movlb	16	; select bank16
  1506  10AE  008D               	movwf	13	;volatile
  1507  10AF  3067               	movlw	103
  1508  10B0  008C               	movwf	12	;volatile
  1509                           
  1510                           ;main.c: 101: PEIE = 1;
  1511  10B1  170B               	bsf	11,6	;volatile
  1512                           
  1513                           ;main.c: 102: GIE = 1;
  1514  10B2  178B               	bsf	11,7	;volatile
  1515                           
  1516                           ;main.c: 105: char hours = 20;
  1517  10B3  3014               	movlw	20
  1518  10B4  0022               	movlb	2	; select bank2
  1519  10B5  00E8               	movwf	??_main^(0+256)
  1520  10B6  0868               	movf	??_main^(0+256),w
  1521  10B7  0023               	movlb	3	; select bank3
  1522  10B8  00A6               	movwf	main@hours^(0+384)
  1523                           
  1524                           ;main.c: 106: char minutes = 12;
  1525  10B9  300C               	movlw	12
  1526  10BA  0022               	movlb	2	; select bank2
  1527  10BB  00E8               	movwf	??_main^(0+256)
  1528  10BC  0868               	movf	??_main^(0+256),w
  1529  10BD  0023               	movlb	3	; select bank3
  1530  10BE  00A7               	movwf	main@minutes^(0+384)
  1531                           
  1532                           ;main.c: 107: char seconds = 00;
  1533  10BF  01A8               	clrf	main@seconds^(0+384)
  1534  10C0                     l4232:	
  1535                           ;main.c: 109: while(1)
  1536                           
  1537                           
  1538                           ;main.c: 110: {
  1539                           ;main.c: 111: if(acqGate)
  1540  10C0  0023               	movlb	3	; select bank3
  1541  10C1  0824               	movf	_acqGate^(0+384),w	;volatile
  1542  10C2  1903               	btfsc	3,2
  1543  10C3  28C0               	goto	l4232
  1544                           
  1545                           ;main.c: 112: {
  1546                           ;main.c: 113: acqGate = 0;
  1547  10C4  01A4               	clrf	_acqGate^(0+384)	;volatile
  1548                           
  1549                           ;main.c: 114: LATB6 = 1;
  1550  10C5  0022               	movlb	2	; select bank2
  1551  10C6  170D               	bsf	13,6	;volatile
  1552                           
  1553                           ;main.c: 116: seconds++;
  1554  10C7  3001               	movlw	1
  1555  10C8  00E8               	movwf	??_main^(0+256)
  1556  10C9  0868               	movf	??_main^(0+256),w
  1557  10CA  0023               	movlb	3	; select bank3
  1558  10CB  07A8               	addwf	main@seconds^(0+384),f
  1559                           
  1560                           ;main.c: 118: if (seconds > 59)
  1561  10CC  303C               	movlw	60
  1562  10CD  0228               	subwf	main@seconds^(0+384),w
  1563  10CE  1C03               	skipc
  1564  10CF  28E6               	goto	l4256
  1565                           
  1566                           ;main.c: 119: {
  1567                           ;main.c: 120: seconds = 0;
  1568  10D0  01A8               	clrf	main@seconds^(0+384)
  1569                           
  1570                           ;main.c: 121: minutes++;
  1571  10D1  3001               	movlw	1
  1572  10D2  0022               	movlb	2	; select bank2
  1573  10D3  00E8               	movwf	??_main^(0+256)
  1574  10D4  0868               	movf	??_main^(0+256),w
  1575  10D5  0023               	movlb	3	; select bank3
  1576  10D6  07A7               	addwf	main@minutes^(0+384),f
  1577                           
  1578                           ;main.c: 123: if (minutes > 59)
  1579  10D7  303C               	movlw	60
  1580  10D8  0227               	subwf	main@minutes^(0+384),w
  1581  10D9  1C03               	skipc
  1582  10DA  28E6               	goto	l4256
  1583                           
  1584                           ;main.c: 124: {
  1585                           ;main.c: 125: minutes = 0;
  1586  10DB  01A7               	clrf	main@minutes^(0+384)
  1587                           
  1588                           ;main.c: 126: hours++;
  1589  10DC  3001               	movlw	1
  1590  10DD  0022               	movlb	2	; select bank2
  1591  10DE  00E8               	movwf	??_main^(0+256)
  1592  10DF  0868               	movf	??_main^(0+256),w
  1593  10E0  0023               	movlb	3	; select bank3
  1594  10E1  07A6               	addwf	main@hours^(0+384),f
  1595                           
  1596                           ;main.c: 128: if (hours > 23)
  1597  10E2  3018               	movlw	24
  1598  10E3  0226               	subwf	main@hours^(0+384),w
  1599  10E4  1803               	btfsc	3,0
  1600                           
  1601                           ;main.c: 129: {
  1602                           ;main.c: 130: hours = 00;
  1603  10E5  01A6               	clrf	main@hours^(0+384)
  1604  10E6                     l4256:	
  1605                           
  1606                           ;main.c: 131: }
  1607                           ;main.c: 132: }
  1608                           ;main.c: 133: }
  1609                           ;main.c: 136: printf(" FREQ: %7.5f     %02d:%02d:%02d    ", acqOut/(double)60, hours, mi
      +                          nutes, seconds);
  1610  10E6  3090               	movlw	low (STR_1| (0+32768))
  1611  10E7  0022               	movlb	2	; select bank2
  1612  10E8  00BC               	movwf	printf@f^(0+256)
  1613  10E9  3098               	movlw	high (STR_1| (0+32768))
  1614  10EA  00BD               	movwf	(printf@f^(0+256)+1)
  1615  10EB  3042               	movlw	66
  1616  10EC  0021               	movlb	1	; select bank1
  1617  10ED  00A3               	movwf	(___fldiv@a+3)^(0+128)
  1618  10EE  3070               	movlw	112
  1619  10EF  00A2               	movwf	(___fldiv@a+2)^(0+128)
  1620  10F0  3000               	movlw	0
  1621  10F1  00A1               	movwf	(___fldiv@a+1)^(0+128)
  1622  10F2  3000               	movlw	0
  1623  10F3  00A0               	movwf	___fldiv@a^(0+128)
  1624  10F4  0023               	movlb	3	; select bank3
  1625  10F5  0823               	movf	(_acqOut+3)^(0+384),w	;volatile
  1626  10F6  0021               	movlb	1	; select bank1
  1627  10F7  00A7               	movwf	(___fldiv@b+3)^(0+128)
  1628  10F8  0023               	movlb	3	; select bank3
  1629  10F9  0822               	movf	(_acqOut+2)^(0+384),w	;volatile
  1630  10FA  0021               	movlb	1	; select bank1
  1631  10FB  00A6               	movwf	(___fldiv@b+2)^(0+128)
  1632  10FC  0023               	movlb	3	; select bank3
  1633  10FD  0821               	movf	(_acqOut+1)^(0+384),w	;volatile
  1634  10FE  0021               	movlb	1	; select bank1
  1635  10FF  00A5               	movwf	(___fldiv@b+1)^(0+128)
  1636  1100  0023               	movlb	3	; select bank3
  1637  1101  0820               	movf	_acqOut^(0+384),w	;volatile
  1638  1102  0021               	movlb	1	; select bank1
  1639  1103  00A4               	movwf	___fldiv@b^(0+128)
  1640  1104  3192  22DB  3190   	fcall	___fldiv
  1641  1107  0021               	movlb	1	; select bank1
  1642  1108  0823               	movf	(?___fldiv+3)^(0+128),w
  1643  1109  0022               	movlb	2	; select bank2
  1644  110A  00C1               	movwf	((?_printf+3)^(0+256)+2)
  1645  110B  0021               	movlb	1	; select bank1
  1646  110C  0822               	movf	(?___fldiv+2)^(0+128),w
  1647  110D  0022               	movlb	2	; select bank2
  1648  110E  00C0               	movwf	((?_printf+2)^(0+256)+2)
  1649  110F  0021               	movlb	1	; select bank1
  1650  1110  0821               	movf	(?___fldiv+1)^(0+128),w
  1651  1111  0022               	movlb	2	; select bank2
  1652  1112  00BF               	movwf	((?_printf+1)^(0+256)+2)
  1653  1113  0021               	movlb	1	; select bank1
  1654  1114  0820               	movf	?___fldiv^(0+128),w
  1655  1115  0022               	movlb	2	; select bank2
  1656  1116  00BE               	movwf	(?_printf^(0+256)+2)
  1657  1117  0023               	movlb	3	; select bank3
  1658  1118  0826               	movf	main@hours^(0+384),w
  1659  1119  0022               	movlb	2	; select bank2
  1660  111A  00E8               	movwf	??_main^(0+256)
  1661  111B  01E9               	clrf	(??_main^(0+256)+1)
  1662  111C  0868               	movf	??_main^(0+256),w
  1663  111D  00C2               	movwf	(?_printf^(0+256)+6)
  1664  111E  0869               	movf	(??_main+1)^(0+256),w
  1665  111F  00C3               	movwf	((?_printf+1)^(0+256)+6)
  1666  1120  0023               	movlb	3	; select bank3
  1667  1121  0827               	movf	main@minutes^(0+384),w
  1668  1122  0022               	movlb	2	; select bank2
  1669  1123  00EA               	movwf	(??_main+2)^(0+256)
  1670  1124  01EB               	clrf	((??_main+2)^(0+256)+1)
  1671  1125  086A               	movf	(??_main+2)^(0+256),w
  1672  1126  00C4               	movwf	(?_printf^(0+256)+8)
  1673  1127  086B               	movf	(??_main+3)^(0+256),w
  1674  1128  00C5               	movwf	((?_printf+1)^(0+256)+8)
  1675  1129  0023               	movlb	3	; select bank3
  1676  112A  0828               	movf	main@seconds^(0+384),w
  1677  112B  0022               	movlb	2	; select bank2
  1678  112C  00EC               	movwf	(??_main+4)^(0+256)
  1679  112D  01ED               	clrf	((??_main+4)^(0+256)+1)
  1680  112E  086C               	movf	(??_main+4)^(0+256),w
  1681  112F  00C6               	movwf	(?_printf^(0+256)+10)
  1682  1130  086D               	movf	(??_main+5)^(0+256),w
  1683  1131  00C7               	movwf	((?_printf+1)^(0+256)+10)
  1684  1132  3180  20AA  3190   	fcall	_printf
  1685                           
  1686                           ;main.c: 137: acqOut = 0;
  1687  1135  3000               	movlw	0
  1688  1136  0023               	movlb	3	; select bank3
  1689  1137  00A3               	movwf	(_acqOut+3)^(0+384)	;volatile
  1690  1138  3000               	movlw	0
  1691  1139  00A2               	movwf	(_acqOut+2)^(0+384)	;volatile
  1692  113A  3000               	movlw	0
  1693  113B  00A1               	movwf	(_acqOut+1)^(0+384)	;volatile
  1694  113C  3000               	movlw	0
  1695  113D  00A0               	movwf	_acqOut^(0+384)	;volatile
  1696                           
  1697                           ;main.c: 138: LATB6 = 0;
  1698  113E  0022               	movlb	2	; select bank2
  1699  113F  130D               	bcf	13,6	;volatile
  1700                           
  1701                           ;main.c: 140: if (missedCycle)
  1702  1140  0023               	movlb	3	; select bank3
  1703  1141  0825               	movf	_missedCycle^(0+384),w	;volatile
  1704  1142  1903               	btfsc	3,2
  1705  1143  2949               	goto	l84
  1706                           
  1707                           ;main.c: 141: {
  1708                           ;main.c: 142: LATB5 = 0;
  1709  1144  0022               	movlb	2	; select bank2
  1710  1145  128D               	bcf	13,5	;volatile
  1711                           
  1712                           ;main.c: 143: missedCycle = 0;
  1713  1146  0023               	movlb	3	; select bank3
  1714  1147  01A5               	clrf	_missedCycle^(0+384)	;volatile
  1715                           
  1716                           ;main.c: 144: } else {
  1717  1148  28C0               	goto	l4232
  1718  1149                     l84:	
  1719                           
  1720                           ;main.c: 145: LATB5 = 1;
  1721  1149  0022               	movlb	2	; select bank2
  1722  114A  168D               	bsf	13,5	;volatile
  1723  114B  28C0               	goto	l4232
  1724  114C                     __end_of_main:	
  1725                           ;main.c: 146: }
  1726                           ;main.c: 147: }
  1727                           ;main.c: 148: }
  1728                           ;main.c: 150: return;
  1729                           
  1730                           
  1731                           	psect	text1
  1732  00AA                     __ptext1:	
  1733 ;; *************** function _printf *****************
  1734 ;; Defined at:
  1735 ;;		line 464 in file "/Applications/microchip/xc8/v1.37/sources/common/doprnt.c"
  1736 ;; Parameters:    Size  Location     Type
  1737 ;;  f               2   28[BANK2 ] PTR const unsigned char 
  1738 ;;		 -> STR_1(36), 
  1739 ;; Auto vars:     Size  Location     Type
  1740 ;;  fval            4   65[BANK2 ] PTR const unsigned char 
  1741 ;;  val             4   55[BANK2 ] unsigned long 
  1742 ;;  tmpval          4   51[BANK2 ] struct .
  1743 ;;  prec            2   69[BANK2 ] int 
  1744 ;;  width           2   63[BANK2 ] int 
  1745 ;;  flag            2   61[BANK2 ] unsigned short 
  1746 ;;  exp             2   59[BANK2 ] int 
  1747 ;;  cp              2    0        PTR const unsigned char 
  1748 ;;  len             2    0        unsigned int 
  1749 ;;  c               1   71[BANK2 ] char 
  1750 ;;  ap              1   50[BANK2 ] PTR void [1]
  1751 ;;		 -> ?_printf(2), 
  1752 ;;  d               1    0        unsigned char 
  1753 ;; Return value:  Size  Location     Type
  1754 ;;                  2   28[BANK2 ] int 
  1755 ;; Registers used:
  1756 ;;		wreg, fsr0l, fsr0h, fsr1l, fsr1h, status,2, status,0, pclath, cstack
  1757 ;; Tracked objects:
  1758 ;;		On entry : 0/0
  1759 ;;		On exit  : 0/0
  1760 ;;		Unchanged: 0/0
  1761 ;; Data sizes:     COMMON   BANK0   BANK1   BANK2   BANK3   BANK4   BANK5   BANK6   BANK7   BANK8   BANK9  BANK10  BANK1
      +1  BANK12
  1762 ;;      Params:         0       0       0      12       0       0       0       0       0       0       0       0       
      +0       0
  1763 ;;      Locals:         0       0       0      26       0       0       0       0       0       0       0       0       
      +0       0
  1764 ;;      Temps:          0       0       0       6       0       0       0       0       0       0       0       0       
      +0       0
  1765 ;;      Totals:         0       0       0      44       0       0       0       0       0       0       0       0       
      +0       0
  1766 ;;Total ram usage:       44 bytes
  1767 ;; Hardware stack levels used:    1
  1768 ;; Hardware stack levels required when called:    5
  1769 ;; This function calls:
  1770 ;;		___awdiv
  1771 ;;		___fladd
  1772 ;;		___flge
  1773 ;;		___flmul
  1774 ;;		___flneg
  1775 ;;		___flsub
  1776 ;;		___fltol
  1777 ;;		___lldiv
  1778 ;;		___llmod
  1779 ;;		___wmul
  1780 ;;		___xxtofl
  1781 ;;		__div_to_l_
  1782 ;;		__tdiv_to_l_
  1783 ;;		_fround
  1784 ;;		_isdigit
  1785 ;;		_putch
  1786 ;;		_scale
  1787 ;; This function is called by:
  1788 ;;		_main
  1789 ;; This function uses a non-reentrant model
  1790 ;;
  1791                           
  1792                           
  1793                           ;psect for function _printf
  1794  00AA                     _printf:	
  1795                           
  1796                           ;doprnt.c: 466: va_list ap;
  1797                           ;doprnt.c: 499: signed char c;
  1798                           ;doprnt.c: 501: int width;
  1799                           ;doprnt.c: 504: int prec;
  1800                           ;doprnt.c: 508: unsigned short flag;
  1801                           ;doprnt.c: 515: char d;
  1802                           ;doprnt.c: 516: double fval;
  1803                           ;doprnt.c: 517: int exp;
  1804                           ;doprnt.c: 523: union {
  1805                           ;doprnt.c: 524: unsigned long vd;
  1806                           ;doprnt.c: 525: double integ;
  1807                           ;doprnt.c: 526: } tmpval;
  1808                           ;doprnt.c: 528: unsigned long val;
  1809                           ;doprnt.c: 529: unsigned len;
  1810                           ;doprnt.c: 530: const char * cp;
  1811                           ;doprnt.c: 533: *ap = __va_start();
  1812                           
  1813                           ;incstack = 0
  1814                           ; Regs used in _printf: [wreg-fsr1h+status,2+status,0+pclath+cstack]
  1815  00AA  303E               	movlw	(low ((?_printf| (0+256)+2)))& (0+255)
  1816  00AB  0022               	movlb	2	; select bank2
  1817  00AC  00C8               	movwf	??_printf^(0+256)
  1818  00AD  0848               	movf	??_printf^(0+256),w
  1819  00AE  00D2               	movwf	printf@ap^(0+256)
  1820  00AF                     l3662:	
  1821                           ;doprnt.c: 536: while(c = *f++) {
  1822                           
  1823  00AF  0022               	movlb	2	; select bank2
  1824  00B0  083D               	movf	(printf@f+1)^(0+256),w
  1825  00B1  00C9               	movwf	(??_printf^(0+256)+1)
  1826  00B2  083C               	movf	printf@f^(0+256),w
  1827  00B3  00C8               	movwf	??_printf^(0+256)
  1828  00B4  0ABC               	incf	printf@f^(0+256),f
  1829  00B5  1903               	skipnz
  1830  00B6  0ABD               	incf	(printf@f+1)^(0+256),f
  1831  00B7  0848               	movf	??_printf^(0+256),w
  1832  00B8  0084               	movwf	4
  1833  00B9  0849               	movf	(??_printf+1)^(0+256),w
  1834  00BA  0085               	movwf	5
  1835  00BB  0800               	movf	0,w	;code access
  1836  00BC  00CA               	movwf	(??_printf+2)^(0+256)
  1837  00BD  084A               	movf	(??_printf+2)^(0+256),w
  1838  00BE  00E7               	movwf	printf@c^(0+256)
  1839  00BF  0867               	movf	printf@c^(0+256),w
  1840  00C0  1903               	btfsc	3,2
  1841  00C1  0008               	return
  1842                           
  1843                           ;doprnt.c: 538: if(c != '%')
  1844  00C2  3025               	movlw	37
  1845  00C3  0667               	xorwf	printf@c^(0+256),w
  1846  00C4  1903               	btfsc	3,2
  1847  00C5  28CB               	goto	l3382
  1848                           
  1849                           ;doprnt.c: 540: {
  1850                           ;doprnt.c: 541: (putch(c) );
  1851  00C6  0867               	movf	printf@c^(0+256),w
  1852  00C7  319C  2405  3180   	fcall	_putch
  1853                           
  1854                           ;doprnt.c: 542: continue;
  1855  00CA  28AF               	goto	l3662
  1856  00CB                     l3382:	
  1857                           
  1858                           ;doprnt.c: 543: }
  1859                           ;doprnt.c: 546: width = 0;
  1860  00CB  0022               	movlb	2	; select bank2
  1861  00CC  01DF               	clrf	printf@width^(0+256)
  1862  00CD  01E0               	clrf	(printf@width+1)^(0+256)
  1863                           
  1864                           ;doprnt.c: 548: flag = 0;
  1865  00CE  01DD               	clrf	printf@flag^(0+256)
  1866  00CF  01DE               	clrf	(printf@flag+1)^(0+256)
  1867                           
  1868                           ;doprnt.c: 551: switch(*f) {
  1869                           
  1870                           ;doprnt.c: 550: for(;;) {
  1871  00D0  28D6               	goto	l3388
  1872  00D1                     l146:	
  1873                           ;doprnt.c: 579: case '0':
  1874                           
  1875                           
  1876                           ;doprnt.c: 580: flag |= 0x04;
  1877  00D1  155D               	bsf	printf@flag^(0+256),2
  1878                           
  1879                           ;doprnt.c: 581: f++;
  1880  00D2  3001               	movlw	1
  1881  00D3  07BC               	addwf	printf@f^(0+256),f
  1882  00D4  3000               	movlw	0
  1883  00D5  3DBD               	addwfc	(printf@f+1)^(0+256),f
  1884  00D6                     l3388:	
  1885                           ;doprnt.c: 584: }
  1886                           
  1887                           ;doprnt.c: 582: continue;
  1888                           
  1889  00D6  083C               	movf	printf@f^(0+256),w
  1890  00D7  0084               	movwf	4
  1891  00D8  083D               	movf	(printf@f+1)^(0+256),w
  1892  00D9  0085               	movwf	5
  1893  00DA  0800               	movf	0,w	;code access
  1894                           
  1895                           ; Switch size 1, requested type "space"
  1896                           ; Number of cases is 1, Range of values is 48 to 48
  1897                           ; switch strategies available:
  1898                           ; Name         Instructions Cycles
  1899                           ; simple_byte            4     3 (average)
  1900                           ; direct_byte           11     9 (fixed)
  1901                           ; jumptable            263     9 (fixed)
  1902                           ;	Chosen strategy is simple_byte
  1903  00DB  3A30               	xorlw	48	; case 48
  1904  00DC  1903               	skipnz
  1905  00DD  28D1               	goto	l146
  1906  00DE  28DF               	goto	l3390
  1907  00DF                     l3390:	
  1908                           ;doprnt.c: 586: }
  1909                           
  1910                           ;doprnt.c: 585: break;
  1911                           
  1912                           
  1913                           ;doprnt.c: 597: if(isdigit((unsigned)*f)) {
  1914  00DF  083C               	movf	printf@f^(0+256),w
  1915  00E0  0084               	movwf	4
  1916  00E1  083D               	movf	(printf@f+1)^(0+256),w
  1917  00E2  0085               	movwf	5
  1918  00E3  0800               	movf	0,w	;code access
  1919  00E4  3187  27F1  3180   	fcall	_isdigit
  1920  00E7  1C03               	btfss	3,0
  1921  00E8  2921               	goto	l3402
  1922                           
  1923                           ;doprnt.c: 598: width = 0;
  1924  00E9  0022               	movlb	2	; select bank2
  1925  00EA  01DF               	clrf	printf@width^(0+256)
  1926  00EB  01E0               	clrf	(printf@width+1)^(0+256)
  1927  00EC                     l3394:	
  1928                           ;doprnt.c: 599: do {
  1929                           
  1930                           
  1931                           ;doprnt.c: 600: width *= 10;
  1932  00EC  300A               	movlw	10
  1933  00ED  0021               	movlb	1	; select bank1
  1934  00EE  00A0               	movwf	___wmul@multiplier^(0+128)
  1935  00EF  3000               	movlw	0
  1936  00F0  00A1               	movwf	(___wmul@multiplier^(0+128)+1)
  1937  00F1  0022               	movlb	2	; select bank2
  1938  00F2  0860               	movf	(printf@width+1)^(0+256),w
  1939  00F3  0021               	movlb	1	; select bank1
  1940  00F4  00A3               	movwf	(___wmul@multiplicand+1)^(0+128)
  1941  00F5  0022               	movlb	2	; select bank2
  1942  00F6  085F               	movf	printf@width^(0+256),w
  1943  00F7  0021               	movlb	1	; select bank1
  1944  00F8  00A2               	movwf	___wmul@multiplicand^(0+128)
  1945  00F9  319C  240F  3180   	fcall	___wmul
  1946  00FC  0021               	movlb	1	; select bank1
  1947  00FD  0821               	movf	(?___wmul+1)^(0+128),w
  1948  00FE  0022               	movlb	2	; select bank2
  1949  00FF  00E0               	movwf	(printf@width+1)^(0+256)
  1950  0100  0021               	movlb	1	; select bank1
  1951  0101  0820               	movf	?___wmul^(0+128),w
  1952  0102  0022               	movlb	2	; select bank2
  1953  0103  00DF               	movwf	printf@width^(0+256)
  1954                           
  1955                           ;doprnt.c: 601: width += *f++ - '0';
  1956  0104  083C               	movf	printf@f^(0+256),w
  1957  0105  0084               	movwf	4
  1958  0106  083D               	movf	(printf@f+1)^(0+256),w
  1959  0107  0085               	movwf	5
  1960  0108  0800               	movf	0,w	;code access
  1961  0109  3ED0               	addlw	208
  1962  010A  00C8               	movwf	??_printf^(0+256)
  1963  010B  30FF               	movlw	255
  1964  010C  1803               	skipnc
  1965  010D  3000               	movlw	0
  1966  010E  00C9               	movwf	(??_printf^(0+256)+1)
  1967  010F  0848               	movf	??_printf^(0+256),w
  1968  0110  07DF               	addwf	printf@width^(0+256),f
  1969  0111  0849               	movf	(??_printf+1)^(0+256),w
  1970  0112  3DE0               	addwfc	(printf@width+1)^(0+256),f
  1971  0113  3001               	movlw	1
  1972  0114  07BC               	addwf	printf@f^(0+256),f
  1973  0115  3000               	movlw	0
  1974  0116  3DBD               	addwfc	(printf@f+1)^(0+256),f
  1975                           
  1976                           ;doprnt.c: 602: } while(isdigit((unsigned)*f));
  1977  0117  083C               	movf	printf@f^(0+256),w
  1978  0118  0084               	movwf	4
  1979  0119  083D               	movf	(printf@f+1)^(0+256),w
  1980  011A  0085               	movwf	5
  1981  011B  0800               	movf	0,w	;code access
  1982  011C  3187  27F1  3180   	fcall	_isdigit
  1983  011F  1803               	btfsc	3,0
  1984  0120  28EC               	goto	l3394
  1985  0121                     l3402:	
  1986                           
  1987                           ;doprnt.c: 608: }
  1988                           ;doprnt.c: 611: if(*f == '.') {
  1989  0121  0022               	movlb	2	; select bank2
  1990  0122  083C               	movf	printf@f^(0+256),w
  1991  0123  0084               	movwf	4
  1992  0124  083D               	movf	(printf@f+1)^(0+256),w
  1993  0125  0085               	movwf	5
  1994  0126  0012               	moviw fsr0++
  1995  0127  3A2E               	xorlw	46
  1996  0128  1D03               	btfss	3,2
  1997  0129  2967               	goto	l3416
  1998                           
  1999                           ;doprnt.c: 612: flag |= 0x4000;
  2000  012A  175E               	bsf	(printf@flag^(0+256)+1),6
  2001                           
  2002                           ;doprnt.c: 613: f++;
  2003  012B  3001               	movlw	1
  2004  012C  07BC               	addwf	printf@f^(0+256),f
  2005  012D  3000               	movlw	0
  2006  012E  3DBD               	addwfc	(printf@f+1)^(0+256),f
  2007                           
  2008                           ;doprnt.c: 620: {
  2009                           ;doprnt.c: 621: prec = 0;
  2010  012F  01E5               	clrf	printf@prec^(0+256)
  2011  0130  01E6               	clrf	(printf@prec+1)^(0+256)
  2012  0131                     l3414:	
  2013                           ;doprnt.c: 622: while(isdigit((unsigned)*f))
  2014                           
  2015  0131  083C               	movf	printf@f^(0+256),w
  2016  0132  0084               	movwf	4
  2017  0133  083D               	movf	(printf@f+1)^(0+256),w
  2018  0134  0085               	movwf	5
  2019  0135  0800               	movf	0,w	;code access
  2020  0136  3187  27F1  3180   	fcall	_isdigit
  2021  0139  1C03               	btfss	3,0
  2022  013A  296E               	goto	l3422
  2023                           
  2024                           ;doprnt.c: 623: prec = prec*10 + *f++ - '0';
  2025  013B  0022               	movlb	2	; select bank2
  2026  013C  083C               	movf	printf@f^(0+256),w
  2027  013D  0084               	movwf	4
  2028  013E  083D               	movf	(printf@f+1)^(0+256),w
  2029  013F  0085               	movwf	5
  2030  0140  0800               	movf	0,w	;code access
  2031  0141  00C8               	movwf	??_printf^(0+256)
  2032  0142  01C9               	clrf	(??_printf^(0+256)+1)
  2033  0143  0866               	movf	(printf@prec+1)^(0+256),w
  2034  0144  0021               	movlb	1	; select bank1
  2035  0145  00A1               	movwf	(___wmul@multiplier+1)^(0+128)
  2036  0146  0022               	movlb	2	; select bank2
  2037  0147  0865               	movf	printf@prec^(0+256),w
  2038  0148  0021               	movlb	1	; select bank1
  2039  0149  00A0               	movwf	___wmul@multiplier^(0+128)
  2040  014A  300A               	movlw	10
  2041  014B  00A2               	movwf	___wmul@multiplicand^(0+128)
  2042  014C  3000               	movlw	0
  2043  014D  00A3               	movwf	(___wmul@multiplicand^(0+128)+1)
  2044  014E  319C  240F  3180   	fcall	___wmul
  2045  0151  0022               	movlb	2	; select bank2
  2046  0152  0848               	movf	??_printf^(0+256),w
  2047  0153  0021               	movlb	1	; select bank1
  2048  0154  0720               	addwf	?___wmul^(0+128),w
  2049  0155  0022               	movlb	2	; select bank2
  2050  0156  00CA               	movwf	(??_printf+2)^(0+256)
  2051  0157  0849               	movf	(??_printf+1)^(0+256),w
  2052  0158  0021               	movlb	1	; select bank1
  2053  0159  3D21               	addwfc	(?___wmul+1)^(0+128),w
  2054  015A  0022               	movlb	2	; select bank2
  2055  015B  00CB               	movwf	(??_printf+3)^(0+256)
  2056  015C  084A               	movf	(??_printf+2)^(0+256),w
  2057  015D  3ED0               	addlw	208
  2058  015E  00E5               	movwf	printf@prec^(0+256)
  2059  015F  30FF               	movlw	255
  2060  0160  3D4B               	addwfc	(??_printf+3)^(0+256),w
  2061  0161  00E6               	movwf	(printf@prec+1)^(0+256)
  2062  0162  3001               	movlw	1
  2063  0163  07BC               	addwf	printf@f^(0+256),f
  2064  0164  3000               	movlw	0
  2065  0165  3DBD               	addwfc	(printf@f+1)^(0+256),f
  2066  0166  2931               	goto	l3414
  2067  0167                     l3416:	
  2068                           ;doprnt.c: 624: }
  2069                           ;doprnt.c: 625: } else {
  2070                           
  2071                           
  2072                           ;doprnt.c: 626: prec = 0;
  2073  0167  0022               	movlb	2	; select bank2
  2074  0168  01E5               	clrf	printf@prec^(0+256)
  2075  0169  01E6               	clrf	(printf@prec+1)^(0+256)
  2076                           
  2077                           ;doprnt.c: 628: flag |= 0x1000;
  2078  016A  165E               	bsf	(printf@flag^(0+256)+1),4
  2079                           
  2080                           ;doprnt.c: 630: }
  2081                           ;doprnt.c: 635: switch(c = *f++) {
  2082  016B  296E               	goto	l3422
  2083  016C                     l161:	
  2084                           ;doprnt.c: 662: case 'f':
  2085                           
  2086                           ;doprnt.c: 638: goto alldone;
  2087                           
  2088                           ;doprnt.c: 637: case 0:
  2089                           
  2090                           
  2091                           ;doprnt.c: 663: flag |= 0x400;
  2092  016C  155E               	bsf	(printf@flag^(0+256)+1),2
  2093                           
  2094                           ;doprnt.c: 698: case 'i':
  2095                           ;doprnt.c: 699: break;
  2096                           
  2097                           ;doprnt.c: 697: case 'd':
  2098                           
  2099                           ;doprnt.c: 664: break;
  2100  016D  2989               	goto	l3424
  2101  016E                     l3422:	
  2102                           ;doprnt.c: 822: }
  2103                           
  2104                           ;doprnt.c: 813: continue;
  2105                           
  2106                           ;doprnt.c: 802: default:
  2107                           
  2108  016E  0022               	movlb	2	; select bank2
  2109  016F  083D               	movf	(printf@f+1)^(0+256),w
  2110  0170  00C9               	movwf	(??_printf^(0+256)+1)
  2111  0171  083C               	movf	printf@f^(0+256),w
  2112  0172  00C8               	movwf	??_printf^(0+256)
  2113  0173  0ABC               	incf	printf@f^(0+256),f
  2114  0174  1903               	skipnz
  2115  0175  0ABD               	incf	(printf@f+1)^(0+256),f
  2116  0176  0848               	movf	??_printf^(0+256),w
  2117  0177  0084               	movwf	4
  2118  0178  0849               	movf	(??_printf+1)^(0+256),w
  2119  0179  0085               	movwf	5
  2120  017A  0800               	movf	0,w	;code access
  2121  017B  00E7               	movwf	printf@c^(0+256)
  2122                           
  2123                           ; Switch size 1, requested type "space"
  2124                           ; Number of cases is 4, Range of values is 0 to 105
  2125                           ; switch strategies available:
  2126                           ; Name         Instructions Cycles
  2127                           ; simple_byte           13     7 (average)
  2128                           ; direct_byte          218     6 (fixed)
  2129                           ; jumptable            260     6 (fixed)
  2130                           ;	Chosen strategy is simple_byte
  2131  017C  3A00               	xorlw	0	; case 0
  2132  017D  1903               	skipnz
  2133  017E  2FD0               	goto	l243
  2134  017F  3A64               	xorlw	100	; case 100
  2135  0180  1903               	skipnz
  2136  0181  2989               	goto	l3424
  2137  0182  3A02               	xorlw	2	; case 102
  2138  0183  1903               	skipnz
  2139  0184  296C               	goto	l161
  2140  0185  3A0F               	xorlw	15	; case 105
  2141  0186  1903               	skipnz
  2142  0187  2989               	goto	l3424
  2143  0188  28AF               	goto	l3662
  2144  0189                     l3424:	
  2145                           
  2146                           ;doprnt.c: 825: if(flag & (0x700)) {
  2147  0189  3000               	movlw	0
  2148  018A  055D               	andwf	printf@flag^(0+256),w
  2149  018B  00C8               	movwf	??_printf^(0+256)
  2150  018C  3007               	movlw	7
  2151  018D  055E               	andwf	(printf@flag+1)^(0+256),w
  2152  018E  00C9               	movwf	(??_printf+1)^(0+256)
  2153  018F  0848               	movf	??_printf^(0+256),w
  2154  0190  0449               	iorwf	(??_printf^(0+256)+1),w
  2155  0191  1903               	btfsc	3,2
  2156  0192  2E62               	goto	l3580
  2157                           
  2158                           ;doprnt.c: 827: if(flag & 0x1000)
  2159  0193  1E5E               	btfss	(printf@flag+1)^(0+256),4
  2160  0194  2999               	goto	l3430
  2161                           
  2162                           ;doprnt.c: 829: prec = 6;
  2163  0195  3006               	movlw	6
  2164  0196  00E5               	movwf	printf@prec^(0+256)
  2165  0197  3000               	movlw	0
  2166  0198  00E6               	movwf	(printf@prec^(0+256)+1)
  2167  0199                     l3430:	
  2168                           
  2169                           ;doprnt.c: 830: fval = (*(double *)__va_arg((*(double **)ap), (double)0));
  2170  0199  0852               	movf	printf@ap^(0+256),w
  2171  019A  0086               	movwf	6
  2172  019B  3001               	movlw	1	; select bank2/3
  2173  019C  0087               	movwf	7
  2174  019D  3F40               	moviw [0]fsr1
  2175  019E  00E1               	movwf	printf@fval^(0+256)
  2176  019F  3F41               	moviw [1]fsr1
  2177  01A0  00E2               	movwf	(printf@fval+1)^(0+256)
  2178  01A1  3F42               	moviw [2]fsr1
  2179  01A2  00E3               	movwf	(printf@fval+2)^(0+256)
  2180  01A3  3F43               	moviw [3]fsr1
  2181  01A4  00E4               	movwf	(printf@fval+3)^(0+256)
  2182  01A5  3004               	movlw	4
  2183  01A6  00C8               	movwf	??_printf^(0+256)
  2184  01A7  0848               	movf	??_printf^(0+256),w
  2185  01A8  07D2               	addwf	printf@ap^(0+256),f
  2186                           
  2187                           ;doprnt.c: 831: if(fval < 0.0) {
  2188  01A9  0864               	movf	(printf@fval+3)^(0+256),w
  2189  01AA  0021               	movlb	1	; select bank1
  2190  01AB  00A3               	movwf	(___flge@ff1+3)^(0+128)
  2191  01AC  0022               	movlb	2	; select bank2
  2192  01AD  0863               	movf	(printf@fval+2)^(0+256),w
  2193  01AE  0021               	movlb	1	; select bank1
  2194  01AF  00A2               	movwf	(___flge@ff1+2)^(0+128)
  2195  01B0  0022               	movlb	2	; select bank2
  2196  01B1  0862               	movf	(printf@fval+1)^(0+256),w
  2197  01B2  0021               	movlb	1	; select bank1
  2198  01B3  00A1               	movwf	(___flge@ff1+1)^(0+128)
  2199  01B4  0022               	movlb	2	; select bank2
  2200  01B5  0861               	movf	printf@fval^(0+256),w
  2201  01B6  0021               	movlb	1	; select bank1
  2202  01B7  00A0               	movwf	___flge@ff1^(0+128)
  2203  01B8  3000               	movlw	0
  2204  01B9  00A7               	movwf	(___flge@ff2+3)^(0+128)
  2205  01BA  3000               	movlw	0
  2206  01BB  00A6               	movwf	(___flge@ff2+2)^(0+128)
  2207  01BC  3000               	movlw	0
  2208  01BD  00A5               	movwf	(___flge@ff2+1)^(0+128)
  2209  01BE  3000               	movlw	0
  2210  01BF  00A4               	movwf	___flge@ff2^(0+128)
  2211  01C0  319E  26B0  3180   	fcall	___flge
  2212  01C3  1803               	btfsc	3,0
  2213  01C4  29EC               	goto	l3440
  2214                           
  2215                           ;doprnt.c: 832: fval = -fval;
  2216  01C5  0022               	movlb	2	; select bank2
  2217  01C6  0864               	movf	(printf@fval+3)^(0+256),w
  2218  01C7  0021               	movlb	1	; select bank1
  2219  01C8  00A3               	movwf	(___flneg@f1+3)^(0+128)
  2220  01C9  0022               	movlb	2	; select bank2
  2221  01CA  0863               	movf	(printf@fval+2)^(0+256),w
  2222  01CB  0021               	movlb	1	; select bank1
  2223  01CC  00A2               	movwf	(___flneg@f1+2)^(0+128)
  2224  01CD  0022               	movlb	2	; select bank2
  2225  01CE  0862               	movf	(printf@fval+1)^(0+256),w
  2226  01CF  0021               	movlb	1	; select bank1
  2227  01D0  00A1               	movwf	(___flneg@f1+1)^(0+128)
  2228  01D1  0022               	movlb	2	; select bank2
  2229  01D2  0861               	movf	printf@fval^(0+256),w
  2230  01D3  0021               	movlb	1	; select bank1
  2231  01D4  00A0               	movwf	___flneg@f1^(0+128)
  2232  01D5  319B  23FB  3180   	fcall	___flneg
  2233  01D8  0021               	movlb	1	; select bank1
  2234  01D9  0823               	movf	(?___flneg+3)^(0+128),w
  2235  01DA  0022               	movlb	2	; select bank2
  2236  01DB  00E4               	movwf	(printf@fval+3)^(0+256)
  2237  01DC  0021               	movlb	1	; select bank1
  2238  01DD  0822               	movf	(?___flneg+2)^(0+128),w
  2239  01DE  0022               	movlb	2	; select bank2
  2240  01DF  00E3               	movwf	(printf@fval+2)^(0+256)
  2241  01E0  0021               	movlb	1	; select bank1
  2242  01E1  0821               	movf	(?___flneg+1)^(0+128),w
  2243  01E2  0022               	movlb	2	; select bank2
  2244  01E3  00E2               	movwf	(printf@fval+1)^(0+256)
  2245  01E4  0021               	movlb	1	; select bank1
  2246  01E5  0820               	movf	?___flneg^(0+128),w
  2247  01E6  0022               	movlb	2	; select bank2
  2248  01E7  00E1               	movwf	printf@fval^(0+256)
  2249                           
  2250                           ;doprnt.c: 833: flag |= 0x03;
  2251  01E8  3003               	movlw	3
  2252  01E9  04DD               	iorwf	printf@flag^(0+256),f
  2253  01EA  3000               	movlw	0
  2254  01EB  04DE               	iorwf	(printf@flag+1)^(0+256),f
  2255  01EC                     l3440:	
  2256                           
  2257                           ;doprnt.c: 834: }
  2258                           ;doprnt.c: 835: exp = 0;
  2259  01EC  0022               	movlb	2	; select bank2
  2260  01ED  01DB               	clrf	printf@exp^(0+256)
  2261  01EE  01DC               	clrf	(printf@exp+1)^(0+256)
  2262                           
  2263                           ;doprnt.c: 836: if( fval!=0) {
  2264  01EF  0864               	movf	(printf@fval+3)^(0+256),w
  2265  01F0  0463               	iorwf	(printf@fval+2)^(0+256),w
  2266  01F1  0462               	iorwf	(printf@fval+1)^(0+256),w
  2267  01F2  0461               	iorwf	printf@fval^(0+256),w
  2268  01F3  1903               	skipnz
  2269  01F4  2ACA               	goto	l169
  2270                           
  2271                           ;doprnt.c: 837: (void)(*(&exp) = (unsigned char)((*(unsigned long *)&fval >> 23) & 255) 
      +                          - 126);
  2272  01F5  0861               	movf	printf@fval^(0+256),w
  2273  01F6  00C8               	movwf	??_printf^(0+256)
  2274  01F7  0862               	movf	(printf@fval+1)^(0+256),w
  2275  01F8  00C9               	movwf	(??_printf^(0+256)+1)
  2276  01F9  0863               	movf	(printf@fval+2)^(0+256),w
  2277  01FA  00CA               	movwf	(??_printf^(0+256)+2)
  2278  01FB  0864               	movf	(printf@fval+3)^(0+256),w
  2279  01FC  00CB               	movwf	(??_printf^(0+256)+3)
  2280  01FD  1003               	clrc
  2281  01FE  0D4A               	rlf	(??_printf^(0+256)+2),w
  2282  01FF  0D4B               	rlf	(??_printf^(0+256)+3),w
  2283  0200  3E82               	addlw	130
  2284  0201  00DB               	movwf	printf@exp^(0+256)
  2285  0202  30FF               	movlw	255
  2286  0203  1803               	skipnc
  2287  0204  3000               	movlw	0
  2288  0205  00DC               	movwf	(printf@exp^(0+256)+1)
  2289                           
  2290                           ;doprnt.c: 838: exp--;
  2291  0206  30FF               	movlw	255
  2292  0207  07DB               	addwf	printf@exp^(0+256),f
  2293  0208  30FF               	movlw	255
  2294  0209  3DDC               	addwfc	(printf@exp+1)^(0+256),f
  2295                           
  2296                           ;doprnt.c: 839: exp *= 3;
  2297  020A  3003               	movlw	3
  2298  020B  0021               	movlb	1	; select bank1
  2299  020C  00A0               	movwf	___wmul@multiplier^(0+128)
  2300  020D  3000               	movlw	0
  2301  020E  00A1               	movwf	(___wmul@multiplier^(0+128)+1)
  2302  020F  0022               	movlb	2	; select bank2
  2303  0210  085C               	movf	(printf@exp+1)^(0+256),w
  2304  0211  0021               	movlb	1	; select bank1
  2305  0212  00A3               	movwf	(___wmul@multiplicand+1)^(0+128)
  2306  0213  0022               	movlb	2	; select bank2
  2307  0214  085B               	movf	printf@exp^(0+256),w
  2308  0215  0021               	movlb	1	; select bank1
  2309  0216  00A2               	movwf	___wmul@multiplicand^(0+128)
  2310  0217  319C  240F  3180   	fcall	___wmul
  2311  021A  0021               	movlb	1	; select bank1
  2312  021B  0821               	movf	(?___wmul+1)^(0+128),w
  2313  021C  0022               	movlb	2	; select bank2
  2314  021D  00DC               	movwf	(printf@exp+1)^(0+256)
  2315  021E  0021               	movlb	1	; select bank1
  2316  021F  0820               	movf	?___wmul^(0+128),w
  2317  0220  0022               	movlb	2	; select bank2
  2318  0221  00DB               	movwf	printf@exp^(0+256)
  2319                           
  2320                           ;doprnt.c: 840: exp /= 10;
  2321  0222  300A               	movlw	10
  2322  0223  0021               	movlb	1	; select bank1
  2323  0224  00A7               	movwf	___awdiv@divisor^(0+128)
  2324  0225  3000               	movlw	0
  2325  0226  00A8               	movwf	(___awdiv@divisor^(0+128)+1)
  2326  0227  0022               	movlb	2	; select bank2
  2327  0228  085C               	movf	(printf@exp+1)^(0+256),w
  2328  0229  0021               	movlb	1	; select bank1
  2329  022A  00AA               	movwf	(___awdiv@dividend+1)^(0+128)
  2330  022B  0022               	movlb	2	; select bank2
  2331  022C  085B               	movf	printf@exp^(0+256),w
  2332  022D  0021               	movlb	1	; select bank1
  2333  022E  00A9               	movwf	___awdiv@dividend^(0+128)
  2334  022F  319C  24B4  3180   	fcall	___awdiv
  2335  0232  0021               	movlb	1	; select bank1
  2336  0233  0828               	movf	(?___awdiv+1)^(0+128),w
  2337  0234  0022               	movlb	2	; select bank2
  2338  0235  00DC               	movwf	(printf@exp+1)^(0+256)
  2339  0236  0021               	movlb	1	; select bank1
  2340  0237  0827               	movf	?___awdiv^(0+128),w
  2341  0238  0022               	movlb	2	; select bank2
  2342  0239  00DB               	movwf	printf@exp^(0+256)
  2343                           
  2344                           ;doprnt.c: 841: if(exp < 0)
  2345  023A  1FDC               	btfss	(printf@exp+1)^(0+256),7
  2346  023B  2A40               	goto	l3456
  2347                           
  2348                           ;doprnt.c: 842: exp--;
  2349  023C  30FF               	movlw	255
  2350  023D  07DB               	addwf	printf@exp^(0+256),f
  2351  023E  30FF               	movlw	255
  2352  023F  3DDC               	addwfc	(printf@exp+1)^(0+256),f
  2353  0240                     l3456:	
  2354                           
  2355                           ;doprnt.c: 846: tmpval.integ = scale(-exp);
  2356  0240  035B               	decf	printf@exp^(0+256),w
  2357  0241  3AFF               	xorlw	255
  2358  0242  318D  2570  3180   	fcall	_scale
  2359  0245  0021               	movlb	1	; select bank1
  2360  0246  084D               	movf	(?_scale+3)^(0+128),w
  2361  0247  0022               	movlb	2	; select bank2
  2362  0248  00D6               	movwf	(printf@tmpval+3)^(0+256)
  2363  0249  0021               	movlb	1	; select bank1
  2364  024A  084C               	movf	(?_scale+2)^(0+128),w
  2365  024B  0022               	movlb	2	; select bank2
  2366  024C  00D5               	movwf	(printf@tmpval+2)^(0+256)
  2367  024D  0021               	movlb	1	; select bank1
  2368  024E  084B               	movf	(?_scale+1)^(0+128),w
  2369  024F  0022               	movlb	2	; select bank2
  2370  0250  00D4               	movwf	(printf@tmpval+1)^(0+256)
  2371  0251  0021               	movlb	1	; select bank1
  2372  0252  084A               	movf	?_scale^(0+128),w
  2373  0253  0022               	movlb	2	; select bank2
  2374  0254  00D3               	movwf	printf@tmpval^(0+256)
  2375                           
  2376                           ;doprnt.c: 847: tmpval.integ *= fval;
  2377  0255  0864               	movf	(printf@fval+3)^(0+256),w
  2378  0256  0021               	movlb	1	; select bank1
  2379  0257  00B3               	movwf	(___flmul@b+3)^(0+128)
  2380  0258  0022               	movlb	2	; select bank2
  2381  0259  0863               	movf	(printf@fval+2)^(0+256),w
  2382  025A  0021               	movlb	1	; select bank1
  2383  025B  00B2               	movwf	(___flmul@b+2)^(0+128)
  2384  025C  0022               	movlb	2	; select bank2
  2385  025D  0862               	movf	(printf@fval+1)^(0+256),w
  2386  025E  0021               	movlb	1	; select bank1
  2387  025F  00B1               	movwf	(___flmul@b+1)^(0+128)
  2388  0260  0022               	movlb	2	; select bank2
  2389  0261  0861               	movf	printf@fval^(0+256),w
  2390  0262  0021               	movlb	1	; select bank1
  2391  0263  00B0               	movwf	___flmul@b^(0+128)
  2392  0264  0022               	movlb	2	; select bank2
  2393  0265  0856               	movf	(printf@tmpval+3)^(0+256),w
  2394  0266  0021               	movlb	1	; select bank1
  2395  0267  00B7               	movwf	(___flmul@a+3)^(0+128)
  2396  0268  0022               	movlb	2	; select bank2
  2397  0269  0855               	movf	(printf@tmpval+2)^(0+256),w
  2398  026A  0021               	movlb	1	; select bank1
  2399  026B  00B6               	movwf	(___flmul@a+2)^(0+128)
  2400  026C  0022               	movlb	2	; select bank2
  2401  026D  0854               	movf	(printf@tmpval+1)^(0+256),w
  2402  026E  0021               	movlb	1	; select bank1
  2403  026F  00B5               	movwf	(___flmul@a+1)^(0+128)
  2404  0270  0022               	movlb	2	; select bank2
  2405  0271  0853               	movf	printf@tmpval^(0+256),w
  2406  0272  0021               	movlb	1	; select bank1
  2407  0273  00B4               	movwf	___flmul@a^(0+128)
  2408  0274  3188  20E4  3180   	fcall	___flmul
  2409  0277  0021               	movlb	1	; select bank1
  2410  0278  0833               	movf	(?___flmul+3)^(0+128),w
  2411  0279  0022               	movlb	2	; select bank2
  2412  027A  00D6               	movwf	(printf@tmpval+3)^(0+256)
  2413  027B  0021               	movlb	1	; select bank1
  2414  027C  0832               	movf	(?___flmul+2)^(0+128),w
  2415  027D  0022               	movlb	2	; select bank2
  2416  027E  00D5               	movwf	(printf@tmpval+2)^(0+256)
  2417  027F  0021               	movlb	1	; select bank1
  2418  0280  0831               	movf	(?___flmul+1)^(0+128),w
  2419  0281  0022               	movlb	2	; select bank2
  2420  0282  00D4               	movwf	(printf@tmpval+1)^(0+256)
  2421  0283  0021               	movlb	1	; select bank1
  2422  0284  0830               	movf	?___flmul^(0+128),w
  2423  0285  0022               	movlb	2	; select bank2
  2424  0286  00D3               	movwf	printf@tmpval^(0+256)
  2425                           
  2426                           ;doprnt.c: 848: if(tmpval.integ < 1.0)
  2427  0287  0856               	movf	(printf@tmpval+3)^(0+256),w
  2428  0288  0021               	movlb	1	; select bank1
  2429  0289  00A3               	movwf	(___flge@ff1+3)^(0+128)
  2430  028A  0022               	movlb	2	; select bank2
  2431  028B  0855               	movf	(printf@tmpval+2)^(0+256),w
  2432  028C  0021               	movlb	1	; select bank1
  2433  028D  00A2               	movwf	(___flge@ff1+2)^(0+128)
  2434  028E  0022               	movlb	2	; select bank2
  2435  028F  0854               	movf	(printf@tmpval+1)^(0+256),w
  2436  0290  0021               	movlb	1	; select bank1
  2437  0291  00A1               	movwf	(___flge@ff1+1)^(0+128)
  2438  0292  0022               	movlb	2	; select bank2
  2439  0293  0853               	movf	printf@tmpval^(0+256),w
  2440  0294  0021               	movlb	1	; select bank1
  2441  0295  00A0               	movwf	___flge@ff1^(0+128)
  2442  0296  303F               	movlw	63
  2443  0297  00A7               	movwf	(___flge@ff2+3)^(0+128)
  2444  0298  3080               	movlw	128
  2445  0299  00A6               	movwf	(___flge@ff2+2)^(0+128)
  2446  029A  3000               	movlw	0
  2447  029B  00A5               	movwf	(___flge@ff2+1)^(0+128)
  2448  029C  3000               	movlw	0
  2449  029D  00A4               	movwf	___flge@ff2^(0+128)
  2450  029E  319E  26B0  3180   	fcall	___flge
  2451  02A1  1803               	btfsc	3,0
  2452  02A2  2AA8               	goto	l3464
  2453                           
  2454                           ;doprnt.c: 849: exp--;
  2455  02A3  30FF               	movlw	255
  2456  02A4  0022               	movlb	2	; select bank2
  2457  02A5  07DB               	addwf	printf@exp^(0+256),f
  2458  02A6  30FF               	movlw	255
  2459  02A7  2AC9               	goto	L2
  2460  02A8                     l3464:	
  2461                           
  2462                           ;doprnt.c: 850: else if(tmpval.integ >= 10.0)
  2463  02A8  0022               	movlb	2	; select bank2
  2464  02A9  0856               	movf	(printf@tmpval+3)^(0+256),w
  2465  02AA  0021               	movlb	1	; select bank1
  2466  02AB  00A3               	movwf	(___flge@ff1+3)^(0+128)
  2467  02AC  0022               	movlb	2	; select bank2
  2468  02AD  0855               	movf	(printf@tmpval+2)^(0+256),w
  2469  02AE  0021               	movlb	1	; select bank1
  2470  02AF  00A2               	movwf	(___flge@ff1+2)^(0+128)
  2471  02B0  0022               	movlb	2	; select bank2
  2472  02B1  0854               	movf	(printf@tmpval+1)^(0+256),w
  2473  02B2  0021               	movlb	1	; select bank1
  2474  02B3  00A1               	movwf	(___flge@ff1+1)^(0+128)
  2475  02B4  0022               	movlb	2	; select bank2
  2476  02B5  0853               	movf	printf@tmpval^(0+256),w
  2477  02B6  0021               	movlb	1	; select bank1
  2478  02B7  00A0               	movwf	___flge@ff1^(0+128)
  2479  02B8  3041               	movlw	65
  2480  02B9  00A7               	movwf	(___flge@ff2+3)^(0+128)
  2481  02BA  3020               	movlw	32
  2482  02BB  00A6               	movwf	(___flge@ff2+2)^(0+128)
  2483  02BC  3000               	movlw	0
  2484  02BD  00A5               	movwf	(___flge@ff2+1)^(0+128)
  2485  02BE  3000               	movlw	0
  2486  02BF  00A4               	movwf	___flge@ff2^(0+128)
  2487  02C0  319E  26B0  3180   	fcall	___flge
  2488  02C3  1C03               	btfss	3,0
  2489  02C4  2ACA               	goto	l169
  2490                           
  2491                           ;doprnt.c: 851: exp++;
  2492  02C5  3001               	movlw	1
  2493  02C6  0022               	movlb	2	; select bank2
  2494  02C7  07DB               	addwf	printf@exp^(0+256),f
  2495  02C8  3000               	movlw	0
  2496  02C9                     L2:	
  2497  02C9  3DDC               	addwfc	(printf@exp+1)^(0+256),f
  2498  02CA                     l169:	
  2499                           
  2500                           ;doprnt.c: 852: }
  2501                           ;doprnt.c: 1112: if(prec <= 12)
  2502  02CA  0022               	movlb	2	; select bank2
  2503  02CB  0866               	movf	(printf@prec+1)^(0+256),w
  2504  02CC  3A80               	xorlw	128
  2505  02CD  00C8               	movwf	??_printf^(0+256)
  2506  02CE  3080               	movlw	128
  2507  02CF  0248               	subwf	??_printf^(0+256),w
  2508  02D0  1D03               	skipz
  2509  02D1  2AD4               	goto	u5425
  2510  02D2  300D               	movlw	13
  2511  02D3  0265               	subwf	printf@prec^(0+256),w
  2512  02D4                     u5425:	
  2513  02D4  1803               	skipnc
  2514  02D5  2AFF               	goto	l3470
  2515                           
  2516                           ;doprnt.c: 1113: fval += fround(prec);
  2517  02D6  0022               	movlb	2	; select bank2
  2518  02D7  0865               	movf	printf@prec^(0+256),w
  2519  02D8  3194  246A  3180   	fcall	_fround
  2520  02DB  0021               	movlb	1	; select bank1
  2521  02DC  084D               	movf	(?_fround+3)^(0+128),w
  2522  02DD  0022               	movlb	2	; select bank2
  2523  02DE  00A3               	movwf	(___fladd@b+3)^(0+256)
  2524  02DF  0021               	movlb	1	; select bank1
  2525  02E0  084C               	movf	(?_fround+2)^(0+128),w
  2526  02E1  0022               	movlb	2	; select bank2
  2527  02E2  00A2               	movwf	(___fladd@b+2)^(0+256)
  2528  02E3  0021               	movlb	1	; select bank1
  2529  02E4  084B               	movf	(?_fround+1)^(0+128),w
  2530  02E5  0022               	movlb	2	; select bank2
  2531  02E6  00A1               	movwf	(___fladd@b+1)^(0+256)
  2532  02E7  0021               	movlb	1	; select bank1
  2533  02E8  084A               	movf	?_fround^(0+128),w
  2534  02E9  0022               	movlb	2	; select bank2
  2535  02EA  00A0               	movwf	___fladd@b^(0+256)
  2536  02EB  0864               	movf	(printf@fval+3)^(0+256),w
  2537  02EC  00A7               	movwf	(___fladd@a+3)^(0+256)
  2538  02ED  0863               	movf	(printf@fval+2)^(0+256),w
  2539  02EE  00A6               	movwf	(___fladd@a+2)^(0+256)
  2540  02EF  0862               	movf	(printf@fval+1)^(0+256),w
  2541  02F0  00A5               	movwf	(___fladd@a+1)^(0+256)
  2542  02F1  0861               	movf	printf@fval^(0+256),w
  2543  02F2  00A4               	movwf	___fladd@a^(0+256)
  2544  02F3  318B  2310  3180   	fcall	___fladd
  2545  02F6  0022               	movlb	2	; select bank2
  2546  02F7  0823               	movf	(?___fladd+3)^(0+256),w
  2547  02F8  00E4               	movwf	(printf@fval+3)^(0+256)
  2548  02F9  0822               	movf	(?___fladd+2)^(0+256),w
  2549  02FA  00E3               	movwf	(printf@fval+2)^(0+256)
  2550  02FB  0821               	movf	(?___fladd+1)^(0+256),w
  2551  02FC  00E2               	movwf	(printf@fval+1)^(0+256)
  2552  02FD  0820               	movf	?___fladd^(0+256),w
  2553  02FE  00E1               	movwf	printf@fval^(0+256)
  2554  02FF                     l3470:	
  2555                           
  2556                           ;doprnt.c: 1116: if((exp > 9)||(fval != 0 && (unsigned long)fval == 0 && exp > 1)) {
  2557  02FF  0022               	movlb	2	; select bank2
  2558  0300  085C               	movf	(printf@exp+1)^(0+256),w
  2559  0301  3A80               	xorlw	128
  2560  0302  00C8               	movwf	??_printf^(0+256)
  2561  0303  3080               	movlw	128
  2562  0304  0248               	subwf	??_printf^(0+256),w
  2563  0305  1D03               	skipz
  2564  0306  2B09               	goto	u5435
  2565  0307  300A               	movlw	10
  2566  0308  025B               	subwf	printf@exp^(0+256),w
  2567  0309                     u5435:	
  2568  0309  1803               	skipnc
  2569  030A  2B37               	goto	l3478
  2570  030B  0022               	movlb	2	; select bank2
  2571  030C  0864               	movf	(printf@fval+3)^(0+256),w
  2572  030D  0463               	iorwf	(printf@fval+2)^(0+256),w
  2573  030E  0462               	iorwf	(printf@fval+1)^(0+256),w
  2574  030F  0461               	iorwf	printf@fval^(0+256),w
  2575  0310  1903               	skipnz
  2576  0311  2BAA               	goto	l3492
  2577  0312  0864               	movf	(printf@fval+3)^(0+256),w
  2578  0313  0021               	movlb	1	; select bank1
  2579  0314  00E6               	movwf	(___fltol@f1+3)^(0+128)
  2580  0315  0022               	movlb	2	; select bank2
  2581  0316  0863               	movf	(printf@fval+2)^(0+256),w
  2582  0317  0021               	movlb	1	; select bank1
  2583  0318  00E5               	movwf	(___fltol@f1+2)^(0+128)
  2584  0319  0022               	movlb	2	; select bank2
  2585  031A  0862               	movf	(printf@fval+1)^(0+256),w
  2586  031B  0021               	movlb	1	; select bank1
  2587  031C  00E4               	movwf	(___fltol@f1+1)^(0+128)
  2588  031D  0022               	movlb	2	; select bank2
  2589  031E  0861               	movf	printf@fval^(0+256),w
  2590  031F  0021               	movlb	1	; select bank1
  2591  0320  00E3               	movwf	___fltol@f1^(0+128)
  2592  0321  319D  2506  3180   	fcall	___fltol
  2593  0324  0021               	movlb	1	; select bank1
  2594  0325  0866               	movf	(?___fltol+3)^(0+128),w
  2595  0326  0465               	iorwf	(?___fltol+2)^(0+128),w
  2596  0327  0464               	iorwf	(?___fltol+1)^(0+128),w
  2597  0328  0463               	iorwf	?___fltol^(0+128),w
  2598  0329  1D03               	skipz
  2599  032A  2BAA               	goto	l3492
  2600  032B  0022               	movlb	2	; select bank2
  2601  032C  085C               	movf	(printf@exp+1)^(0+256),w
  2602  032D  3A80               	xorlw	128
  2603  032E  00C8               	movwf	??_printf^(0+256)
  2604  032F  3080               	movlw	128
  2605  0330  0248               	subwf	??_printf^(0+256),w
  2606  0331  1D03               	skipz
  2607  0332  2B35               	goto	u5465
  2608  0333  3002               	movlw	2
  2609  0334  025B               	subwf	printf@exp^(0+256),w
  2610  0335                     u5465:	
  2611  0335  1C03               	skipc
  2612  0336  2BAA               	goto	l3492
  2613  0337                     l3478:	
  2614                           
  2615                           ;doprnt.c: 1120: if(tmpval.integ < 4.294967296){
  2616  0337  0022               	movlb	2	; select bank2
  2617  0338  0856               	movf	(printf@tmpval+3)^(0+256),w
  2618  0339  0021               	movlb	1	; select bank1
  2619  033A  00A3               	movwf	(___flge@ff1+3)^(0+128)
  2620  033B  0022               	movlb	2	; select bank2
  2621  033C  0855               	movf	(printf@tmpval+2)^(0+256),w
  2622  033D  0021               	movlb	1	; select bank1
  2623  033E  00A2               	movwf	(___flge@ff1+2)^(0+128)
  2624  033F  0022               	movlb	2	; select bank2
  2625  0340  0854               	movf	(printf@tmpval+1)^(0+256),w
  2626  0341  0021               	movlb	1	; select bank1
  2627  0342  00A1               	movwf	(___flge@ff1+1)^(0+128)
  2628  0343  0022               	movlb	2	; select bank2
  2629  0344  0853               	movf	printf@tmpval^(0+256),w
  2630  0345  0021               	movlb	1	; select bank1
  2631  0346  00A0               	movwf	___flge@ff1^(0+128)
  2632  0347  3040               	movlw	64
  2633  0348  00A7               	movwf	(___flge@ff2+3)^(0+128)
  2634  0349  3089               	movlw	137
  2635  034A  00A6               	movwf	(___flge@ff2+2)^(0+128)
  2636  034B  3070               	movlw	112
  2637  034C  00A5               	movwf	(___flge@ff2+1)^(0+128)
  2638  034D  305F               	movlw	95
  2639  034E  00A4               	movwf	___flge@ff2^(0+128)
  2640  034F  319E  26B0  3180   	fcall	___flge
  2641  0352  1803               	btfsc	3,0
  2642  0353  2B56               	goto	l3482
  2643                           
  2644                           ;doprnt.c: 1121: exp -= (sizeof dpowers/sizeof dpowers[0])-1;
  2645  0354  30F7               	movlw	247
  2646  0355  2B57               	goto	L3
  2647  0356                     l3482:	
  2648                           ;doprnt.c: 1122: }else{
  2649                           
  2650                           
  2651                           ;doprnt.c: 1123: exp -= (sizeof dpowers/sizeof dpowers[0])-2;
  2652  0356  30F8               	movlw	248
  2653  0357                     L3:	
  2654  0357  0022               	movlb	2	; select bank2
  2655  0358  07DB               	addwf	printf@exp^(0+256),f
  2656  0359  30FF               	movlw	255
  2657  035A  3DDC               	addwfc	(printf@exp+1)^(0+256),f
  2658                           
  2659                           ;doprnt.c: 1126: val = ((sizeof(double)== 3) ? _tdiv_to_l_(fval,tmpval.integ) : _div_to_
      +                          l_(fval,tmpval.integ));
  2660  035B  085B               	movf	printf@exp^(0+256),w
  2661  035C  318D  2570  3180   	fcall	_scale
  2662  035F  0021               	movlb	1	; select bank1
  2663  0360  084D               	movf	(?_scale+3)^(0+128),w
  2664  0361  0022               	movlb	2	; select bank2
  2665  0362  00D6               	movwf	(printf@tmpval+3)^(0+256)
  2666  0363  0021               	movlb	1	; select bank1
  2667  0364  084C               	movf	(?_scale+2)^(0+128),w
  2668  0365  0022               	movlb	2	; select bank2
  2669  0366  00D5               	movwf	(printf@tmpval+2)^(0+256)
  2670  0367  0021               	movlb	1	; select bank1
  2671  0368  084B               	movf	(?_scale+1)^(0+128),w
  2672  0369  0022               	movlb	2	; select bank2
  2673  036A  00D4               	movwf	(printf@tmpval+1)^(0+256)
  2674  036B  0021               	movlb	1	; select bank1
  2675  036C  084A               	movf	?_scale^(0+128),w
  2676  036D  0022               	movlb	2	; select bank2
  2677  036E  00D3               	movwf	printf@tmpval^(0+256)
  2678  036F  0864               	movf	(printf@fval+3)^(0+256),w
  2679  0370  0021               	movlb	1	; select bank1
  2680  0371  00A3               	movwf	(__div_to_l_@f1+3)^(0+128)
  2681  0372  0022               	movlb	2	; select bank2
  2682  0373  0863               	movf	(printf@fval+2)^(0+256),w
  2683  0374  0021               	movlb	1	; select bank1
  2684  0375  00A2               	movwf	(__div_to_l_@f1+2)^(0+128)
  2685  0376  0022               	movlb	2	; select bank2
  2686  0377  0862               	movf	(printf@fval+1)^(0+256),w
  2687  0378  0021               	movlb	1	; select bank1
  2688  0379  00A1               	movwf	(__div_to_l_@f1+1)^(0+128)
  2689  037A  0022               	movlb	2	; select bank2
  2690  037B  0861               	movf	printf@fval^(0+256),w
  2691  037C  0021               	movlb	1	; select bank1
  2692  037D  00A0               	movwf	__div_to_l_@f1^(0+128)
  2693  037E  0022               	movlb	2	; select bank2
  2694  037F  0856               	movf	(printf@tmpval+3)^(0+256),w
  2695  0380  0021               	movlb	1	; select bank1
  2696  0381  00A7               	movwf	(__div_to_l_@f2+3)^(0+128)
  2697  0382  0022               	movlb	2	; select bank2
  2698  0383  0855               	movf	(printf@tmpval+2)^(0+256),w
  2699  0384  0021               	movlb	1	; select bank1
  2700  0385  00A6               	movwf	(__div_to_l_@f2+2)^(0+128)
  2701  0386  0022               	movlb	2	; select bank2
  2702  0387  0854               	movf	(printf@tmpval+1)^(0+256),w
  2703  0388  0021               	movlb	1	; select bank1
  2704  0389  00A5               	movwf	(__div_to_l_@f2+1)^(0+128)
  2705  038A  0022               	movlb	2	; select bank2
  2706  038B  0853               	movf	printf@tmpval^(0+256),w
  2707  038C  0021               	movlb	1	; select bank1
  2708  038D  00A4               	movwf	__div_to_l_@f2^(0+128)
  2709  038E  3188  201F  3180   	fcall	__div_to_l_
  2710  0391  0021               	movlb	1	; select bank1
  2711  0392  0823               	movf	(?__div_to_l_+3)^(0+128),w
  2712  0393  0022               	movlb	2	; select bank2
  2713  0394  00DA               	movwf	(printf@val+3)^(0+256)
  2714  0395  0021               	movlb	1	; select bank1
  2715  0396  0822               	movf	(?__div_to_l_+2)^(0+128),w
  2716  0397  0022               	movlb	2	; select bank2
  2717  0398  00D9               	movwf	(printf@val+2)^(0+256)
  2718  0399  0021               	movlb	1	; select bank1
  2719  039A  0821               	movf	(?__div_to_l_+1)^(0+128),w
  2720  039B  0022               	movlb	2	; select bank2
  2721  039C  00D8               	movwf	(printf@val+1)^(0+256)
  2722  039D  0021               	movlb	1	; select bank1
  2723  039E  0820               	movf	?__div_to_l_^(0+128),w
  2724  039F  0022               	movlb	2	; select bank2
  2725  03A0  00D7               	movwf	printf@val^(0+256)
  2726                           
  2727                           ;doprnt.c: 1129: fval = 0.0;
  2728  03A1  3000               	movlw	0
  2729  03A2  00E4               	movwf	(printf@fval+3)^(0+256)
  2730  03A3  3000               	movlw	0
  2731  03A4  00E3               	movwf	(printf@fval+2)^(0+256)
  2732  03A5  3000               	movlw	0
  2733  03A6  00E2               	movwf	(printf@fval+1)^(0+256)
  2734  03A7  3000               	movlw	0
  2735  03A8  00E1               	movwf	printf@fval^(0+256)
  2736                           
  2737                           ;doprnt.c: 1130: } else {
  2738  03A9  2C06               	goto	l3496
  2739  03AA                     l3492:	
  2740                           
  2741                           ;doprnt.c: 1131: val = (unsigned long)fval;
  2742  03AA  0022               	movlb	2	; select bank2
  2743  03AB  0864               	movf	(printf@fval+3)^(0+256),w
  2744  03AC  0021               	movlb	1	; select bank1
  2745  03AD  00E6               	movwf	(___fltol@f1+3)^(0+128)
  2746  03AE  0022               	movlb	2	; select bank2
  2747  03AF  0863               	movf	(printf@fval+2)^(0+256),w
  2748  03B0  0021               	movlb	1	; select bank1
  2749  03B1  00E5               	movwf	(___fltol@f1+2)^(0+128)
  2750  03B2  0022               	movlb	2	; select bank2
  2751  03B3  0862               	movf	(printf@fval+1)^(0+256),w
  2752  03B4  0021               	movlb	1	; select bank1
  2753  03B5  00E4               	movwf	(___fltol@f1+1)^(0+128)
  2754  03B6  0022               	movlb	2	; select bank2
  2755  03B7  0861               	movf	printf@fval^(0+256),w
  2756  03B8  0021               	movlb	1	; select bank1
  2757  03B9  00E3               	movwf	___fltol@f1^(0+128)
  2758  03BA  319D  2506  3180   	fcall	___fltol
  2759  03BD  0021               	movlb	1	; select bank1
  2760  03BE  0866               	movf	(?___fltol+3)^(0+128),w
  2761  03BF  0022               	movlb	2	; select bank2
  2762  03C0  00DA               	movwf	(printf@val+3)^(0+256)
  2763  03C1  0021               	movlb	1	; select bank1
  2764  03C2  0865               	movf	(?___fltol+2)^(0+128),w
  2765  03C3  0022               	movlb	2	; select bank2
  2766  03C4  00D9               	movwf	(printf@val+2)^(0+256)
  2767  03C5  0021               	movlb	1	; select bank1
  2768  03C6  0864               	movf	(?___fltol+1)^(0+128),w
  2769  03C7  0022               	movlb	2	; select bank2
  2770  03C8  00D8               	movwf	(printf@val+1)^(0+256)
  2771  03C9  0021               	movlb	1	; select bank1
  2772  03CA  0863               	movf	?___fltol^(0+128),w
  2773  03CB  0022               	movlb	2	; select bank2
  2774  03CC  00D7               	movwf	printf@val^(0+256)
  2775                           
  2776                           ;doprnt.c: 1132: fval -= (double)val;
  2777  03CD  085A               	movf	(printf@val+3)^(0+256),w
  2778  03CE  0021               	movlb	1	; select bank1
  2779  03CF  00A3               	movwf	(___xxtofl@val+3)^(0+128)
  2780  03D0  0022               	movlb	2	; select bank2
  2781  03D1  0859               	movf	(printf@val+2)^(0+256),w
  2782  03D2  0021               	movlb	1	; select bank1
  2783  03D3  00A2               	movwf	(___xxtofl@val+2)^(0+128)
  2784  03D4  0022               	movlb	2	; select bank2
  2785  03D5  0858               	movf	(printf@val+1)^(0+256),w
  2786  03D6  0021               	movlb	1	; select bank1
  2787  03D7  00A1               	movwf	(___xxtofl@val+1)^(0+128)
  2788  03D8  0022               	movlb	2	; select bank2
  2789  03D9  0857               	movf	printf@val^(0+256),w
  2790  03DA  0021               	movlb	1	; select bank1
  2791  03DB  00A0               	movwf	___xxtofl@val^(0+128)
  2792  03DC  3000               	movlw	0
  2793  03DD  319E  261A  3180   	fcall	___xxtofl
  2794  03E0  0021               	movlb	1	; select bank1
  2795  03E1  0823               	movf	(?___xxtofl+3)^(0+128),w
  2796  03E2  0022               	movlb	2	; select bank2
  2797  03E3  00B7               	movwf	(___flsub@a+3)^(0+256)
  2798  03E4  0021               	movlb	1	; select bank1
  2799  03E5  0822               	movf	(?___xxtofl+2)^(0+128),w
  2800  03E6  0022               	movlb	2	; select bank2
  2801  03E7  00B6               	movwf	(___flsub@a+2)^(0+256)
  2802  03E8  0021               	movlb	1	; select bank1
  2803  03E9  0821               	movf	(?___xxtofl+1)^(0+128),w
  2804  03EA  0022               	movlb	2	; select bank2
  2805  03EB  00B5               	movwf	(___flsub@a+1)^(0+256)
  2806  03EC  0021               	movlb	1	; select bank1
  2807  03ED  0820               	movf	?___xxtofl^(0+128),w
  2808  03EE  0022               	movlb	2	; select bank2
  2809  03EF  00B4               	movwf	___flsub@a^(0+256)
  2810  03F0  0864               	movf	(printf@fval+3)^(0+256),w
  2811  03F1  00BB               	movwf	(___flsub@b+3)^(0+256)
  2812  03F2  0863               	movf	(printf@fval+2)^(0+256),w
  2813  03F3  00BA               	movwf	(___flsub@b+2)^(0+256)
  2814  03F4  0862               	movf	(printf@fval+1)^(0+256),w
  2815  03F5  00B9               	movwf	(___flsub@b+1)^(0+256)
  2816  03F6  0861               	movf	printf@fval^(0+256),w
  2817  03F7  00B8               	movwf	___flsub@b^(0+256)
  2818  03F8  3188  2000  3180   	fcall	___flsub
  2819  03FB  0022               	movlb	2	; select bank2
  2820  03FC  0837               	movf	(?___flsub+3)^(0+256),w
  2821  03FD  00E4               	movwf	(printf@fval+3)^(0+256)
  2822  03FE  0836               	movf	(?___flsub+2)^(0+256),w
  2823  03FF  00E3               	movwf	(printf@fval+2)^(0+256)
  2824  0400  0835               	movf	(?___flsub+1)^(0+256),w
  2825  0401  00E2               	movwf	(printf@fval+1)^(0+256)
  2826  0402  0834               	movf	?___flsub^(0+256),w
  2827  0403  00E1               	movwf	printf@fval^(0+256)
  2828                           
  2829                           ;doprnt.c: 1133: exp = 0;
  2830  0404  01DB               	clrf	printf@exp^(0+256)
  2831  0405  01DC               	clrf	(printf@exp+1)^(0+256)
  2832  0406                     l3496:	
  2833                           
  2834                           ;doprnt.c: 1134: }
  2835                           ;doprnt.c: 1136: for(c = 1 ; c != (sizeof dpowers/sizeof dpowers[0]) ; c++)
  2836  0406  01E7               	clrf	printf@c^(0+256)
  2837  0407  0AE7               	incf	printf@c^(0+256),f
  2838  0408  300A               	movlw	10
  2839  0409  0667               	xorwf	printf@c^(0+256),w
  2840  040A  1903               	btfsc	3,2
  2841  040B  2C39               	goto	l3508
  2842  040C                     l3502:	
  2843                           
  2844                           ;doprnt.c: 1137: if(val < dpowers[c])
  2845  040C  0867               	movf	printf@c^(0+256),w
  2846  040D  00C8               	movwf	??_printf^(0+256)
  2847  040E  01C9               	clrf	(??_printf^(0+256)+1)
  2848  040F  35C8               	lslf	??_printf^(0+256),f
  2849  0410  0DC9               	rlf	(??_printf^(0+256)+1),f
  2850  0411  35C8               	lslf	??_printf^(0+256),f
  2851  0412  0DC9               	rlf	(??_printf^(0+256)+1),f
  2852  0413  3068               	movlw	low (_dpowers| (0+32768))
  2853  0414  0748               	addwf	??_printf^(0+256),w
  2854  0415  0084               	movwf	4
  2855  0416  3098               	movlw	high (_dpowers| (0+32768))
  2856  0417  3D49               	addwfc	(??_printf+1)^(0+256),w
  2857  0418  0085               	movwf	5
  2858  0419  3F00               	moviw [0]fsr0
  2859  041A  00CA               	movwf	(??_printf+2)^(0+256)
  2860  041B  3F01               	moviw [1]fsr0
  2861  041C  00CB               	movwf	((??_printf+2)^(0+256)+1)
  2862  041D  3F02               	moviw [2]fsr0
  2863  041E  00CC               	movwf	((??_printf+2)^(0+256)+2)
  2864  041F  3F03               	moviw [3]fsr0
  2865  0420  00CD               	movwf	((??_printf+2)^(0+256)+3)
  2866  0421  084D               	movf	(??_printf+5)^(0+256),w
  2867  0422  025A               	subwf	(printf@val+3)^(0+256),w
  2868  0423  1D03               	skipz
  2869  0424  2C2F               	goto	u5495
  2870  0425  084C               	movf	(??_printf+4)^(0+256),w
  2871  0426  0259               	subwf	(printf@val+2)^(0+256),w
  2872  0427  1D03               	skipz
  2873  0428  2C2F               	goto	u5495
  2874  0429  084B               	movf	(??_printf+3)^(0+256),w
  2875  042A  0258               	subwf	(printf@val+1)^(0+256),w
  2876  042B  1D03               	skipz
  2877  042C  2C2F               	goto	u5495
  2878  042D  084A               	movf	(??_printf+2)^(0+256),w
  2879  042E  0257               	subwf	printf@val^(0+256),w
  2880  042F                     u5495:	
  2881  042F  1C03               	btfss	3,0
  2882  0430  2C39               	goto	l3508
  2883                           
  2884                           ;doprnt.c: 1138: break;
  2885  0431  3001               	movlw	1
  2886  0432  00C8               	movwf	??_printf^(0+256)
  2887  0433  0848               	movf	??_printf^(0+256),w
  2888  0434  07E7               	addwf	printf@c^(0+256),f
  2889  0435  300A               	movlw	10
  2890  0436  0667               	xorwf	printf@c^(0+256),w
  2891  0437  1D03               	btfss	3,2
  2892  0438  2C0C               	goto	l3502
  2893  0439                     l3508:	
  2894                           
  2895                           ;doprnt.c: 1142: width -= prec + c + exp;
  2896  0439  0867               	movf	printf@c^(0+256),w
  2897  043A  00C8               	movwf	??_printf^(0+256)
  2898  043B  01C9               	clrf	(??_printf^(0+256)+1)
  2899  043C  1BC8               	btfsc	??_printf^(0+256),7
  2900  043D  03C9               	decf	(??_printf^(0+256)+1),f
  2901  043E  0865               	movf	printf@prec^(0+256),w
  2902  043F  0748               	addwf	??_printf^(0+256),w
  2903  0440  00CA               	movwf	(??_printf+2)^(0+256)
  2904  0441  0866               	movf	(printf@prec+1)^(0+256),w
  2905  0442  3D49               	addwfc	(??_printf+1)^(0+256),w
  2906  0443  00CB               	movwf	(??_printf+3)^(0+256)
  2907  0444  085B               	movf	printf@exp^(0+256),w
  2908  0445  074A               	addwf	(??_printf+2)^(0+256),w
  2909  0446  00CC               	movwf	(??_printf+4)^(0+256)
  2910  0447  085C               	movf	(printf@exp+1)^(0+256),w
  2911  0448  3D4B               	addwfc	(??_printf+3)^(0+256),w
  2912  0449  00CD               	movwf	(??_printf+5)^(0+256)
  2913  044A  084C               	movf	(??_printf+4)^(0+256),w
  2914  044B  02DF               	subwf	printf@width^(0+256),f
  2915  044C  084D               	movf	(??_printf+5)^(0+256),w
  2916  044D  3BE0               	subwfb	(printf@width+1)^(0+256),f
  2917                           
  2918                           ;doprnt.c: 1143: if(
  2919                           ;doprnt.c: 1147: prec)
  2920  044E  0865               	movf	printf@prec^(0+256),w
  2921  044F  0466               	iorwf	(printf@prec+1)^(0+256),w
  2922  0450  1903               	btfsc	3,2
  2923  0451  2C56               	goto	l3512
  2924                           
  2925                           ;doprnt.c: 1148: width--;
  2926  0452  30FF               	movlw	255
  2927  0453  07DF               	addwf	printf@width^(0+256),f
  2928  0454  30FF               	movlw	255
  2929  0455  3DE0               	addwfc	(printf@width+1)^(0+256),f
  2930  0456                     l3512:	
  2931                           
  2932                           ;doprnt.c: 1149: if(flag & 0x03)
  2933  0456  3003               	movlw	3
  2934  0457  055D               	andwf	printf@flag^(0+256),w
  2935  0458  00C8               	movwf	??_printf^(0+256)
  2936  0459  3000               	movlw	0
  2937  045A  055E               	andwf	(printf@flag+1)^(0+256),w
  2938  045B  00C9               	movwf	(??_printf+1)^(0+256)
  2939  045C  0848               	movf	??_printf^(0+256),w
  2940  045D  0449               	iorwf	(??_printf^(0+256)+1),w
  2941  045E  1903               	btfsc	3,2
  2942  045F  2C64               	goto	l3516
  2943                           
  2944                           ;doprnt.c: 1150: width--;
  2945  0460  30FF               	movlw	255
  2946  0461  07DF               	addwf	printf@width^(0+256),f
  2947  0462  30FF               	movlw	255
  2948  0463  3DE0               	addwfc	(printf@width+1)^(0+256),f
  2949  0464                     l3516:	
  2950                           
  2951                           ;doprnt.c: 1153: if(flag & 0x04) {
  2952  0464  1D5D               	btfss	printf@flag^(0+256),2
  2953  0465  2C93               	goto	l3532
  2954                           
  2955                           ;doprnt.c: 1157: if(flag & 0x03)
  2956  0466  3003               	movlw	3
  2957  0467  055D               	andwf	printf@flag^(0+256),w
  2958  0468  00C8               	movwf	??_printf^(0+256)
  2959  0469  3000               	movlw	0
  2960  046A  055E               	andwf	(printf@flag+1)^(0+256),w
  2961  046B  00C9               	movwf	(??_printf+1)^(0+256)
  2962  046C  0848               	movf	??_printf^(0+256),w
  2963  046D  0449               	iorwf	(??_printf^(0+256)+1),w
  2964  046E  1903               	btfsc	3,2
  2965  046F  2C74               	goto	l3526
  2966                           
  2967                           ;doprnt.c: 1159: (putch('-') );
  2968  0470  302D               	movlw	45
  2969  0471  319C  2405  3180   	fcall	_putch
  2970  0474                     l3526:	
  2971                           ;doprnt.c: 1168: while(width > 0) {
  2972                           
  2973  0474  0022               	movlb	2	; select bank2
  2974  0475  0860               	movf	(printf@width+1)^(0+256),w
  2975  0476  3A80               	xorlw	128
  2976  0477  00C8               	movwf	??_printf^(0+256)
  2977  0478  3080               	movlw	128
  2978  0479  0248               	subwf	??_printf^(0+256),w
  2979  047A  1D03               	skipz
  2980  047B  2C7E               	goto	u5555
  2981  047C  3001               	movlw	1
  2982  047D  025F               	subwf	printf@width^(0+256),w
  2983  047E                     u5555:	
  2984  047E  1C03               	btfss	3,0
  2985  047F  2CAE               	goto	l3544
  2986                           
  2987                           ;doprnt.c: 1169: (putch('0') );
  2988  0480  3030               	movlw	48
  2989  0481  319C  2405  3180   	fcall	_putch
  2990                           
  2991                           ;doprnt.c: 1170: width--;
  2992  0484  30FF               	movlw	255
  2993  0485  0022               	movlb	2	; select bank2
  2994  0486  07DF               	addwf	printf@width^(0+256),f
  2995  0487  30FF               	movlw	255
  2996  0488  3DE0               	addwfc	(printf@width+1)^(0+256),f
  2997  0489  2C74               	goto	l3526
  2998  048A                     l3528:	
  2999                           ;doprnt.c: 1175: {
  3000                           ;doprnt.c: 1180: while(width > 0) {
  3001                           
  3002                           ;doprnt.c: 1171: }
  3003                           ;doprnt.c: 1173: } else
  3004                           
  3005                           
  3006                           ;doprnt.c: 1181: (putch(' ') );
  3007  048A  3020               	movlw	32
  3008  048B  319C  2405  3180   	fcall	_putch
  3009                           
  3010                           ;doprnt.c: 1182: width--;
  3011  048E  30FF               	movlw	255
  3012  048F  0022               	movlb	2	; select bank2
  3013  0490  07DF               	addwf	printf@width^(0+256),f
  3014  0491  30FF               	movlw	255
  3015  0492  3DE0               	addwfc	(printf@width+1)^(0+256),f
  3016  0493                     l3532:	
  3017  0493  0022               	movlb	2	; select bank2
  3018  0494  0860               	movf	(printf@width+1)^(0+256),w
  3019  0495  3A80               	xorlw	128
  3020  0496  00C8               	movwf	??_printf^(0+256)
  3021  0497  3080               	movlw	128
  3022  0498  0248               	subwf	??_printf^(0+256),w
  3023  0499  1D03               	skipz
  3024  049A  2C9D               	goto	u5565
  3025  049B  3001               	movlw	1
  3026  049C  025F               	subwf	printf@width^(0+256),w
  3027  049D                     u5565:	
  3028  049D  1803               	skipnc
  3029  049E  2C8A               	goto	l3528
  3030                           
  3031                           ;doprnt.c: 1183: }
  3032                           ;doprnt.c: 1188: if(flag & 0x03)
  3033  049F  3003               	movlw	3
  3034  04A0  0022               	movlb	2	; select bank2
  3035  04A1  055D               	andwf	printf@flag^(0+256),w
  3036  04A2  00C8               	movwf	??_printf^(0+256)
  3037  04A3  3000               	movlw	0
  3038  04A4  055E               	andwf	(printf@flag+1)^(0+256),w
  3039  04A5  00C9               	movwf	(??_printf+1)^(0+256)
  3040  04A6  0848               	movf	??_printf^(0+256),w
  3041  04A7  0449               	iorwf	(??_printf^(0+256)+1),w
  3042  04A8  1903               	btfsc	3,2
  3043  04A9  2CAE               	goto	l3544
  3044                           
  3045                           ;doprnt.c: 1190: (putch('-') );
  3046  04AA  302D               	movlw	45
  3047  04AB                     L8:	
  3048  04AB  319C  2405  3180   	fcall	_putch
  3049  04AE                     l3544:	
  3050                           ;doprnt.c: 1195: }
  3051                           ;doprnt.c: 1196: while(c--) {
  3052                           
  3053  04AE  30FF               	movlw	255
  3054  04AF  0022               	movlb	2	; select bank2
  3055  04B0  00C8               	movwf	??_printf^(0+256)
  3056  04B1  0848               	movf	??_printf^(0+256),w
  3057  04B2  07E7               	addwf	printf@c^(0+256),f
  3058  04B3  0A67               	incf	printf@c^(0+256),w
  3059  04B4  1903               	btfsc	3,2
  3060  04B5  2D28               	goto	l3550
  3061                           
  3062                           ;doprnt.c: 1200: {
  3063                           ;doprnt.c: 1201: tmpval.vd = val/dpowers[c];
  3064  04B6  0022               	movlb	2	; select bank2
  3065  04B7  0867               	movf	printf@c^(0+256),w
  3066  04B8  00C8               	movwf	??_printf^(0+256)
  3067  04B9  01C9               	clrf	(??_printf^(0+256)+1)
  3068  04BA  35C8               	lslf	??_printf^(0+256),f
  3069  04BB  0DC9               	rlf	(??_printf^(0+256)+1),f
  3070  04BC  35C8               	lslf	??_printf^(0+256),f
  3071  04BD  0DC9               	rlf	(??_printf^(0+256)+1),f
  3072  04BE  3068               	movlw	low (_dpowers| (0+32768))
  3073  04BF  0748               	addwf	??_printf^(0+256),w
  3074  04C0  0084               	movwf	4
  3075  04C1  3098               	movlw	high (_dpowers| (0+32768))
  3076  04C2  3D49               	addwfc	(??_printf+1)^(0+256),w
  3077  04C3  0085               	movwf	5
  3078  04C4  3F00               	moviw [0]fsr0
  3079  04C5  0021               	movlb	1	; select bank1
  3080  04C6  00A0               	movwf	___lldiv@divisor^(0+128)
  3081  04C7  3F01               	moviw [1]fsr0
  3082  04C8  00A1               	movwf	(___lldiv@divisor+1)^(0+128)
  3083  04C9  3F02               	moviw [2]fsr0
  3084  04CA  00A2               	movwf	(___lldiv@divisor+2)^(0+128)
  3085  04CB  3F03               	moviw [3]fsr0
  3086  04CC  00A3               	movwf	(___lldiv@divisor+3)^(0+128)
  3087  04CD  0022               	movlb	2	; select bank2
  3088  04CE  085A               	movf	(printf@val+3)^(0+256),w
  3089  04CF  0021               	movlb	1	; select bank1
  3090  04D0  00A7               	movwf	(___lldiv@dividend+3)^(0+128)
  3091  04D1  0022               	movlb	2	; select bank2
  3092  04D2  0859               	movf	(printf@val+2)^(0+256),w
  3093  04D3  0021               	movlb	1	; select bank1
  3094  04D4  00A6               	movwf	(___lldiv@dividend+2)^(0+128)
  3095  04D5  0022               	movlb	2	; select bank2
  3096  04D6  0858               	movf	(printf@val+1)^(0+256),w
  3097  04D7  0021               	movlb	1	; select bank1
  3098  04D8  00A5               	movwf	(___lldiv@dividend+1)^(0+128)
  3099  04D9  0022               	movlb	2	; select bank2
  3100  04DA  0857               	movf	printf@val^(0+256),w
  3101  04DB  0021               	movlb	1	; select bank1
  3102  04DC  00A4               	movwf	___lldiv@dividend^(0+128)
  3103  04DD  3190  2006  3180   	fcall	___lldiv
  3104  04E0  0021               	movlb	1	; select bank1
  3105  04E1  0823               	movf	(?___lldiv+3)^(0+128),w
  3106  04E2  0022               	movlb	2	; select bank2
  3107  04E3  00D6               	movwf	(printf@tmpval+3)^(0+256)
  3108  04E4  0021               	movlb	1	; select bank1
  3109  04E5  0822               	movf	(?___lldiv+2)^(0+128),w
  3110  04E6  0022               	movlb	2	; select bank2
  3111  04E7  00D5               	movwf	(printf@tmpval+2)^(0+256)
  3112  04E8  0021               	movlb	1	; select bank1
  3113  04E9  0821               	movf	(?___lldiv+1)^(0+128),w
  3114  04EA  0022               	movlb	2	; select bank2
  3115  04EB  00D4               	movwf	(printf@tmpval+1)^(0+256)
  3116  04EC  0021               	movlb	1	; select bank1
  3117  04ED  0820               	movf	?___lldiv^(0+128),w
  3118  04EE  0022               	movlb	2	; select bank2
  3119  04EF  00D3               	movwf	printf@tmpval^(0+256)
  3120                           
  3121                           ;doprnt.c: 1202: tmpval.vd %= 10;
  3122  04F0  3000               	movlw	0
  3123  04F1  0021               	movlb	1	; select bank1
  3124  04F2  00B1               	movwf	(___llmod@divisor+3)^(0+128)
  3125  04F3  3000               	movlw	0
  3126  04F4  00B0               	movwf	(___llmod@divisor+2)^(0+128)
  3127  04F5  3000               	movlw	0
  3128  04F6  00AF               	movwf	(___llmod@divisor+1)^(0+128)
  3129  04F7  300A               	movlw	10
  3130  04F8  00AE               	movwf	___llmod@divisor^(0+128)
  3131  04F9  0022               	movlb	2	; select bank2
  3132  04FA  0856               	movf	(printf@tmpval+3)^(0+256),w
  3133  04FB  0021               	movlb	1	; select bank1
  3134  04FC  00B5               	movwf	(___llmod@dividend+3)^(0+128)
  3135  04FD  0022               	movlb	2	; select bank2
  3136  04FE  0855               	movf	(printf@tmpval+2)^(0+256),w
  3137  04FF  0021               	movlb	1	; select bank1
  3138  0500  00B4               	movwf	(___llmod@dividend+2)^(0+128)
  3139  0501  0022               	movlb	2	; select bank2
  3140  0502  0854               	movf	(printf@tmpval+1)^(0+256),w
  3141  0503  0021               	movlb	1	; select bank1
  3142  0504  00B3               	movwf	(___llmod@dividend+1)^(0+128)
  3143  0505  0022               	movlb	2	; select bank2
  3144  0506  0853               	movf	printf@tmpval^(0+256),w
  3145  0507  0021               	movlb	1	; select bank1
  3146  0508  00B2               	movwf	___llmod@dividend^(0+128)
  3147  0509  319C  242B  3180   	fcall	___llmod
  3148  050C  0021               	movlb	1	; select bank1
  3149  050D  0831               	movf	(?___llmod+3)^(0+128),w
  3150  050E  0022               	movlb	2	; select bank2
  3151  050F  00D6               	movwf	(printf@tmpval+3)^(0+256)
  3152  0510  0021               	movlb	1	; select bank1
  3153  0511  0830               	movf	(?___llmod+2)^(0+128),w
  3154  0512  0022               	movlb	2	; select bank2
  3155  0513  00D5               	movwf	(printf@tmpval+2)^(0+256)
  3156  0514  0021               	movlb	1	; select bank1
  3157  0515  082F               	movf	(?___llmod+1)^(0+128),w
  3158  0516  0022               	movlb	2	; select bank2
  3159  0517  00D4               	movwf	(printf@tmpval+1)^(0+256)
  3160  0518  0021               	movlb	1	; select bank1
  3161  0519  082E               	movf	?___llmod^(0+128),w
  3162  051A  0022               	movlb	2	; select bank2
  3163  051B  00D3               	movwf	printf@tmpval^(0+256)
  3164                           
  3165                           ;doprnt.c: 1203: (putch('0' + tmpval.vd) );
  3166  051C  0853               	movf	printf@tmpval^(0+256),w
  3167  051D  3E30               	addlw	48
  3168  051E  2CAB               	goto	L8
  3169  051F                     l3546:	
  3170                           ;doprnt.c: 1204: }
  3171                           ;doprnt.c: 1206: }
  3172                           ;doprnt.c: 1207: while(exp > 0) {
  3173                           
  3174                           
  3175                           ;doprnt.c: 1208: (putch('0') );
  3176  051F  3030               	movlw	48
  3177  0520  319C  2405  3180   	fcall	_putch
  3178                           
  3179                           ;doprnt.c: 1209: exp--;
  3180  0523  30FF               	movlw	255
  3181  0524  0022               	movlb	2	; select bank2
  3182  0525  07DB               	addwf	printf@exp^(0+256),f
  3183  0526  30FF               	movlw	255
  3184  0527  3DDC               	addwfc	(printf@exp+1)^(0+256),f
  3185  0528                     l3550:	
  3186  0528  085C               	movf	(printf@exp+1)^(0+256),w
  3187  0529  3A80               	xorlw	128
  3188  052A  00C8               	movwf	??_printf^(0+256)
  3189  052B  3080               	movlw	128
  3190  052C  0248               	subwf	??_printf^(0+256),w
  3191  052D  1D03               	skipz
  3192  052E  2D31               	goto	u5595
  3193  052F  3001               	movlw	1
  3194  0530  025B               	subwf	printf@exp^(0+256),w
  3195  0531                     u5595:	
  3196  0531  1803               	skipnc
  3197  0532  2D1F               	goto	l3546
  3198                           
  3199                           ;doprnt.c: 1210: }
  3200                           ;doprnt.c: 1211: if(prec > (int)((sizeof dpowers/sizeof dpowers[0])-2))
  3201  0533  0022               	movlb	2	; select bank2
  3202  0534  0866               	movf	(printf@prec+1)^(0+256),w
  3203  0535  3A80               	xorlw	128
  3204  0536  00C8               	movwf	??_printf^(0+256)
  3205  0537  3080               	movlw	128
  3206  0538  0248               	subwf	??_printf^(0+256),w
  3207  0539  1D03               	skipz
  3208  053A  2D3D               	goto	u5605
  3209  053B  3009               	movlw	9
  3210  053C  0265               	subwf	printf@prec^(0+256),w
  3211  053D                     u5605:	
  3212  053D  1C03               	skipc
  3213  053E  2D42               	goto	l3556
  3214                           
  3215                           ;doprnt.c: 1212: c = (sizeof dpowers/sizeof dpowers[0])-2;
  3216  053F  3008               	movlw	8
  3217  0540  0022               	movlb	2	; select bank2
  3218  0541  2D44               	goto	L5
  3219  0542                     l3556:	
  3220                           
  3221                           ;doprnt.c: 1213: else
  3222                           ;doprnt.c: 1214: c = prec;
  3223  0542  0022               	movlb	2	; select bank2
  3224  0543  0865               	movf	printf@prec^(0+256),w
  3225  0544                     L5:	
  3226  0544  00C8               	movwf	??_printf^(0+256)
  3227  0545  0848               	movf	??_printf^(0+256),w
  3228  0546  00E7               	movwf	printf@c^(0+256)
  3229                           
  3230                           ;doprnt.c: 1215: prec -= c;
  3231  0547  0867               	movf	printf@c^(0+256),w
  3232  0548  00C8               	movwf	??_printf^(0+256)
  3233  0549  01C9               	clrf	(??_printf^(0+256)+1)
  3234  054A  1BC8               	btfsc	??_printf^(0+256),7
  3235  054B  03C9               	decf	(??_printf^(0+256)+1),f
  3236  054C  0848               	movf	??_printf^(0+256),w
  3237  054D  02E5               	subwf	printf@prec^(0+256),f
  3238  054E  0849               	movf	(??_printf+1)^(0+256),w
  3239  054F  3BE6               	subwfb	(printf@prec+1)^(0+256),f
  3240                           
  3241                           ;doprnt.c: 1219: if(c)
  3242  0550  0867               	movf	printf@c^(0+256),w
  3243  0551  1903               	btfsc	3,2
  3244  0552  2D57               	goto	l3562
  3245                           
  3246                           ;doprnt.c: 1221: (putch('.') );
  3247  0553  302E               	movlw	46
  3248  0554  319C  2405  3180   	fcall	_putch
  3249  0557                     l3562:	
  3250                           
  3251                           ;doprnt.c: 1227: val = (long)(fval * scale(c));
  3252  0557  0022               	movlb	2	; select bank2
  3253  0558  0867               	movf	printf@c^(0+256),w
  3254  0559  318D  2570  3180   	fcall	_scale
  3255  055C  0021               	movlb	1	; select bank1
  3256  055D  084D               	movf	(?_scale+3)^(0+128),w
  3257  055E  0022               	movlb	2	; select bank2
  3258  055F  00D1               	movwf	(_printf$821+3)^(0+256)
  3259  0560  0021               	movlb	1	; select bank1
  3260  0561  084C               	movf	(?_scale+2)^(0+128),w
  3261  0562  0022               	movlb	2	; select bank2
  3262  0563  00D0               	movwf	(_printf$821+2)^(0+256)
  3263  0564  0021               	movlb	1	; select bank1
  3264  0565  084B               	movf	(?_scale+1)^(0+128),w
  3265  0566  0022               	movlb	2	; select bank2
  3266  0567  00CF               	movwf	(_printf$821+1)^(0+256)
  3267  0568  0021               	movlb	1	; select bank1
  3268  0569  084A               	movf	?_scale^(0+128),w
  3269  056A  0022               	movlb	2	; select bank2
  3270  056B  00CE               	movwf	_printf$821^(0+256)
  3271                           
  3272                           ;doprnt.c: 1227: val = (long)(fval * scale(c));
  3273  056C  0851               	movf	(_printf$821+3)^(0+256),w
  3274  056D  0021               	movlb	1	; select bank1
  3275  056E  00B7               	movwf	(___flmul@a+3)^(0+128)
  3276  056F  0022               	movlb	2	; select bank2
  3277  0570  0850               	movf	(_printf$821+2)^(0+256),w
  3278  0571  0021               	movlb	1	; select bank1
  3279  0572  00B6               	movwf	(___flmul@a+2)^(0+128)
  3280  0573  0022               	movlb	2	; select bank2
  3281  0574  084F               	movf	(_printf$821+1)^(0+256),w
  3282  0575  0021               	movlb	1	; select bank1
  3283  0576  00B5               	movwf	(___flmul@a+1)^(0+128)
  3284  0577  0022               	movlb	2	; select bank2
  3285  0578  084E               	movf	_printf$821^(0+256),w
  3286  0579  0021               	movlb	1	; select bank1
  3287  057A  00B4               	movwf	___flmul@a^(0+128)
  3288  057B  0022               	movlb	2	; select bank2
  3289  057C  0864               	movf	(printf@fval+3)^(0+256),w
  3290  057D  0021               	movlb	1	; select bank1
  3291  057E  00B3               	movwf	(___flmul@b+3)^(0+128)
  3292  057F  0022               	movlb	2	; select bank2
  3293  0580  0863               	movf	(printf@fval+2)^(0+256),w
  3294  0581  0021               	movlb	1	; select bank1
  3295  0582  00B2               	movwf	(___flmul@b+2)^(0+128)
  3296  0583  0022               	movlb	2	; select bank2
  3297  0584  0862               	movf	(printf@fval+1)^(0+256),w
  3298  0585  0021               	movlb	1	; select bank1
  3299  0586  00B1               	movwf	(___flmul@b+1)^(0+128)
  3300  0587  0022               	movlb	2	; select bank2
  3301  0588  0861               	movf	printf@fval^(0+256),w
  3302  0589  0021               	movlb	1	; select bank1
  3303  058A  00B0               	movwf	___flmul@b^(0+128)
  3304  058B  3188  20E4  3180   	fcall	___flmul
  3305  058E  0021               	movlb	1	; select bank1
  3306  058F  0833               	movf	(?___flmul+3)^(0+128),w
  3307  0590  00E6               	movwf	(___fltol@f1+3)^(0+128)
  3308  0591  0832               	movf	(?___flmul+2)^(0+128),w
  3309  0592  00E5               	movwf	(___fltol@f1+2)^(0+128)
  3310  0593  0831               	movf	(?___flmul+1)^(0+128),w
  3311  0594  00E4               	movwf	(___fltol@f1+1)^(0+128)
  3312  0595  0830               	movf	?___flmul^(0+128),w
  3313  0596  00E3               	movwf	___fltol@f1^(0+128)
  3314  0597  319D  2506  3180   	fcall	___fltol
  3315  059A  0021               	movlb	1	; select bank1
  3316  059B  0866               	movf	(?___fltol+3)^(0+128),w
  3317  059C  0022               	movlb	2	; select bank2
  3318  059D  00DA               	movwf	(printf@val+3)^(0+256)
  3319  059E  0021               	movlb	1	; select bank1
  3320  059F  0865               	movf	(?___fltol+2)^(0+128),w
  3321  05A0  0022               	movlb	2	; select bank2
  3322  05A1  00D9               	movwf	(printf@val+2)^(0+256)
  3323  05A2  0021               	movlb	1	; select bank1
  3324  05A3  0864               	movf	(?___fltol+1)^(0+128),w
  3325  05A4  0022               	movlb	2	; select bank2
  3326  05A5  00D8               	movwf	(printf@val+1)^(0+256)
  3327  05A6  0021               	movlb	1	; select bank1
  3328  05A7  0863               	movf	?___fltol^(0+128),w
  3329  05A8                     L6:	
  3330  05A8  0022               	movlb	2	; select bank2
  3331  05A9  00D7               	movwf	printf@val^(0+256)
  3332  05AA  30FF               	movlw	255
  3333  05AB  00C8               	movwf	??_printf^(0+256)
  3334  05AC  0848               	movf	??_printf^(0+256),w
  3335  05AD  07E7               	addwf	printf@c^(0+256),f
  3336  05AE  0A67               	incf	printf@c^(0+256),w
  3337  05AF  1903               	btfsc	3,2
  3338  05B0  2E5D               	goto	l3578
  3339                           
  3340                           ;doprnt.c: 1229: tmpval.vd = val/dpowers[c];
  3341                           
  3342                           ;doprnt.c: 1228: while(c--) {
  3343  05B1  0867               	movf	printf@c^(0+256),w
  3344  05B2  00C8               	movwf	??_printf^(0+256)
  3345  05B3  01C9               	clrf	(??_printf^(0+256)+1)
  3346  05B4  35C8               	lslf	??_printf^(0+256),f
  3347  05B5  0DC9               	rlf	(??_printf^(0+256)+1),f
  3348  05B6  35C8               	lslf	??_printf^(0+256),f
  3349  05B7  0DC9               	rlf	(??_printf^(0+256)+1),f
  3350  05B8  3068               	movlw	low (_dpowers| (0+32768))
  3351  05B9  0748               	addwf	??_printf^(0+256),w
  3352  05BA  0084               	movwf	4
  3353  05BB  3098               	movlw	high (_dpowers| (0+32768))
  3354  05BC  3D49               	addwfc	(??_printf+1)^(0+256),w
  3355  05BD  0085               	movwf	5
  3356  05BE  3F00               	moviw [0]fsr0
  3357  05BF  0021               	movlb	1	; select bank1
  3358  05C0  00A0               	movwf	___lldiv@divisor^(0+128)
  3359  05C1  3F01               	moviw [1]fsr0
  3360  05C2  00A1               	movwf	(___lldiv@divisor+1)^(0+128)
  3361  05C3  3F02               	moviw [2]fsr0
  3362  05C4  00A2               	movwf	(___lldiv@divisor+2)^(0+128)
  3363  05C5  3F03               	moviw [3]fsr0
  3364  05C6  00A3               	movwf	(___lldiv@divisor+3)^(0+128)
  3365  05C7  0022               	movlb	2	; select bank2
  3366  05C8  085A               	movf	(printf@val+3)^(0+256),w
  3367  05C9  0021               	movlb	1	; select bank1
  3368  05CA  00A7               	movwf	(___lldiv@dividend+3)^(0+128)
  3369  05CB  0022               	movlb	2	; select bank2
  3370  05CC  0859               	movf	(printf@val+2)^(0+256),w
  3371  05CD  0021               	movlb	1	; select bank1
  3372  05CE  00A6               	movwf	(___lldiv@dividend+2)^(0+128)
  3373  05CF  0022               	movlb	2	; select bank2
  3374  05D0  0858               	movf	(printf@val+1)^(0+256),w
  3375  05D1  0021               	movlb	1	; select bank1
  3376  05D2  00A5               	movwf	(___lldiv@dividend+1)^(0+128)
  3377  05D3  0022               	movlb	2	; select bank2
  3378  05D4  0857               	movf	printf@val^(0+256),w
  3379  05D5  0021               	movlb	1	; select bank1
  3380  05D6  00A4               	movwf	___lldiv@dividend^(0+128)
  3381  05D7  3190  2006  3180   	fcall	___lldiv
  3382  05DA  0021               	movlb	1	; select bank1
  3383  05DB  0823               	movf	(?___lldiv+3)^(0+128),w
  3384  05DC  0022               	movlb	2	; select bank2
  3385  05DD  00D6               	movwf	(printf@tmpval+3)^(0+256)
  3386  05DE  0021               	movlb	1	; select bank1
  3387  05DF  0822               	movf	(?___lldiv+2)^(0+128),w
  3388  05E0  0022               	movlb	2	; select bank2
  3389  05E1  00D5               	movwf	(printf@tmpval+2)^(0+256)
  3390  05E2  0021               	movlb	1	; select bank1
  3391  05E3  0821               	movf	(?___lldiv+1)^(0+128),w
  3392  05E4  0022               	movlb	2	; select bank2
  3393  05E5  00D4               	movwf	(printf@tmpval+1)^(0+256)
  3394  05E6  0021               	movlb	1	; select bank1
  3395  05E7  0820               	movf	?___lldiv^(0+128),w
  3396  05E8  0022               	movlb	2	; select bank2
  3397  05E9  00D3               	movwf	printf@tmpval^(0+256)
  3398                           
  3399                           ;doprnt.c: 1230: tmpval.vd %= 10;
  3400  05EA  3000               	movlw	0
  3401  05EB  0021               	movlb	1	; select bank1
  3402  05EC  00B1               	movwf	(___llmod@divisor+3)^(0+128)
  3403  05ED  3000               	movlw	0
  3404  05EE  00B0               	movwf	(___llmod@divisor+2)^(0+128)
  3405  05EF  3000               	movlw	0
  3406  05F0  00AF               	movwf	(___llmod@divisor+1)^(0+128)
  3407  05F1  300A               	movlw	10
  3408  05F2  00AE               	movwf	___llmod@divisor^(0+128)
  3409  05F3  0022               	movlb	2	; select bank2
  3410  05F4  0856               	movf	(printf@tmpval+3)^(0+256),w
  3411  05F5  0021               	movlb	1	; select bank1
  3412  05F6  00B5               	movwf	(___llmod@dividend+3)^(0+128)
  3413  05F7  0022               	movlb	2	; select bank2
  3414  05F8  0855               	movf	(printf@tmpval+2)^(0+256),w
  3415  05F9  0021               	movlb	1	; select bank1
  3416  05FA  00B4               	movwf	(___llmod@dividend+2)^(0+128)
  3417  05FB  0022               	movlb	2	; select bank2
  3418  05FC  0854               	movf	(printf@tmpval+1)^(0+256),w
  3419  05FD  0021               	movlb	1	; select bank1
  3420  05FE  00B3               	movwf	(___llmod@dividend+1)^(0+128)
  3421  05FF  0022               	movlb	2	; select bank2
  3422  0600  0853               	movf	printf@tmpval^(0+256),w
  3423  0601  0021               	movlb	1	; select bank1
  3424  0602  00B2               	movwf	___llmod@dividend^(0+128)
  3425  0603  319C  242B  3180   	fcall	___llmod
  3426  0606  0021               	movlb	1	; select bank1
  3427  0607  0831               	movf	(?___llmod+3)^(0+128),w
  3428  0608  0022               	movlb	2	; select bank2
  3429  0609  00D6               	movwf	(printf@tmpval+3)^(0+256)
  3430  060A  0021               	movlb	1	; select bank1
  3431  060B  0830               	movf	(?___llmod+2)^(0+128),w
  3432  060C  0022               	movlb	2	; select bank2
  3433  060D  00D5               	movwf	(printf@tmpval+2)^(0+256)
  3434  060E  0021               	movlb	1	; select bank1
  3435  060F  082F               	movf	(?___llmod+1)^(0+128),w
  3436  0610  0022               	movlb	2	; select bank2
  3437  0611  00D4               	movwf	(printf@tmpval+1)^(0+256)
  3438  0612  0021               	movlb	1	; select bank1
  3439  0613  082E               	movf	?___llmod^(0+128),w
  3440  0614  0022               	movlb	2	; select bank2
  3441  0615  00D3               	movwf	printf@tmpval^(0+256)
  3442                           
  3443                           ;doprnt.c: 1231: (putch('0' + tmpval.vd) );
  3444  0616  0853               	movf	printf@tmpval^(0+256),w
  3445  0617  3E30               	addlw	48
  3446  0618  319C  2405  3180   	fcall	_putch
  3447                           
  3448                           ;doprnt.c: 1232: val %= dpowers[c];
  3449  061B  0022               	movlb	2	; select bank2
  3450  061C  0867               	movf	printf@c^(0+256),w
  3451  061D  00C8               	movwf	??_printf^(0+256)
  3452  061E  01C9               	clrf	(??_printf^(0+256)+1)
  3453  061F  35C8               	lslf	??_printf^(0+256),f
  3454  0620  0DC9               	rlf	(??_printf^(0+256)+1),f
  3455  0621  35C8               	lslf	??_printf^(0+256),f
  3456  0622  0DC9               	rlf	(??_printf^(0+256)+1),f
  3457  0623  3068               	movlw	low (_dpowers| (0+32768))
  3458  0624  0748               	addwf	??_printf^(0+256),w
  3459  0625  0084               	movwf	4
  3460  0626  3098               	movlw	high (_dpowers| (0+32768))
  3461  0627  3D49               	addwfc	(??_printf+1)^(0+256),w
  3462  0628  0085               	movwf	5
  3463  0629  3F00               	moviw [0]fsr0
  3464  062A  0021               	movlb	1	; select bank1
  3465  062B  00AE               	movwf	___llmod@divisor^(0+128)
  3466  062C  3F01               	moviw [1]fsr0
  3467  062D  00AF               	movwf	(___llmod@divisor+1)^(0+128)
  3468  062E  3F02               	moviw [2]fsr0
  3469  062F  00B0               	movwf	(___llmod@divisor+2)^(0+128)
  3470  0630  3F03               	moviw [3]fsr0
  3471  0631  00B1               	movwf	(___llmod@divisor+3)^(0+128)
  3472  0632  0022               	movlb	2	; select bank2
  3473  0633  085A               	movf	(printf@val+3)^(0+256),w
  3474  0634  0021               	movlb	1	; select bank1
  3475  0635  00B5               	movwf	(___llmod@dividend+3)^(0+128)
  3476  0636  0022               	movlb	2	; select bank2
  3477  0637  0859               	movf	(printf@val+2)^(0+256),w
  3478  0638  0021               	movlb	1	; select bank1
  3479  0639  00B4               	movwf	(___llmod@dividend+2)^(0+128)
  3480  063A  0022               	movlb	2	; select bank2
  3481  063B  0858               	movf	(printf@val+1)^(0+256),w
  3482  063C  0021               	movlb	1	; select bank1
  3483  063D  00B3               	movwf	(___llmod@dividend+1)^(0+128)
  3484  063E  0022               	movlb	2	; select bank2
  3485  063F  0857               	movf	printf@val^(0+256),w
  3486  0640  0021               	movlb	1	; select bank1
  3487  0641  00B2               	movwf	___llmod@dividend^(0+128)
  3488  0642  319C  242B  3180   	fcall	___llmod
  3489  0645  0021               	movlb	1	; select bank1
  3490  0646  0831               	movf	(?___llmod+3)^(0+128),w
  3491  0647  0022               	movlb	2	; select bank2
  3492  0648  00DA               	movwf	(printf@val+3)^(0+256)
  3493  0649  0021               	movlb	1	; select bank1
  3494  064A  0830               	movf	(?___llmod+2)^(0+128),w
  3495  064B  0022               	movlb	2	; select bank2
  3496  064C  00D9               	movwf	(printf@val+2)^(0+256)
  3497  064D  0021               	movlb	1	; select bank1
  3498  064E  082F               	movf	(?___llmod+1)^(0+128),w
  3499  064F  0022               	movlb	2	; select bank2
  3500  0650  00D8               	movwf	(printf@val+1)^(0+256)
  3501  0651  0021               	movlb	1	; select bank1
  3502  0652  082E               	movf	?___llmod^(0+128),w
  3503  0653  2DA8               	goto	L6
  3504  0654                     l3574:	
  3505                           ;doprnt.c: 1233: }
  3506                           ;doprnt.c: 1235: while(prec) {
  3507                           
  3508                           
  3509                           ;doprnt.c: 1236: (putch('0') );
  3510  0654  3030               	movlw	48
  3511  0655  319C  2405  3180   	fcall	_putch
  3512                           
  3513                           ;doprnt.c: 1237: prec--;
  3514  0658  30FF               	movlw	255
  3515  0659  0022               	movlb	2	; select bank2
  3516  065A  07E5               	addwf	printf@prec^(0+256),f
  3517  065B  30FF               	movlw	255
  3518  065C  3DE6               	addwfc	(printf@prec+1)^(0+256),f
  3519  065D                     l3578:	
  3520  065D  0865               	movf	printf@prec^(0+256),w
  3521  065E  0466               	iorwf	(printf@prec+1)^(0+256),w
  3522  065F  1903               	btfsc	3,2
  3523  0660  28AF               	goto	l3662
  3524  0661  2E54               	goto	l3574
  3525  0662                     l3580:	
  3526                           ;doprnt.c: 1238: }
  3527                           ;doprnt.c: 1245: continue;
  3528                           
  3529                           
  3530                           ;doprnt.c: 1246: }
  3531                           ;doprnt.c: 1253: {
  3532                           ;doprnt.c: 1259: val = (long)(*(int *)__va_arg((*(int **)ap), (int)0));
  3533  0662  0852               	movf	printf@ap^(0+256),w
  3534  0663  0086               	movwf	6
  3535  0664  3001               	movlw	1	; select bank2/3
  3536  0665  0087               	movwf	7
  3537  0666  3F40               	moviw [0]fsr1
  3538  0667  00C8               	movwf	??_printf^(0+256)
  3539  0668  3F41               	moviw [1]fsr1
  3540  0669  00C9               	movwf	(??_printf^(0+256)+1)
  3541  066A  0848               	movf	??_printf^(0+256),w
  3542  066B  00D7               	movwf	printf@val^(0+256)
  3543  066C  0849               	movf	(??_printf+1)^(0+256),w
  3544  066D  00D8               	movwf	(printf@val+1)^(0+256)
  3545  066E  0D89               	rlf	9,f
  3546  066F  3B89               	subwfb	9,f
  3547  0670  0989               	comf	9,f
  3548  0671  00D9               	movwf	(printf@val+2)^(0+256)
  3549  0672  00DA               	movwf	(printf@val+3)^(0+256)
  3550  0673  3002               	movlw	2
  3551  0674  00C8               	movwf	??_printf^(0+256)
  3552  0675  0848               	movf	??_printf^(0+256),w
  3553  0676  07D2               	addwf	printf@ap^(0+256),f
  3554                           
  3555                           ;doprnt.c: 1261: if((long)val < 0) {
  3556  0677  1FDA               	btfss	(printf@val+3)^(0+256),7
  3557  0678  2E88               	goto	l3590
  3558                           
  3559                           ;doprnt.c: 1262: flag |= 0x03;
  3560  0679  3003               	movlw	3
  3561  067A  04DD               	iorwf	printf@flag^(0+256),f
  3562  067B  3000               	movlw	0
  3563  067C  04DE               	iorwf	(printf@flag+1)^(0+256),f
  3564                           
  3565                           ;doprnt.c: 1263: val = -val;
  3566  067D  09D7               	comf	printf@val^(0+256),f
  3567  067E  09D8               	comf	(printf@val+1)^(0+256),f
  3568  067F  09D9               	comf	(printf@val+2)^(0+256),f
  3569  0680  09DA               	comf	(printf@val+3)^(0+256),f
  3570  0681  0AD7               	incf	printf@val^(0+256),f
  3571  0682  1903               	skipnz
  3572  0683  0AD8               	incf	(printf@val+1)^(0+256),f
  3573  0684  1903               	skipnz
  3574  0685  0AD9               	incf	(printf@val+2)^(0+256),f
  3575  0686  1903               	skipnz
  3576  0687  0ADA               	incf	(printf@val+3)^(0+256),f
  3577  0688                     l3590:	
  3578                           
  3579                           ;doprnt.c: 1264: }
  3580                           ;doprnt.c: 1266: }
  3581                           ;doprnt.c: 1290: if(prec == 0 && val == 0)
  3582  0688  0865               	movf	printf@prec^(0+256),w
  3583  0689  0466               	iorwf	(printf@prec+1)^(0+256),w
  3584  068A  1D03               	btfss	3,2
  3585  068B  2E96               	goto	l3596
  3586  068C  085A               	movf	(printf@val+3)^(0+256),w
  3587  068D  0459               	iorwf	(printf@val+2)^(0+256),w
  3588  068E  0458               	iorwf	(printf@val+1)^(0+256),w
  3589  068F  0457               	iorwf	printf@val^(0+256),w
  3590  0690  1D03               	skipz
  3591  0691  2E96               	goto	l3596
  3592                           
  3593                           ;doprnt.c: 1291: prec++;
  3594  0692  3001               	movlw	1
  3595  0693  07E5               	addwf	printf@prec^(0+256),f
  3596  0694  3000               	movlw	0
  3597  0695  3DE6               	addwfc	(printf@prec+1)^(0+256),f
  3598  0696                     l3596:	
  3599                           
  3600                           ;doprnt.c: 1305: for(c = 1 ; c != sizeof dpowers/sizeof dpowers[0] ; c++)
  3601  0696  01E7               	clrf	printf@c^(0+256)
  3602  0697  0AE7               	incf	printf@c^(0+256),f
  3603  0698  300A               	movlw	10
  3604  0699  0667               	xorwf	printf@c^(0+256),w
  3605  069A  1903               	btfsc	3,2
  3606  069B  2EC9               	goto	l3608
  3607  069C                     l3602:	
  3608                           
  3609                           ;doprnt.c: 1306: if(val < dpowers[c])
  3610  069C  0867               	movf	printf@c^(0+256),w
  3611  069D  00C8               	movwf	??_printf^(0+256)
  3612  069E  01C9               	clrf	(??_printf^(0+256)+1)
  3613  069F  35C8               	lslf	??_printf^(0+256),f
  3614  06A0  0DC9               	rlf	(??_printf^(0+256)+1),f
  3615  06A1  35C8               	lslf	??_printf^(0+256),f
  3616  06A2  0DC9               	rlf	(??_printf^(0+256)+1),f
  3617  06A3  3068               	movlw	low (_dpowers| (0+32768))
  3618  06A4  0748               	addwf	??_printf^(0+256),w
  3619  06A5  0084               	movwf	4
  3620  06A6  3098               	movlw	high (_dpowers| (0+32768))
  3621  06A7  3D49               	addwfc	(??_printf+1)^(0+256),w
  3622  06A8  0085               	movwf	5
  3623  06A9  3F00               	moviw [0]fsr0
  3624  06AA  00CA               	movwf	(??_printf+2)^(0+256)
  3625  06AB  3F01               	moviw [1]fsr0
  3626  06AC  00CB               	movwf	((??_printf+2)^(0+256)+1)
  3627  06AD  3F02               	moviw [2]fsr0
  3628  06AE  00CC               	movwf	((??_printf+2)^(0+256)+2)
  3629  06AF  3F03               	moviw [3]fsr0
  3630  06B0  00CD               	movwf	((??_printf+2)^(0+256)+3)
  3631  06B1  084D               	movf	(??_printf+5)^(0+256),w
  3632  06B2  025A               	subwf	(printf@val+3)^(0+256),w
  3633  06B3  1D03               	skipz
  3634  06B4  2EBF               	goto	u5685
  3635  06B5  084C               	movf	(??_printf+4)^(0+256),w
  3636  06B6  0259               	subwf	(printf@val+2)^(0+256),w
  3637  06B7  1D03               	skipz
  3638  06B8  2EBF               	goto	u5685
  3639  06B9  084B               	movf	(??_printf+3)^(0+256),w
  3640  06BA  0258               	subwf	(printf@val+1)^(0+256),w
  3641  06BB  1D03               	skipz
  3642  06BC  2EBF               	goto	u5685
  3643  06BD  084A               	movf	(??_printf+2)^(0+256),w
  3644  06BE  0257               	subwf	printf@val^(0+256),w
  3645  06BF                     u5685:	
  3646  06BF  1C03               	btfss	3,0
  3647  06C0  2EC9               	goto	l3608
  3648                           
  3649                           ;doprnt.c: 1307: break;
  3650  06C1  3001               	movlw	1
  3651  06C2  00C8               	movwf	??_printf^(0+256)
  3652  06C3  0848               	movf	??_printf^(0+256),w
  3653  06C4  07E7               	addwf	printf@c^(0+256),f
  3654  06C5  300A               	movlw	10
  3655  06C6  0667               	xorwf	printf@c^(0+256),w
  3656  06C7  1D03               	btfss	3,2
  3657  06C8  2E9C               	goto	l3602
  3658  06C9                     l3608:	
  3659                           
  3660                           ;doprnt.c: 1339: if(c < prec)
  3661  06C9  0867               	movf	printf@c^(0+256),w
  3662  06CA  00C8               	movwf	??_printf^(0+256)
  3663  06CB  01C9               	clrf	(??_printf^(0+256)+1)
  3664  06CC  1BC8               	btfsc	??_printf^(0+256),7
  3665  06CD  03C9               	decf	(??_printf^(0+256)+1),f
  3666  06CE  0849               	movf	(??_printf+1)^(0+256),w
  3667  06CF  3A80               	xorlw	128
  3668  06D0  00CA               	movwf	(??_printf+2)^(0+256)
  3669  06D1  0866               	movf	(printf@prec+1)^(0+256),w
  3670  06D2  3A80               	xorlw	128
  3671  06D3  024A               	subwf	(??_printf+2)^(0+256),w
  3672  06D4  1D03               	skipz
  3673  06D5  2ED8               	goto	u5705
  3674  06D6  0865               	movf	printf@prec^(0+256),w
  3675  06D7  0248               	subwf	??_printf^(0+256),w
  3676  06D8                     u5705:	
  3677  06D8  1803               	skipnc
  3678  06D9  2EE0               	goto	l3612
  3679                           
  3680                           ;doprnt.c: 1340: c = prec;
  3681  06DA  0022               	movlb	2	; select bank2
  3682  06DB  0865               	movf	printf@prec^(0+256),w
  3683  06DC  00C8               	movwf	??_printf^(0+256)
  3684  06DD  0848               	movf	??_printf^(0+256),w
  3685  06DE  00E7               	movwf	printf@c^(0+256)
  3686  06DF  2EF8               	goto	l221
  3687  06E0                     l3612:	
  3688                           
  3689                           ;doprnt.c: 1341: else if(prec < c)
  3690  06E0  0022               	movlb	2	; select bank2
  3691  06E1  0867               	movf	printf@c^(0+256),w
  3692  06E2  00C8               	movwf	??_printf^(0+256)
  3693  06E3  01C9               	clrf	(??_printf^(0+256)+1)
  3694  06E4  1BC8               	btfsc	??_printf^(0+256),7
  3695  06E5  03C9               	decf	(??_printf^(0+256)+1),f
  3696  06E6  0866               	movf	(printf@prec+1)^(0+256),w
  3697  06E7  3A80               	xorlw	128
  3698  06E8  00CA               	movwf	(??_printf+2)^(0+256)
  3699  06E9  0849               	movf	(??_printf+1)^(0+256),w
  3700  06EA  3A80               	xorlw	128
  3701  06EB  024A               	subwf	(??_printf+2)^(0+256),w
  3702  06EC  1D03               	skipz
  3703  06ED  2EF0               	goto	u5715
  3704  06EE  0848               	movf	??_printf^(0+256),w
  3705  06EF  0265               	subwf	printf@prec^(0+256),w
  3706  06F0                     u5715:	
  3707  06F0  1803               	skipnc
  3708  06F1  2EF8               	goto	l221
  3709                           
  3710                           ;doprnt.c: 1342: prec = c;
  3711  06F2  0022               	movlb	2	; select bank2
  3712  06F3  0867               	movf	printf@c^(0+256),w
  3713  06F4  00E5               	movwf	printf@prec^(0+256)
  3714  06F5  01E6               	clrf	(printf@prec+1)^(0+256)
  3715  06F6  1BE5               	btfsc	printf@prec^(0+256),7
  3716  06F7  03E6               	decf	(printf@prec+1)^(0+256),f
  3717  06F8                     l221:	
  3718                           
  3719                           ;doprnt.c: 1345: if(width && flag & 0x03)
  3720  06F8  0022               	movlb	2	; select bank2
  3721  06F9  085F               	movf	printf@width^(0+256),w
  3722  06FA  0460               	iorwf	(printf@width+1)^(0+256),w
  3723  06FB  1903               	btfsc	3,2
  3724  06FC  2F0B               	goto	l3620
  3725  06FD  3003               	movlw	3
  3726  06FE  055D               	andwf	printf@flag^(0+256),w
  3727  06FF  00C8               	movwf	??_printf^(0+256)
  3728  0700  3000               	movlw	0
  3729  0701  055E               	andwf	(printf@flag+1)^(0+256),w
  3730  0702  00C9               	movwf	(??_printf+1)^(0+256)
  3731  0703  0848               	movf	??_printf^(0+256),w
  3732  0704  0449               	iorwf	(??_printf^(0+256)+1),w
  3733  0705  1903               	btfsc	3,2
  3734  0706  2F0B               	goto	l3620
  3735                           
  3736                           ;doprnt.c: 1346: width--;
  3737  0707  30FF               	movlw	255
  3738  0708  07DF               	addwf	printf@width^(0+256),f
  3739  0709  30FF               	movlw	255
  3740  070A  3DE0               	addwfc	(printf@width+1)^(0+256),f
  3741  070B                     l3620:	
  3742                           
  3743                           ;doprnt.c: 1348: if(flag & 0x4000) {
  3744  070B  1F5E               	btfss	(printf@flag+1)^(0+256),6
  3745  070C  2F22               	goto	l3628
  3746                           
  3747                           ;doprnt.c: 1349: if(width > prec)
  3748  070D  0866               	movf	(printf@prec+1)^(0+256),w
  3749  070E  3A80               	xorlw	128
  3750  070F  00C8               	movwf	??_printf^(0+256)
  3751  0710  0860               	movf	(printf@width+1)^(0+256),w
  3752  0711  3A80               	xorlw	128
  3753  0712  0248               	subwf	??_printf^(0+256),w
  3754  0713  1D03               	skipz
  3755  0714  2F17               	goto	u5755
  3756  0715  085F               	movf	printf@width^(0+256),w
  3757  0716  0265               	subwf	printf@prec^(0+256),w
  3758  0717                     u5755:	
  3759  0717  1803               	skipnc
  3760  0718  2F1F               	goto	l3626
  3761                           
  3762                           ;doprnt.c: 1350: width -= prec;
  3763  0719  0022               	movlb	2	; select bank2
  3764  071A  0865               	movf	printf@prec^(0+256),w
  3765  071B  02DF               	subwf	printf@width^(0+256),f
  3766  071C  0866               	movf	(printf@prec+1)^(0+256),w
  3767  071D  3BE0               	subwfb	(printf@width+1)^(0+256),f
  3768  071E  2F22               	goto	l3628
  3769  071F                     l3626:	
  3770                           
  3771                           ;doprnt.c: 1351: else
  3772                           ;doprnt.c: 1352: width = 0;
  3773  071F  0022               	movlb	2	; select bank2
  3774  0720  01DF               	clrf	printf@width^(0+256)
  3775  0721  01E0               	clrf	(printf@width+1)^(0+256)
  3776  0722                     l3628:	
  3777                           
  3778                           ;doprnt.c: 1353: }
  3779                           ;doprnt.c: 1381: if(width > c)
  3780  0722  0867               	movf	printf@c^(0+256),w
  3781  0723  00C8               	movwf	??_printf^(0+256)
  3782  0724  01C9               	clrf	(??_printf^(0+256)+1)
  3783  0725  1BC8               	btfsc	??_printf^(0+256),7
  3784  0726  03C9               	decf	(??_printf^(0+256)+1),f
  3785  0727  0849               	movf	(??_printf+1)^(0+256),w
  3786  0728  3A80               	xorlw	128
  3787  0729  00CA               	movwf	(??_printf+2)^(0+256)
  3788  072A  0860               	movf	(printf@width+1)^(0+256),w
  3789  072B  3A80               	xorlw	128
  3790  072C  024A               	subwf	(??_printf+2)^(0+256),w
  3791  072D  1D03               	skipz
  3792  072E  2F31               	goto	u5765
  3793  072F  085F               	movf	printf@width^(0+256),w
  3794  0730  0248               	subwf	??_printf^(0+256),w
  3795  0731                     u5765:	
  3796  0731  1803               	skipnc
  3797  0732  2F3E               	goto	l3632
  3798                           
  3799                           ;doprnt.c: 1382: width -= c;
  3800  0733  0022               	movlb	2	; select bank2
  3801  0734  0867               	movf	printf@c^(0+256),w
  3802  0735  00C8               	movwf	??_printf^(0+256)
  3803  0736  01C9               	clrf	(??_printf^(0+256)+1)
  3804  0737  1BC8               	btfsc	??_printf^(0+256),7
  3805  0738  03C9               	decf	(??_printf^(0+256)+1),f
  3806  0739  0848               	movf	??_printf^(0+256),w
  3807  073A  02DF               	subwf	printf@width^(0+256),f
  3808  073B  0849               	movf	(??_printf+1)^(0+256),w
  3809  073C  3BE0               	subwfb	(printf@width+1)^(0+256),f
  3810  073D  2F41               	goto	l3634
  3811  073E                     l3632:	
  3812                           
  3813                           ;doprnt.c: 1383: else
  3814                           ;doprnt.c: 1384: width = 0;
  3815  073E  0022               	movlb	2	; select bank2
  3816  073F  01DF               	clrf	printf@width^(0+256)
  3817  0740  01E0               	clrf	(printf@width+1)^(0+256)
  3818  0741                     l3634:	
  3819                           
  3820                           ;doprnt.c: 1387: if(flag & 0x04) {
  3821  0741  1D5D               	btfss	printf@flag^(0+256),2
  3822  0742  2F60               	goto	l3646
  3823                           
  3824                           ;doprnt.c: 1392: if(flag & 0x03)
  3825  0743  3003               	movlw	3
  3826  0744  055D               	andwf	printf@flag^(0+256),w
  3827  0745  00C8               	movwf	??_printf^(0+256)
  3828  0746  3000               	movlw	0
  3829  0747  055E               	andwf	(printf@flag+1)^(0+256),w
  3830  0748  00C9               	movwf	(??_printf+1)^(0+256)
  3831  0749  0848               	movf	??_printf^(0+256),w
  3832  074A  0449               	iorwf	(??_printf^(0+256)+1),w
  3833  074B  1903               	btfsc	3,2
  3834  074C  2F51               	goto	l3640
  3835                           
  3836                           ;doprnt.c: 1393: (putch('-') );
  3837  074D  302D               	movlw	45
  3838  074E  319C  2405  3180   	fcall	_putch
  3839  0751                     l3640:	
  3840                           
  3841                           ;doprnt.c: 1415: if(width)
  3842  0751  0022               	movlb	2	; select bank2
  3843  0752                     L7:	
  3844  0752  085F               	movf	printf@width^(0+256),w
  3845  0753  0460               	iorwf	(printf@width+1)^(0+256),w
  3846  0754  1903               	btfsc	3,2
  3847  0755  2F7F               	goto	l3660
  3848                           
  3849                           ;doprnt.c: 1417: (putch('0') );
  3850                           
  3851                           ;doprnt.c: 1416: do
  3852  0756  3030               	movlw	48
  3853  0757  319C  2405  3180   	fcall	_putch
  3854                           
  3855                           ;doprnt.c: 1418: while(--width);
  3856  075A  30FF               	movlw	255
  3857  075B  0022               	movlb	2	; select bank2
  3858  075C  07DF               	addwf	printf@width^(0+256),f
  3859  075D  30FF               	movlw	255
  3860  075E  3DE0               	addwfc	(printf@width+1)^(0+256),f
  3861  075F  2F52               	goto	L7
  3862  0760                     l3646:	
  3863                           ;doprnt.c: 1420: } else
  3864                           
  3865                           
  3866                           ;doprnt.c: 1422: {
  3867                           ;doprnt.c: 1424: if(width
  3868                           ;doprnt.c: 1428: )
  3869  0760  085F               	movf	printf@width^(0+256),w
  3870  0761  0460               	iorwf	(printf@width+1)^(0+256),w
  3871  0762  1903               	btfsc	3,2
  3872  0763  2F71               	goto	l3652
  3873  0764                     l3648:	
  3874                           ;doprnt.c: 1429: do
  3875                           
  3876                           
  3877                           ;doprnt.c: 1430: (putch(' ') );
  3878  0764  3020               	movlw	32
  3879  0765  319C  2405  3180   	fcall	_putch
  3880                           
  3881                           ;doprnt.c: 1431: while(--width);
  3882  0768  30FF               	movlw	255
  3883  0769  0022               	movlb	2	; select bank2
  3884  076A  07DF               	addwf	printf@width^(0+256),f
  3885  076B  30FF               	movlw	255
  3886  076C  3DE0               	addwfc	(printf@width+1)^(0+256),f
  3887  076D  085F               	movf	printf@width^(0+256),w
  3888  076E  0460               	iorwf	(printf@width+1)^(0+256),w
  3889  076F  1D03               	btfss	3,2
  3890  0770  2F64               	goto	l3648
  3891  0771                     l3652:	
  3892                           
  3893                           ;doprnt.c: 1438: if(flag & 0x03)
  3894  0771  3003               	movlw	3
  3895  0772  055D               	andwf	printf@flag^(0+256),w
  3896  0773  00C8               	movwf	??_printf^(0+256)
  3897  0774  3000               	movlw	0
  3898  0775  055E               	andwf	(printf@flag+1)^(0+256),w
  3899  0776  00C9               	movwf	(??_printf+1)^(0+256)
  3900  0777  0848               	movf	??_printf^(0+256),w
  3901  0778  0449               	iorwf	(??_printf^(0+256)+1),w
  3902  0779  1903               	btfsc	3,2
  3903  077A  2F7F               	goto	l3660
  3904                           
  3905                           ;doprnt.c: 1439: (putch('-') );
  3906  077B  302D               	movlw	45
  3907  077C                     L9:	
  3908  077C  319C  2405  3180   	fcall	_putch
  3909  077F                     l3660:	
  3910                           ;doprnt.c: 1469: }
  3911                           ;doprnt.c: 1474: while(prec--) {
  3912                           
  3913  077F  30FF               	movlw	255
  3914  0780  0022               	movlb	2	; select bank2
  3915  0781  07E5               	addwf	printf@prec^(0+256),f
  3916  0782  30FF               	movlw	255
  3917  0783  3DE6               	addwfc	(printf@prec+1)^(0+256),f
  3918  0784  0A65               	incf	printf@prec^(0+256),w
  3919  0785  1903               	btfsc	3,2
  3920  0786  0A66               	incf	(printf@prec+1)^(0+256),w
  3921  0787  1903               	btfsc	3,2
  3922  0788  28AF               	goto	l3662
  3923                           
  3924                           ;doprnt.c: 1478: {
  3925                           ;doprnt.c: 1489: c = (val / dpowers[prec]) % 10 + '0';
  3926  0789  3000               	movlw	0
  3927  078A  0021               	movlb	1	; select bank1
  3928  078B  00B1               	movwf	(___llmod@divisor+3)^(0+128)
  3929  078C  3000               	movlw	0
  3930  078D  00B0               	movwf	(___llmod@divisor+2)^(0+128)
  3931  078E  3000               	movlw	0
  3932  078F  00AF               	movwf	(___llmod@divisor+1)^(0+128)
  3933  0790  300A               	movlw	10
  3934  0791  00AE               	movwf	___llmod@divisor^(0+128)
  3935  0792  0022               	movlb	2	; select bank2
  3936  0793  0866               	movf	(printf@prec+1)^(0+256),w
  3937  0794  0085               	movwf	5
  3938  0795  0865               	movf	printf@prec^(0+256),w
  3939  0796  0084               	movwf	4
  3940  0797  3584               	lslf	4,f
  3941  0798  0D85               	rlf	5,f
  3942  0799  3584               	lslf	4,f
  3943  079A  0D85               	rlf	5,f
  3944  079B  3068               	movlw	low (_dpowers| (0+32768))
  3945  079C  0784               	addwf	4,f
  3946  079D  3098               	movlw	high (_dpowers| (0+32768))
  3947  079E  3D85               	addwfc	5,f
  3948  079F  3F00               	moviw [0]fsr0
  3949  07A0  0021               	movlb	1	; select bank1
  3950  07A1  00A0               	movwf	___lldiv@divisor^(0+128)
  3951  07A2  3F01               	moviw [1]fsr0
  3952  07A3  00A1               	movwf	(___lldiv@divisor+1)^(0+128)
  3953  07A4  3F02               	moviw [2]fsr0
  3954  07A5  00A2               	movwf	(___lldiv@divisor+2)^(0+128)
  3955  07A6  3F03               	moviw [3]fsr0
  3956  07A7  00A3               	movwf	(___lldiv@divisor+3)^(0+128)
  3957  07A8  0022               	movlb	2	; select bank2
  3958  07A9  085A               	movf	(printf@val+3)^(0+256),w
  3959  07AA  0021               	movlb	1	; select bank1
  3960  07AB  00A7               	movwf	(___lldiv@dividend+3)^(0+128)
  3961  07AC  0022               	movlb	2	; select bank2
  3962  07AD  0859               	movf	(printf@val+2)^(0+256),w
  3963  07AE  0021               	movlb	1	; select bank1
  3964  07AF  00A6               	movwf	(___lldiv@dividend+2)^(0+128)
  3965  07B0  0022               	movlb	2	; select bank2
  3966  07B1  0858               	movf	(printf@val+1)^(0+256),w
  3967  07B2  0021               	movlb	1	; select bank1
  3968  07B3  00A5               	movwf	(___lldiv@dividend+1)^(0+128)
  3969  07B4  0022               	movlb	2	; select bank2
  3970  07B5  0857               	movf	printf@val^(0+256),w
  3971  07B6  0021               	movlb	1	; select bank1
  3972  07B7  00A4               	movwf	___lldiv@dividend^(0+128)
  3973  07B8  3190  2006  3180   	fcall	___lldiv
  3974  07BB  0021               	movlb	1	; select bank1
  3975  07BC  0823               	movf	(?___lldiv+3)^(0+128),w
  3976  07BD  00B5               	movwf	(___llmod@dividend+3)^(0+128)
  3977  07BE  0822               	movf	(?___lldiv+2)^(0+128),w
  3978  07BF  00B4               	movwf	(___llmod@dividend+2)^(0+128)
  3979  07C0  0821               	movf	(?___lldiv+1)^(0+128),w
  3980  07C1  00B3               	movwf	(___llmod@dividend+1)^(0+128)
  3981  07C2  0820               	movf	?___lldiv^(0+128),w
  3982  07C3  00B2               	movwf	___llmod@dividend^(0+128)
  3983  07C4  319C  242B  3180   	fcall	___llmod
  3984  07C7  0021               	movlb	1	; select bank1
  3985  07C8  082E               	movf	?___llmod^(0+128),w
  3986  07C9  3E30               	addlw	48
  3987  07CA  0022               	movlb	2	; select bank2
  3988  07CB  00C8               	movwf	??_printf^(0+256)
  3989  07CC  0848               	movf	??_printf^(0+256),w
  3990  07CD  00E7               	movwf	printf@c^(0+256)
  3991                           
  3992                           ;doprnt.c: 1523: }
  3993                           ;doprnt.c: 1524: (putch(c) );
  3994  07CE  0867               	movf	printf@c^(0+256),w
  3995  07CF  2F7C               	goto	L9
  3996  07D0                     l243:	
  3997                           ;doprnt.c: 1540: return 0;
  3998                           ;	Return value of _printf is never used
  3999                           
  4000                           ;doprnt.c: 1525: }
  4001                           ;doprnt.c: 1533: }
  4002                           ;doprnt.c: 1535: alldone:
  4003                           
  4004  07D0  0008               	return
  4005  07D1                     __end_of_printf:	
  4006                           
  4007                           	psect	text2
  4008  0D70                     __ptext2:	
  4009 ;; *************** function _scale *****************
  4010 ;; Defined at:
  4011 ;;		line 425 in file "/Applications/microchip/xc8/v1.37/sources/common/doprnt.c"
  4012 ;; Parameters:    Size  Location     Type
  4013 ;;  scl             1    wreg     char 
  4014 ;; Auto vars:     Size  Location     Type
  4015 ;;  scl             1   66[BANK1 ] char 
  4016 ;; Return value:  Size  Location     Type
  4017 ;;                  4   42[BANK1 ] char 
  4018 ;; Registers used:
  4019 ;;		wreg, fsr0l, fsr0h, status,2, status,0, pclath, cstack
  4020 ;; Tracked objects:
  4021 ;;		On entry : 0/0
  4022 ;;		On exit  : 0/0
  4023 ;;		Unchanged: 0/0
  4024 ;; Data sizes:     COMMON   BANK0   BANK1   BANK2   BANK3   BANK4   BANK5   BANK6   BANK7   BANK8   BANK9  BANK10  BANK1
      +1  BANK12
  4025 ;;      Params:         0       0       4       0       0       0       0       0       0       0       0       0       
      +0       0
  4026 ;;      Locals:         0       0       5       0       0       0       0       0       0       0       0       0       
      +0       0
  4027 ;;      Temps:          0       0      16       0       0       0       0       0       0       0       0       0       
      +0       0
  4028 ;;      Totals:         0       0      25       0       0       0       0       0       0       0       0       0       
      +0       0
  4029 ;;Total ram usage:       25 bytes
  4030 ;; Hardware stack levels used:    1
  4031 ;; Hardware stack levels required when called:    4
  4032 ;; This function calls:
  4033 ;;		___awdiv
  4034 ;;		___awmod
  4035 ;;		___flmul
  4036 ;; This function is called by:
  4037 ;;		_printf
  4038 ;; This function uses a non-reentrant model
  4039 ;;
  4040                           
  4041                           
  4042                           ;psect for function _scale
  4043  0D70                     _scale:	
  4044                           
  4045                           ;incstack = 0
  4046                           ; Regs used in _scale: [wreg-fsr0h+status,2+status,0+pclath+cstack]
  4047                           ;scale@scl stored from wreg
  4048  0D70  0021               	movlb	1	; select bank1
  4049  0D71  00E2               	movwf	scale@scl^(0+128)
  4050                           
  4051                           ;doprnt.c: 428: if(scl < 0) {
  4052  0D72  1FE2               	btfss	scale@scl^(0+128),7
  4053  0D73  2EBB               	goto	l3064
  4054                           
  4055                           ;doprnt.c: 429: scl = -scl;
  4056  0D74  09E2               	comf	scale@scl^(0+128),f
  4057  0D75  0AE2               	incf	scale@scl^(0+128),f
  4058                           
  4059                           ;doprnt.c: 430: if(scl>=110)
  4060  0D76  0862               	movf	scale@scl^(0+128),w
  4061  0D77  3A80               	xorlw	128
  4062  0D78  3E12               	addlw	-238
  4063  0D79  1C03               	skipc
  4064  0D7A  2E32               	goto	l3054
  4065                           
  4066                           ;doprnt.c: 431: return _npowers_[scl/100+18] * _npowers_[(scl%100)/10+9] * _npowers_[scl
      +                          %10];
  4067  0D7B  300A               	movlw	10
  4068  0D7C  00A7               	movwf	___awdiv@divisor^(0+128)
  4069  0D7D  3000               	movlw	0
  4070  0D7E  00A8               	movwf	(___awdiv@divisor^(0+128)+1)
  4071  0D7F  0862               	movf	scale@scl^(0+128),w
  4072  0D80  00A2               	movwf	___awmod@dividend^(0+128)
  4073  0D81  01A3               	clrf	(___awmod@dividend+1)^(0+128)
  4074  0D82  1BA2               	btfsc	___awmod@dividend^(0+128),7
  4075  0D83  03A3               	decf	(___awmod@dividend+1)^(0+128),f
  4076  0D84  3064               	movlw	100
  4077  0D85  00A0               	movwf	___awmod@divisor^(0+128)
  4078  0D86  3000               	movlw	0
  4079  0D87  00A1               	movwf	(___awmod@divisor^(0+128)+1)
  4080  0D88  319C  246E  318D   	fcall	___awmod
  4081  0D8B  0021               	movlb	1	; select bank1
  4082  0D8C  0821               	movf	(?___awmod+1)^(0+128),w
  4083  0D8D  00AA               	movwf	(___awdiv@dividend+1)^(0+128)
  4084  0D8E  0820               	movf	?___awmod^(0+128),w
  4085  0D8F  00A9               	movwf	___awdiv@dividend^(0+128)
  4086  0D90  319C  24B4  318D   	fcall	___awdiv
  4087  0D93  0021               	movlb	1	; select bank1
  4088  0D94  0827               	movf	?___awdiv^(0+128),w
  4089  0D95  00CE               	movwf	??_scale^(0+128)
  4090  0D96  0828               	movf	(?___awdiv+1)^(0+128),w
  4091  0D97  00CF               	movwf	(??_scale^(0+128)+1)
  4092  0D98  35CE               	lslf	??_scale^(0+128),f
  4093  0D99  0DCF               	rlf	(??_scale^(0+128)+1),f
  4094  0D9A  35CE               	lslf	??_scale^(0+128),f
  4095  0D9B  0DCF               	rlf	(??_scale^(0+128)+1),f
  4096  0D9C  084E               	movf	??_scale^(0+128),w
  4097  0D9D  3E24               	addlw	36
  4098  0D9E  00D0               	movwf	(??_scale+2)^(0+128)
  4099  0D9F  3000               	movlw	0
  4100  0DA0  3D4F               	addwfc	(??_scale+1)^(0+128),w
  4101  0DA1  00D1               	movwf	(??_scale+3)^(0+128)
  4102  0DA2  3000               	movlw	low (__npowers_| (0+32768))
  4103  0DA3  0750               	addwf	(??_scale+2)^(0+128),w
  4104  0DA4  0084               	movwf	4
  4105  0DA5  3098               	movlw	high (__npowers_| (0+32768))
  4106  0DA6  3D51               	addwfc	(??_scale+3)^(0+128),w
  4107  0DA7  0085               	movwf	5
  4108  0DA8  3F00               	moviw [0]fsr0
  4109  0DA9  00D2               	movwf	(??_scale+4)^(0+128)
  4110  0DAA  3F01               	moviw [1]fsr0
  4111  0DAB  00D3               	movwf	((??_scale+4)^(0+128)+1)
  4112  0DAC  3F02               	moviw [2]fsr0
  4113  0DAD  00D4               	movwf	((??_scale+4)^(0+128)+2)
  4114  0DAE  3F03               	moviw [3]fsr0
  4115  0DAF  00D5               	movwf	((??_scale+4)^(0+128)+3)
  4116  0DB0  0855               	movf	(??_scale+7)^(0+128),w
  4117  0DB1  00B3               	movwf	(___flmul@b+3)^(0+128)
  4118  0DB2  0854               	movf	(??_scale+6)^(0+128),w
  4119  0DB3  00B2               	movwf	(___flmul@b+2)^(0+128)
  4120  0DB4  0853               	movf	(??_scale+5)^(0+128),w
  4121  0DB5  00B1               	movwf	(___flmul@b+1)^(0+128)
  4122  0DB6  0852               	movf	(??_scale+4)^(0+128),w
  4123  0DB7  00B0               	movwf	___flmul@b^(0+128)
  4124  0DB8  3064               	movlw	100
  4125  0DB9  00A7               	movwf	___awdiv@divisor^(0+128)
  4126  0DBA  3000               	movlw	0
  4127  0DBB  00A8               	movwf	(___awdiv@divisor^(0+128)+1)
  4128  0DBC  0862               	movf	scale@scl^(0+128),w
  4129  0DBD  00A9               	movwf	___awdiv@dividend^(0+128)
  4130  0DBE  01AA               	clrf	(___awdiv@dividend+1)^(0+128)
  4131  0DBF  1BA9               	btfsc	___awdiv@dividend^(0+128),7
  4132  0DC0  03AA               	decf	(___awdiv@dividend+1)^(0+128),f
  4133  0DC1  319C  24B4  318D   	fcall	___awdiv
  4134  0DC4  0021               	movlb	1	; select bank1
  4135  0DC5  0827               	movf	?___awdiv^(0+128),w
  4136  0DC6  00D6               	movwf	(??_scale+8)^(0+128)
  4137  0DC7  0828               	movf	(?___awdiv+1)^(0+128),w
  4138  0DC8  00D7               	movwf	((??_scale+8)^(0+128)+1)
  4139  0DC9  35D6               	lslf	(??_scale+8)^(0+128),f
  4140  0DCA  0DD7               	rlf	((??_scale+8)^(0+128)+1),f
  4141  0DCB  35D6               	lslf	(??_scale+8)^(0+128),f
  4142  0DCC  0DD7               	rlf	((??_scale+8)^(0+128)+1),f
  4143  0DCD  0856               	movf	(??_scale+8)^(0+128),w
  4144  0DCE  3E48               	addlw	72
  4145  0DCF  00D8               	movwf	(??_scale+10)^(0+128)
  4146  0DD0  3000               	movlw	0
  4147  0DD1  3D57               	addwfc	(??_scale+9)^(0+128),w
  4148  0DD2  00D9               	movwf	(??_scale+11)^(0+128)
  4149  0DD3  3000               	movlw	low (__npowers_| (0+32768))
  4150  0DD4  0758               	addwf	(??_scale+10)^(0+128),w
  4151  0DD5  0084               	movwf	4
  4152  0DD6  3098               	movlw	high (__npowers_| (0+32768))
  4153  0DD7  3D59               	addwfc	(??_scale+11)^(0+128),w
  4154  0DD8  0085               	movwf	5
  4155  0DD9  3F00               	moviw [0]fsr0
  4156  0DDA  00DA               	movwf	(??_scale+12)^(0+128)
  4157  0DDB  3F01               	moviw [1]fsr0
  4158  0DDC  00DB               	movwf	((??_scale+12)^(0+128)+1)
  4159  0DDD  3F02               	moviw [2]fsr0
  4160  0DDE  00DC               	movwf	((??_scale+12)^(0+128)+2)
  4161  0DDF  3F03               	moviw [3]fsr0
  4162  0DE0  00DD               	movwf	((??_scale+12)^(0+128)+3)
  4163  0DE1  085D               	movf	(??_scale+15)^(0+128),w
  4164  0DE2  00B7               	movwf	(___flmul@a+3)^(0+128)
  4165  0DE3  085C               	movf	(??_scale+14)^(0+128),w
  4166  0DE4  00B6               	movwf	(___flmul@a+2)^(0+128)
  4167  0DE5  085B               	movf	(??_scale+13)^(0+128),w
  4168  0DE6  00B5               	movwf	(___flmul@a+1)^(0+128)
  4169  0DE7  085A               	movf	(??_scale+12)^(0+128),w
  4170  0DE8  00B4               	movwf	___flmul@a^(0+128)
  4171  0DE9  3188  20E4  318D   	fcall	___flmul
  4172  0DEC  0021               	movlb	1	; select bank1
  4173  0DED  0833               	movf	(?___flmul+3)^(0+128),w
  4174  0DEE  00E1               	movwf	(_scale$820+3)^(0+128)
  4175  0DEF  0832               	movf	(?___flmul+2)^(0+128),w
  4176  0DF0  00E0               	movwf	(_scale$820+2)^(0+128)
  4177  0DF1  0831               	movf	(?___flmul+1)^(0+128),w
  4178  0DF2  00DF               	movwf	(_scale$820+1)^(0+128)
  4179  0DF3  0830               	movf	?___flmul^(0+128),w
  4180  0DF4  00DE               	movwf	_scale$820^(0+128)
  4181                           
  4182                           ;doprnt.c: 431: return _npowers_[scl/100+18] * _npowers_[(scl%100)/10+9] * _npowers_[scl
      +                          %10];
  4183  0DF5  300A               	movlw	10
  4184  0DF6  00A0               	movwf	___awmod@divisor^(0+128)
  4185  0DF7  3000               	movlw	0
  4186  0DF8  00A1               	movwf	(___awmod@divisor^(0+128)+1)
  4187  0DF9  0862               	movf	scale@scl^(0+128),w
  4188  0DFA  00A2               	movwf	___awmod@dividend^(0+128)
  4189  0DFB  01A3               	clrf	(___awmod@dividend+1)^(0+128)
  4190  0DFC  1BA2               	btfsc	___awmod@dividend^(0+128),7
  4191  0DFD  03A3               	decf	(___awmod@dividend+1)^(0+128),f
  4192  0DFE  319C  246E  318D   	fcall	___awmod
  4193  0E01  0021               	movlb	1	; select bank1
  4194  0E02  0821               	movf	(?___awmod+1)^(0+128),w
  4195  0E03  0085               	movwf	5
  4196  0E04  0820               	movf	?___awmod^(0+128),w
  4197  0E05  0084               	movwf	4
  4198  0E06  3584               	lslf	4,f
  4199  0E07  0D85               	rlf	5,f
  4200  0E08  3584               	lslf	4,f
  4201  0E09  0D85               	rlf	5,f
  4202  0E0A  3000               	movlw	low (__npowers_| (0+32768))
  4203  0E0B  0784               	addwf	4,f
  4204  0E0C  3098               	movlw	high (__npowers_| (0+32768))
  4205  0E0D  3D85               	addwfc	5,f
  4206  0E0E  3F00               	moviw [0]fsr0
  4207  0E0F  00CE               	movwf	??_scale^(0+128)
  4208  0E10  3F01               	moviw [1]fsr0
  4209  0E11  00CF               	movwf	(??_scale^(0+128)+1)
  4210  0E12  3F02               	moviw [2]fsr0
  4211  0E13  00D0               	movwf	(??_scale^(0+128)+2)
  4212  0E14  3F03               	moviw [3]fsr0
  4213  0E15  00D1               	movwf	(??_scale^(0+128)+3)
  4214  0E16  0851               	movf	(??_scale+3)^(0+128),w
  4215  0E17  00B3               	movwf	(___flmul@b+3)^(0+128)
  4216  0E18  0850               	movf	(??_scale+2)^(0+128),w
  4217  0E19  00B2               	movwf	(___flmul@b+2)^(0+128)
  4218  0E1A  084F               	movf	(??_scale+1)^(0+128),w
  4219  0E1B  00B1               	movwf	(___flmul@b+1)^(0+128)
  4220  0E1C  084E               	movf	??_scale^(0+128),w
  4221  0E1D  00B0               	movwf	___flmul@b^(0+128)
  4222  0E1E  0861               	movf	(_scale$820+3)^(0+128),w
  4223  0E1F  00B7               	movwf	(___flmul@a+3)^(0+128)
  4224  0E20  0860               	movf	(_scale$820+2)^(0+128),w
  4225  0E21  00B6               	movwf	(___flmul@a+2)^(0+128)
  4226  0E22  085F               	movf	(_scale$820+1)^(0+128),w
  4227  0E23  00B5               	movwf	(___flmul@a+1)^(0+128)
  4228  0E24  085E               	movf	_scale$820^(0+128),w
  4229  0E25  00B4               	movwf	___flmul@a^(0+128)
  4230  0E26  3188  20E4         	fcall	___flmul
  4231  0E28  0021               	movlb	1	; select bank1
  4232  0E29  0833               	movf	(?___flmul+3)^(0+128),w
  4233  0E2A  00CD               	movwf	(?_scale+3)^(0+128)
  4234  0E2B  0832               	movf	(?___flmul+2)^(0+128),w
  4235  0E2C  00CC               	movwf	(?_scale+2)^(0+128)
  4236  0E2D  0831               	movf	(?___flmul+1)^(0+128),w
  4237  0E2E  00CB               	movwf	(?_scale+1)^(0+128)
  4238  0E2F  0830               	movf	?___flmul^(0+128),w
  4239  0E30  00CA               	movwf	?_scale^(0+128)
  4240  0E31  0008               	return
  4241  0E32                     l3054:	
  4242                           
  4243                           ;doprnt.c: 432: else if(scl > 10)
  4244  0E32  0862               	movf	scale@scl^(0+128),w
  4245  0E33  3A80               	xorlw	128
  4246  0E34  3E75               	addlw	-139
  4247  0E35  1C03               	skipc
  4248  0E36  2E9D               	goto	l3060
  4249                           
  4250                           ;doprnt.c: 433: return _npowers_[scl/10+9] * _npowers_[scl%10];
  4251  0E37  300A               	movlw	10
  4252  0E38  00A0               	movwf	___awmod@divisor^(0+128)
  4253  0E39  3000               	movlw	0
  4254  0E3A  00A1               	movwf	(___awmod@divisor^(0+128)+1)
  4255  0E3B  0862               	movf	scale@scl^(0+128),w
  4256  0E3C  00A2               	movwf	___awmod@dividend^(0+128)
  4257  0E3D  01A3               	clrf	(___awmod@dividend+1)^(0+128)
  4258  0E3E  1BA2               	btfsc	___awmod@dividend^(0+128),7
  4259  0E3F  03A3               	decf	(___awmod@dividend+1)^(0+128),f
  4260  0E40  319C  246E  318D   	fcall	___awmod
  4261  0E43  0021               	movlb	1	; select bank1
  4262  0E44  0821               	movf	(?___awmod+1)^(0+128),w
  4263  0E45  0085               	movwf	5
  4264  0E46  0820               	movf	?___awmod^(0+128),w
  4265  0E47  0084               	movwf	4
  4266  0E48  3584               	lslf	4,f
  4267  0E49  0D85               	rlf	5,f
  4268  0E4A  3584               	lslf	4,f
  4269  0E4B  0D85               	rlf	5,f
  4270  0E4C  3000               	movlw	low (__npowers_| (0+32768))
  4271  0E4D  0784               	addwf	4,f
  4272  0E4E  3098               	movlw	high (__npowers_| (0+32768))
  4273  0E4F  3D85               	addwfc	5,f
  4274  0E50  3F00               	moviw [0]fsr0
  4275  0E51  00CE               	movwf	??_scale^(0+128)
  4276  0E52  3F01               	moviw [1]fsr0
  4277  0E53  00CF               	movwf	(??_scale^(0+128)+1)
  4278  0E54  3F02               	moviw [2]fsr0
  4279  0E55  00D0               	movwf	(??_scale^(0+128)+2)
  4280  0E56  3F03               	moviw [3]fsr0
  4281  0E57  00D1               	movwf	(??_scale^(0+128)+3)
  4282  0E58  0851               	movf	(??_scale+3)^(0+128),w
  4283  0E59  00B3               	movwf	(___flmul@b+3)^(0+128)
  4284  0E5A  0850               	movf	(??_scale+2)^(0+128),w
  4285  0E5B  00B2               	movwf	(___flmul@b+2)^(0+128)
  4286  0E5C  084F               	movf	(??_scale+1)^(0+128),w
  4287  0E5D  00B1               	movwf	(___flmul@b+1)^(0+128)
  4288  0E5E  084E               	movf	??_scale^(0+128),w
  4289  0E5F  00B0               	movwf	___flmul@b^(0+128)
  4290  0E60  300A               	movlw	10
  4291  0E61  00A7               	movwf	___awdiv@divisor^(0+128)
  4292  0E62  3000               	movlw	0
  4293  0E63  00A8               	movwf	(___awdiv@divisor^(0+128)+1)
  4294  0E64  0862               	movf	scale@scl^(0+128),w
  4295  0E65  00A9               	movwf	___awdiv@dividend^(0+128)
  4296  0E66  01AA               	clrf	(___awdiv@dividend+1)^(0+128)
  4297  0E67  1BA9               	btfsc	___awdiv@dividend^(0+128),7
  4298  0E68  03AA               	decf	(___awdiv@dividend+1)^(0+128),f
  4299  0E69  319C  24B4  318D   	fcall	___awdiv
  4300  0E6C  0021               	movlb	1	; select bank1
  4301  0E6D  0827               	movf	?___awdiv^(0+128),w
  4302  0E6E  00D2               	movwf	(??_scale+4)^(0+128)
  4303  0E6F  0828               	movf	(?___awdiv+1)^(0+128),w
  4304  0E70  00D3               	movwf	((??_scale+4)^(0+128)+1)
  4305  0E71  35D2               	lslf	(??_scale+4)^(0+128),f
  4306  0E72  0DD3               	rlf	((??_scale+4)^(0+128)+1),f
  4307  0E73  35D2               	lslf	(??_scale+4)^(0+128),f
  4308  0E74  0DD3               	rlf	((??_scale+4)^(0+128)+1),f
  4309  0E75  0852               	movf	(??_scale+4)^(0+128),w
  4310  0E76  3E24               	addlw	36
  4311  0E77  00D4               	movwf	(??_scale+6)^(0+128)
  4312  0E78  3000               	movlw	0
  4313  0E79  3D53               	addwfc	(??_scale+5)^(0+128),w
  4314  0E7A  00D5               	movwf	(??_scale+7)^(0+128)
  4315  0E7B  3000               	movlw	low (__npowers_| (0+32768))
  4316  0E7C  0754               	addwf	(??_scale+6)^(0+128),w
  4317  0E7D  0084               	movwf	4
  4318  0E7E  3098               	movlw	high (__npowers_| (0+32768))
  4319  0E7F  3D55               	addwfc	(??_scale+7)^(0+128),w
  4320  0E80  0085               	movwf	5
  4321  0E81  3F00               	moviw [0]fsr0
  4322  0E82  00D6               	movwf	(??_scale+8)^(0+128)
  4323  0E83  3F01               	moviw [1]fsr0
  4324  0E84  00D7               	movwf	((??_scale+8)^(0+128)+1)
  4325  0E85  3F02               	moviw [2]fsr0
  4326  0E86  00D8               	movwf	((??_scale+8)^(0+128)+2)
  4327  0E87  3F03               	moviw [3]fsr0
  4328  0E88  00D9               	movwf	((??_scale+8)^(0+128)+3)
  4329  0E89  0859               	movf	(??_scale+11)^(0+128),w
  4330  0E8A  00B7               	movwf	(___flmul@a+3)^(0+128)
  4331  0E8B  0858               	movf	(??_scale+10)^(0+128),w
  4332  0E8C  00B6               	movwf	(___flmul@a+2)^(0+128)
  4333  0E8D  0857               	movf	(??_scale+9)^(0+128),w
  4334  0E8E  00B5               	movwf	(___flmul@a+1)^(0+128)
  4335  0E8F  0856               	movf	(??_scale+8)^(0+128),w
  4336  0E90  00B4               	movwf	___flmul@a^(0+128)
  4337  0E91  3188  20E4         	fcall	___flmul
  4338  0E93  0021               	movlb	1	; select bank1
  4339  0E94  0833               	movf	(?___flmul+3)^(0+128),w
  4340  0E95  00CD               	movwf	(?_scale+3)^(0+128)
  4341  0E96  0832               	movf	(?___flmul+2)^(0+128),w
  4342  0E97  00CC               	movwf	(?_scale+2)^(0+128)
  4343  0E98  0831               	movf	(?___flmul+1)^(0+128),w
  4344  0E99  00CB               	movwf	(?_scale+1)^(0+128)
  4345  0E9A  0830               	movf	?___flmul^(0+128),w
  4346  0E9B  00CA               	movwf	?_scale^(0+128)
  4347  0E9C  0008               	return
  4348  0E9D                     l3060:	
  4349                           
  4350                           ;doprnt.c: 434: return _npowers_[scl];
  4351  0E9D  0862               	movf	scale@scl^(0+128),w
  4352  0E9E  00CE               	movwf	??_scale^(0+128)
  4353  0E9F  01CF               	clrf	(??_scale^(0+128)+1)
  4354  0EA0  35CE               	lslf	??_scale^(0+128),f
  4355  0EA1  0DCF               	rlf	(??_scale^(0+128)+1),f
  4356  0EA2  35CE               	lslf	??_scale^(0+128),f
  4357  0EA3  0DCF               	rlf	(??_scale^(0+128)+1),f
  4358  0EA4  3000               	movlw	low (__npowers_| (0+32768))
  4359  0EA5  074E               	addwf	??_scale^(0+128),w
  4360  0EA6  0084               	movwf	4
  4361  0EA7  3098               	movlw	high (__npowers_| (0+32768))
  4362  0EA8  3D4F               	addwfc	(??_scale+1)^(0+128),w
  4363  0EA9  0085               	movwf	5
  4364  0EAA  3F00               	moviw [0]fsr0
  4365  0EAB  00D0               	movwf	(??_scale+2)^(0+128)
  4366  0EAC  3F01               	moviw [1]fsr0
  4367  0EAD  00D1               	movwf	((??_scale+2)^(0+128)+1)
  4368  0EAE  3F02               	moviw [2]fsr0
  4369  0EAF  00D2               	movwf	((??_scale+2)^(0+128)+2)
  4370  0EB0  3F03               	moviw [3]fsr0
  4371  0EB1  00D3               	movwf	((??_scale+2)^(0+128)+3)
  4372  0EB2  0853               	movf	(??_scale+5)^(0+128),w
  4373  0EB3  00CD               	movwf	(?_scale+3)^(0+128)
  4374  0EB4  0852               	movf	(??_scale+4)^(0+128),w
  4375  0EB5  00CC               	movwf	(?_scale+2)^(0+128)
  4376  0EB6  0851               	movf	(??_scale+3)^(0+128),w
  4377  0EB7  00CB               	movwf	(?_scale+1)^(0+128)
  4378  0EB8  0850               	movf	(??_scale+2)^(0+128),w
  4379  0EB9  00CA               	movwf	?_scale^(0+128)
  4380  0EBA  0008               	return
  4381  0EBB                     l3064:	
  4382                           
  4383                           ;doprnt.c: 435: }
  4384                           ;doprnt.c: 436: if(scl>=110)
  4385  0EBB  0862               	movf	scale@scl^(0+128),w
  4386  0EBC  3A80               	xorlw	128
  4387  0EBD  3E12               	addlw	-238
  4388  0EBE  1C03               	skipc
  4389  0EBF  2F77               	goto	l3072
  4390                           
  4391                           ;doprnt.c: 437: return _powers_[scl/100+18] * _powers_[(scl%100)/10+9] * _powers_[scl%10
      +                          ];
  4392  0EC0  300A               	movlw	10
  4393  0EC1  00A7               	movwf	___awdiv@divisor^(0+128)
  4394  0EC2  3000               	movlw	0
  4395  0EC3  00A8               	movwf	(___awdiv@divisor^(0+128)+1)
  4396  0EC4  0862               	movf	scale@scl^(0+128),w
  4397  0EC5  00A2               	movwf	___awmod@dividend^(0+128)
  4398  0EC6  01A3               	clrf	(___awmod@dividend+1)^(0+128)
  4399  0EC7  1BA2               	btfsc	___awmod@dividend^(0+128),7
  4400  0EC8  03A3               	decf	(___awmod@dividend+1)^(0+128),f
  4401  0EC9  3064               	movlw	100
  4402  0ECA  00A0               	movwf	___awmod@divisor^(0+128)
  4403  0ECB  3000               	movlw	0
  4404  0ECC  00A1               	movwf	(___awmod@divisor^(0+128)+1)
  4405  0ECD  319C  246E  318D   	fcall	___awmod
  4406  0ED0  0021               	movlb	1	; select bank1
  4407  0ED1  0821               	movf	(?___awmod+1)^(0+128),w
  4408  0ED2  00AA               	movwf	(___awdiv@dividend+1)^(0+128)
  4409  0ED3  0820               	movf	?___awmod^(0+128),w
  4410  0ED4  00A9               	movwf	___awdiv@dividend^(0+128)
  4411  0ED5  319C  24B4  318D   	fcall	___awdiv
  4412  0ED8  0021               	movlb	1	; select bank1
  4413  0ED9  0827               	movf	?___awdiv^(0+128),w
  4414  0EDA  00CE               	movwf	??_scale^(0+128)
  4415  0EDB  0828               	movf	(?___awdiv+1)^(0+128),w
  4416  0EDC  00CF               	movwf	(??_scale^(0+128)+1)
  4417  0EDD  35CE               	lslf	??_scale^(0+128),f
  4418  0EDE  0DCF               	rlf	(??_scale^(0+128)+1),f
  4419  0EDF  35CE               	lslf	??_scale^(0+128),f
  4420  0EE0  0DCF               	rlf	(??_scale^(0+128)+1),f
  4421  0EE1  084E               	movf	??_scale^(0+128),w
  4422  0EE2  3E24               	addlw	36
  4423  0EE3  00D0               	movwf	(??_scale+2)^(0+128)
  4424  0EE4  3000               	movlw	0
  4425  0EE5  3D4F               	addwfc	(??_scale+1)^(0+128),w
  4426  0EE6  00D1               	movwf	(??_scale+3)^(0+128)
  4427  0EE7  3034               	movlw	low (__powers_| (0+32768))
  4428  0EE8  0750               	addwf	(??_scale+2)^(0+128),w
  4429  0EE9  0084               	movwf	4
  4430  0EEA  3098               	movlw	high (__powers_| (0+32768))
  4431  0EEB  3D51               	addwfc	(??_scale+3)^(0+128),w
  4432  0EEC  0085               	movwf	5
  4433  0EED  3F00               	moviw [0]fsr0
  4434  0EEE  00D2               	movwf	(??_scale+4)^(0+128)
  4435  0EEF  3F01               	moviw [1]fsr0
  4436  0EF0  00D3               	movwf	((??_scale+4)^(0+128)+1)
  4437  0EF1  3F02               	moviw [2]fsr0
  4438  0EF2  00D4               	movwf	((??_scale+4)^(0+128)+2)
  4439  0EF3  3F03               	moviw [3]fsr0
  4440  0EF4  00D5               	movwf	((??_scale+4)^(0+128)+3)
  4441  0EF5  0855               	movf	(??_scale+7)^(0+128),w
  4442  0EF6  00B3               	movwf	(___flmul@b+3)^(0+128)
  4443  0EF7  0854               	movf	(??_scale+6)^(0+128),w
  4444  0EF8  00B2               	movwf	(___flmul@b+2)^(0+128)
  4445  0EF9  0853               	movf	(??_scale+5)^(0+128),w
  4446  0EFA  00B1               	movwf	(___flmul@b+1)^(0+128)
  4447  0EFB  0852               	movf	(??_scale+4)^(0+128),w
  4448  0EFC  00B0               	movwf	___flmul@b^(0+128)
  4449  0EFD  3064               	movlw	100
  4450  0EFE  00A7               	movwf	___awdiv@divisor^(0+128)
  4451  0EFF  3000               	movlw	0
  4452  0F00  00A8               	movwf	(___awdiv@divisor^(0+128)+1)
  4453  0F01  0862               	movf	scale@scl^(0+128),w
  4454  0F02  00A9               	movwf	___awdiv@dividend^(0+128)
  4455  0F03  01AA               	clrf	(___awdiv@dividend+1)^(0+128)
  4456  0F04  1BA9               	btfsc	___awdiv@dividend^(0+128),7
  4457  0F05  03AA               	decf	(___awdiv@dividend+1)^(0+128),f
  4458  0F06  319C  24B4  318D   	fcall	___awdiv
  4459  0F09  0021               	movlb	1	; select bank1
  4460  0F0A  0827               	movf	?___awdiv^(0+128),w
  4461  0F0B  00D6               	movwf	(??_scale+8)^(0+128)
  4462  0F0C  0828               	movf	(?___awdiv+1)^(0+128),w
  4463  0F0D  00D7               	movwf	((??_scale+8)^(0+128)+1)
  4464  0F0E  35D6               	lslf	(??_scale+8)^(0+128),f
  4465  0F0F  0DD7               	rlf	((??_scale+8)^(0+128)+1),f
  4466  0F10  35D6               	lslf	(??_scale+8)^(0+128),f
  4467  0F11  0DD7               	rlf	((??_scale+8)^(0+128)+1),f
  4468  0F12  0856               	movf	(??_scale+8)^(0+128),w
  4469  0F13  3E48               	addlw	72
  4470  0F14  00D8               	movwf	(??_scale+10)^(0+128)
  4471  0F15  3000               	movlw	0
  4472  0F16  3D57               	addwfc	(??_scale+9)^(0+128),w
  4473  0F17  00D9               	movwf	(??_scale+11)^(0+128)
  4474  0F18  3034               	movlw	low (__powers_| (0+32768))
  4475  0F19  0758               	addwf	(??_scale+10)^(0+128),w
  4476  0F1A  0084               	movwf	4
  4477  0F1B  3098               	movlw	high (__powers_| (0+32768))
  4478  0F1C  3D59               	addwfc	(??_scale+11)^(0+128),w
  4479  0F1D  0085               	movwf	5
  4480  0F1E  3F00               	moviw [0]fsr0
  4481  0F1F  00DA               	movwf	(??_scale+12)^(0+128)
  4482  0F20  3F01               	moviw [1]fsr0
  4483  0F21  00DB               	movwf	((??_scale+12)^(0+128)+1)
  4484  0F22  3F02               	moviw [2]fsr0
  4485  0F23  00DC               	movwf	((??_scale+12)^(0+128)+2)
  4486  0F24  3F03               	moviw [3]fsr0
  4487  0F25  00DD               	movwf	((??_scale+12)^(0+128)+3)
  4488  0F26  085D               	movf	(??_scale+15)^(0+128),w
  4489  0F27  00B7               	movwf	(___flmul@a+3)^(0+128)
  4490  0F28  085C               	movf	(??_scale+14)^(0+128),w
  4491  0F29  00B6               	movwf	(___flmul@a+2)^(0+128)
  4492  0F2A  085B               	movf	(??_scale+13)^(0+128),w
  4493  0F2B  00B5               	movwf	(___flmul@a+1)^(0+128)
  4494  0F2C  085A               	movf	(??_scale+12)^(0+128),w
  4495  0F2D  00B4               	movwf	___flmul@a^(0+128)
  4496  0F2E  3188  20E4  318D   	fcall	___flmul
  4497  0F31  0021               	movlb	1	; select bank1
  4498  0F32  0833               	movf	(?___flmul+3)^(0+128),w
  4499  0F33  00E1               	movwf	(_scale$820+3)^(0+128)
  4500  0F34  0832               	movf	(?___flmul+2)^(0+128),w
  4501  0F35  00E0               	movwf	(_scale$820+2)^(0+128)
  4502  0F36  0831               	movf	(?___flmul+1)^(0+128),w
  4503  0F37  00DF               	movwf	(_scale$820+1)^(0+128)
  4504  0F38  0830               	movf	?___flmul^(0+128),w
  4505  0F39  00DE               	movwf	_scale$820^(0+128)
  4506                           
  4507                           ;doprnt.c: 437: return _powers_[scl/100+18] * _powers_[(scl%100)/10+9] * _powers_[scl%10
      +                          ];
  4508  0F3A  300A               	movlw	10
  4509  0F3B  00A0               	movwf	___awmod@divisor^(0+128)
  4510  0F3C  3000               	movlw	0
  4511  0F3D  00A1               	movwf	(___awmod@divisor^(0+128)+1)
  4512  0F3E  0862               	movf	scale@scl^(0+128),w
  4513  0F3F  00A2               	movwf	___awmod@dividend^(0+128)
  4514  0F40  01A3               	clrf	(___awmod@dividend+1)^(0+128)
  4515  0F41  1BA2               	btfsc	___awmod@dividend^(0+128),7
  4516  0F42  03A3               	decf	(___awmod@dividend+1)^(0+128),f
  4517  0F43  319C  246E  318D   	fcall	___awmod
  4518  0F46  0021               	movlb	1	; select bank1
  4519  0F47  0821               	movf	(?___awmod+1)^(0+128),w
  4520  0F48  0085               	movwf	5
  4521  0F49  0820               	movf	?___awmod^(0+128),w
  4522  0F4A  0084               	movwf	4
  4523  0F4B  3584               	lslf	4,f
  4524  0F4C  0D85               	rlf	5,f
  4525  0F4D  3584               	lslf	4,f
  4526  0F4E  0D85               	rlf	5,f
  4527  0F4F  3034               	movlw	low (__powers_| (0+32768))
  4528  0F50  0784               	addwf	4,f
  4529  0F51  3098               	movlw	high (__powers_| (0+32768))
  4530  0F52  3D85               	addwfc	5,f
  4531  0F53  3F00               	moviw [0]fsr0
  4532  0F54  00CE               	movwf	??_scale^(0+128)
  4533  0F55  3F01               	moviw [1]fsr0
  4534  0F56  00CF               	movwf	(??_scale^(0+128)+1)
  4535  0F57  3F02               	moviw [2]fsr0
  4536  0F58  00D0               	movwf	(??_scale^(0+128)+2)
  4537  0F59  3F03               	moviw [3]fsr0
  4538  0F5A  00D1               	movwf	(??_scale^(0+128)+3)
  4539  0F5B  0851               	movf	(??_scale+3)^(0+128),w
  4540  0F5C  00B3               	movwf	(___flmul@b+3)^(0+128)
  4541  0F5D  0850               	movf	(??_scale+2)^(0+128),w
  4542  0F5E  00B2               	movwf	(___flmul@b+2)^(0+128)
  4543  0F5F  084F               	movf	(??_scale+1)^(0+128),w
  4544  0F60  00B1               	movwf	(___flmul@b+1)^(0+128)
  4545  0F61  084E               	movf	??_scale^(0+128),w
  4546  0F62  00B0               	movwf	___flmul@b^(0+128)
  4547  0F63  0861               	movf	(_scale$820+3)^(0+128),w
  4548  0F64  00B7               	movwf	(___flmul@a+3)^(0+128)
  4549  0F65  0860               	movf	(_scale$820+2)^(0+128),w
  4550  0F66  00B6               	movwf	(___flmul@a+2)^(0+128)
  4551  0F67  085F               	movf	(_scale$820+1)^(0+128),w
  4552  0F68  00B5               	movwf	(___flmul@a+1)^(0+128)
  4553  0F69  085E               	movf	_scale$820^(0+128),w
  4554  0F6A  00B4               	movwf	___flmul@a^(0+128)
  4555  0F6B  3188  20E4         	fcall	___flmul
  4556  0F6D  0021               	movlb	1	; select bank1
  4557  0F6E  0833               	movf	(?___flmul+3)^(0+128),w
  4558  0F6F  00CD               	movwf	(?_scale+3)^(0+128)
  4559  0F70  0832               	movf	(?___flmul+2)^(0+128),w
  4560  0F71  00CC               	movwf	(?_scale+2)^(0+128)
  4561  0F72  0831               	movf	(?___flmul+1)^(0+128),w
  4562  0F73  00CB               	movwf	(?_scale+1)^(0+128)
  4563  0F74  0830               	movf	?___flmul^(0+128),w
  4564  0F75  00CA               	movwf	?_scale^(0+128)
  4565  0F76  0008               	return
  4566  0F77                     l3072:	
  4567                           
  4568                           ;doprnt.c: 438: else if(scl > 10)
  4569  0F77  0862               	movf	scale@scl^(0+128),w
  4570  0F78  3A80               	xorlw	128
  4571  0F79  3E75               	addlw	-139
  4572  0F7A  1C03               	skipc
  4573  0F7B  2FE2               	goto	l3078
  4574                           
  4575                           ;doprnt.c: 439: return _powers_[scl/10+9] * _powers_[scl%10];
  4576  0F7C  300A               	movlw	10
  4577  0F7D  00A0               	movwf	___awmod@divisor^(0+128)
  4578  0F7E  3000               	movlw	0
  4579  0F7F  00A1               	movwf	(___awmod@divisor^(0+128)+1)
  4580  0F80  0862               	movf	scale@scl^(0+128),w
  4581  0F81  00A2               	movwf	___awmod@dividend^(0+128)
  4582  0F82  01A3               	clrf	(___awmod@dividend+1)^(0+128)
  4583  0F83  1BA2               	btfsc	___awmod@dividend^(0+128),7
  4584  0F84  03A3               	decf	(___awmod@dividend+1)^(0+128),f
  4585  0F85  319C  246E  318D   	fcall	___awmod
  4586  0F88  0021               	movlb	1	; select bank1
  4587  0F89  0821               	movf	(?___awmod+1)^(0+128),w
  4588  0F8A  0085               	movwf	5
  4589  0F8B  0820               	movf	?___awmod^(0+128),w
  4590  0F8C  0084               	movwf	4
  4591  0F8D  3584               	lslf	4,f
  4592  0F8E  0D85               	rlf	5,f
  4593  0F8F  3584               	lslf	4,f
  4594  0F90  0D85               	rlf	5,f
  4595  0F91  3034               	movlw	low (__powers_| (0+32768))
  4596  0F92  0784               	addwf	4,f
  4597  0F93  3098               	movlw	high (__powers_| (0+32768))
  4598  0F94  3D85               	addwfc	5,f
  4599  0F95  3F00               	moviw [0]fsr0
  4600  0F96  00CE               	movwf	??_scale^(0+128)
  4601  0F97  3F01               	moviw [1]fsr0
  4602  0F98  00CF               	movwf	(??_scale^(0+128)+1)
  4603  0F99  3F02               	moviw [2]fsr0
  4604  0F9A  00D0               	movwf	(??_scale^(0+128)+2)
  4605  0F9B  3F03               	moviw [3]fsr0
  4606  0F9C  00D1               	movwf	(??_scale^(0+128)+3)
  4607  0F9D  0851               	movf	(??_scale+3)^(0+128),w
  4608  0F9E  00B3               	movwf	(___flmul@b+3)^(0+128)
  4609  0F9F  0850               	movf	(??_scale+2)^(0+128),w
  4610  0FA0  00B2               	movwf	(___flmul@b+2)^(0+128)
  4611  0FA1  084F               	movf	(??_scale+1)^(0+128),w
  4612  0FA2  00B1               	movwf	(___flmul@b+1)^(0+128)
  4613  0FA3  084E               	movf	??_scale^(0+128),w
  4614  0FA4  00B0               	movwf	___flmul@b^(0+128)
  4615  0FA5  300A               	movlw	10
  4616  0FA6  00A7               	movwf	___awdiv@divisor^(0+128)
  4617  0FA7  3000               	movlw	0
  4618  0FA8  00A8               	movwf	(___awdiv@divisor^(0+128)+1)
  4619  0FA9  0862               	movf	scale@scl^(0+128),w
  4620  0FAA  00A9               	movwf	___awdiv@dividend^(0+128)
  4621  0FAB  01AA               	clrf	(___awdiv@dividend+1)^(0+128)
  4622  0FAC  1BA9               	btfsc	___awdiv@dividend^(0+128),7
  4623  0FAD  03AA               	decf	(___awdiv@dividend+1)^(0+128),f
  4624  0FAE  319C  24B4  318D   	fcall	___awdiv
  4625  0FB1  0021               	movlb	1	; select bank1
  4626  0FB2  0827               	movf	?___awdiv^(0+128),w
  4627  0FB3  00D2               	movwf	(??_scale+4)^(0+128)
  4628  0FB4  0828               	movf	(?___awdiv+1)^(0+128),w
  4629  0FB5  00D3               	movwf	((??_scale+4)^(0+128)+1)
  4630  0FB6  35D2               	lslf	(??_scale+4)^(0+128),f
  4631  0FB7  0DD3               	rlf	((??_scale+4)^(0+128)+1),f
  4632  0FB8  35D2               	lslf	(??_scale+4)^(0+128),f
  4633  0FB9  0DD3               	rlf	((??_scale+4)^(0+128)+1),f
  4634  0FBA  0852               	movf	(??_scale+4)^(0+128),w
  4635  0FBB  3E24               	addlw	36
  4636  0FBC  00D4               	movwf	(??_scale+6)^(0+128)
  4637  0FBD  3000               	movlw	0
  4638  0FBE  3D53               	addwfc	(??_scale+5)^(0+128),w
  4639  0FBF  00D5               	movwf	(??_scale+7)^(0+128)
  4640  0FC0  3034               	movlw	low (__powers_| (0+32768))
  4641  0FC1  0754               	addwf	(??_scale+6)^(0+128),w
  4642  0FC2  0084               	movwf	4
  4643  0FC3  3098               	movlw	high (__powers_| (0+32768))
  4644  0FC4  3D55               	addwfc	(??_scale+7)^(0+128),w
  4645  0FC5  0085               	movwf	5
  4646  0FC6  3F00               	moviw [0]fsr0
  4647  0FC7  00D6               	movwf	(??_scale+8)^(0+128)
  4648  0FC8  3F01               	moviw [1]fsr0
  4649  0FC9  00D7               	movwf	((??_scale+8)^(0+128)+1)
  4650  0FCA  3F02               	moviw [2]fsr0
  4651  0FCB  00D8               	movwf	((??_scale+8)^(0+128)+2)
  4652  0FCC  3F03               	moviw [3]fsr0
  4653  0FCD  00D9               	movwf	((??_scale+8)^(0+128)+3)
  4654  0FCE  0859               	movf	(??_scale+11)^(0+128),w
  4655  0FCF  00B7               	movwf	(___flmul@a+3)^(0+128)
  4656  0FD0  0858               	movf	(??_scale+10)^(0+128),w
  4657  0FD1  00B6               	movwf	(___flmul@a+2)^(0+128)
  4658  0FD2  0857               	movf	(??_scale+9)^(0+128),w
  4659  0FD3  00B5               	movwf	(___flmul@a+1)^(0+128)
  4660  0FD4  0856               	movf	(??_scale+8)^(0+128),w
  4661  0FD5  00B4               	movwf	___flmul@a^(0+128)
  4662  0FD6  3188  20E4         	fcall	___flmul
  4663  0FD8  0021               	movlb	1	; select bank1
  4664  0FD9  0833               	movf	(?___flmul+3)^(0+128),w
  4665  0FDA  00CD               	movwf	(?_scale+3)^(0+128)
  4666  0FDB  0832               	movf	(?___flmul+2)^(0+128),w
  4667  0FDC  00CC               	movwf	(?_scale+2)^(0+128)
  4668  0FDD  0831               	movf	(?___flmul+1)^(0+128),w
  4669  0FDE  00CB               	movwf	(?_scale+1)^(0+128)
  4670  0FDF  0830               	movf	?___flmul^(0+128),w
  4671  0FE0  00CA               	movwf	?_scale^(0+128)
  4672  0FE1  0008               	return
  4673  0FE2                     l3078:	
  4674                           
  4675                           ;doprnt.c: 440: return _powers_[scl];
  4676  0FE2  0862               	movf	scale@scl^(0+128),w
  4677  0FE3  00CE               	movwf	??_scale^(0+128)
  4678  0FE4  01CF               	clrf	(??_scale^(0+128)+1)
  4679  0FE5  35CE               	lslf	??_scale^(0+128),f
  4680  0FE6  0DCF               	rlf	(??_scale^(0+128)+1),f
  4681  0FE7  35CE               	lslf	??_scale^(0+128),f
  4682  0FE8  0DCF               	rlf	(??_scale^(0+128)+1),f
  4683  0FE9  3034               	movlw	low (__powers_| (0+32768))
  4684  0FEA  074E               	addwf	??_scale^(0+128),w
  4685  0FEB  0084               	movwf	4
  4686  0FEC  3098               	movlw	high (__powers_| (0+32768))
  4687  0FED  3D4F               	addwfc	(??_scale+1)^(0+128),w
  4688  0FEE  0085               	movwf	5
  4689  0FEF  3F00               	moviw [0]fsr0
  4690  0FF0  00D0               	movwf	(??_scale+2)^(0+128)
  4691  0FF1  3F01               	moviw [1]fsr0
  4692  0FF2  00D1               	movwf	((??_scale+2)^(0+128)+1)
  4693  0FF3  3F02               	moviw [2]fsr0
  4694  0FF4  00D2               	movwf	((??_scale+2)^(0+128)+2)
  4695  0FF5  3F03               	moviw [3]fsr0
  4696  0FF6  00D3               	movwf	((??_scale+2)^(0+128)+3)
  4697  0FF7  0853               	movf	(??_scale+5)^(0+128),w
  4698  0FF8  00CD               	movwf	(?_scale+3)^(0+128)
  4699  0FF9  0852               	movf	(??_scale+4)^(0+128),w
  4700  0FFA  00CC               	movwf	(?_scale+2)^(0+128)
  4701  0FFB  0851               	movf	(??_scale+3)^(0+128),w
  4702  0FFC  00CB               	movwf	(?_scale+1)^(0+128)
  4703  0FFD  0850               	movf	(??_scale+2)^(0+128),w
  4704  0FFE  00CA               	movwf	?_scale^(0+128)
  4705  0FFF  0008               	return
  4706  1000                     __end_of_scale:	
  4707                           
  4708                           	psect	text3
  4709  1C05                     __ptext3:	
  4710 ;; *************** function _putch *****************
  4711 ;; Defined at:
  4712 ;;		line 184 in file "main.c"
  4713 ;; Parameters:    Size  Location     Type
  4714 ;;  byte            1    wreg     unsigned char 
  4715 ;; Auto vars:     Size  Location     Type
  4716 ;;  byte            1    0[BANK1 ] unsigned char 
  4717 ;; Return value:  Size  Location     Type
  4718 ;;                  1    wreg      void 
  4719 ;; Registers used:
  4720 ;;		wreg
  4721 ;; Tracked objects:
  4722 ;;		On entry : 0/0
  4723 ;;		On exit  : 0/0
  4724 ;;		Unchanged: 0/0
  4725 ;; Data sizes:     COMMON   BANK0   BANK1   BANK2   BANK3   BANK4   BANK5   BANK6   BANK7   BANK8   BANK9  BANK10  BANK1
      +1  BANK12
  4726 ;;      Params:         0       0       0       0       0       0       0       0       0       0       0       0       
      +0       0
  4727 ;;      Locals:         0       0       1       0       0       0       0       0       0       0       0       0       
      +0       0
  4728 ;;      Temps:          0       0       0       0       0       0       0       0       0       0       0       0       
      +0       0
  4729 ;;      Totals:         0       0       1       0       0       0       0       0       0       0       0       0       
      +0       0
  4730 ;;Total ram usage:        1 bytes
  4731 ;; Hardware stack levels used:    1
  4732 ;; Hardware stack levels required when called:    2
  4733 ;; This function calls:
  4734 ;;		Nothing
  4735 ;; This function is called by:
  4736 ;;		_main
  4737 ;;		_printf
  4738 ;; This function uses a non-reentrant model
  4739 ;;
  4740                           
  4741                           
  4742                           ;psect for function _putch
  4743  1C05                     _putch:	
  4744                           
  4745                           ;incstack = 0
  4746                           ; Regs used in _putch: [wreg]
  4747                           ;putch@byte stored from wreg
  4748  1C05  0021               	movlb	1	; select bank1
  4749  1C06  00A0               	movwf	putch@byte^(0+128)
  4750                           
  4751                           ;main.c: 186: TXREG = byte;
  4752  1C07  0820               	movf	putch@byte^(0+128),w
  4753  1C08  0023               	movlb	3	; select bank3
  4754  1C09  009A               	movwf	26	;volatile
  4755  1C0A                     l101:	
  4756                           ;main.c: 187: while(!TXIF) continue;
  4757                           
  4758  1C0A  0020               	movlb	0	; select bank0
  4759  1C0B  1E10               	btfss	16,4	;volatile
  4760  1C0C  2C0A               	goto	l101
  4761                           
  4762                           ;main.c: 188: TXIF=0;
  4763  1C0D  1210               	bcf	16,4	;volatile
  4764  1C0E  0008               	return
  4765  1C0F                     __end_of_putch:	
  4766                           
  4767                           	psect	text4
  4768  07F1                     __ptext4:	
  4769 ;; *************** function _isdigit *****************
  4770 ;; Defined at:
  4771 ;;		line 8 in file "/Applications/microchip/xc8/v1.37/sources/common/isdigit.c"
  4772 ;; Parameters:    Size  Location     Type
  4773 ;;  c               1    wreg     unsigned char 
  4774 ;; Auto vars:     Size  Location     Type
  4775 ;;  c               1    1[BANK1 ] unsigned char 
  4776 ;; Return value:  Size  Location     Type
  4777 ;;		None               void
  4778 ;; Registers used:
  4779 ;;		wreg, status,2, status,0
  4780 ;; Tracked objects:
  4781 ;;		On entry : 0/0
  4782 ;;		On exit  : 0/0
  4783 ;;		Unchanged: 0/0
  4784 ;; Data sizes:     COMMON   BANK0   BANK1   BANK2   BANK3   BANK4   BANK5   BANK6   BANK7   BANK8   BANK9  BANK10  BANK1
      +1  BANK12
  4785 ;;      Params:         0       0       0       0       0       0       0       0       0       0       0       0       
      +0       0
  4786 ;;      Locals:         0       0       2       0       0       0       0       0       0       0       0       0       
      +0       0
  4787 ;;      Temps:          0       0       0       0       0       0       0       0       0       0       0       0       
      +0       0
  4788 ;;      Totals:         0       0       2       0       0       0       0       0       0       0       0       0       
      +0       0
  4789 ;;Total ram usage:        2 bytes
  4790 ;; Hardware stack levels used:    1
  4791 ;; Hardware stack levels required when called:    2
  4792 ;; This function calls:
  4793 ;;		Nothing
  4794 ;; This function is called by:
  4795 ;;		_printf
  4796 ;; This function uses a non-reentrant model
  4797 ;;
  4798                           
  4799                           
  4800                           ;psect for function _isdigit
  4801  07F1                     _isdigit:	
  4802                           
  4803                           ;incstack = 0
  4804                           ; Regs used in _isdigit: [wreg+status,2+status,0]
  4805                           ;isdigit@c stored from wreg
  4806  07F1  0021               	movlb	1	; select bank1
  4807  07F2  00A1               	movwf	isdigit@c^(0+128)
  4808  07F3  01A0               	clrf	_isdigit$490^(0+128)
  4809  07F4  303A               	movlw	58
  4810  07F5  0221               	subwf	isdigit@c^(0+128),w
  4811  07F6  1803               	skipnc
  4812  07F7  2FFE               	goto	l3090
  4813  07F8  3030               	movlw	48
  4814  07F9  0221               	subwf	isdigit@c^(0+128),w
  4815  07FA  1C03               	skipc
  4816  07FB  2FFE               	goto	l3090
  4817  07FC  01A0               	clrf	_isdigit$490^(0+128)
  4818  07FD  0AA0               	incf	_isdigit$490^(0+128),f
  4819  07FE                     l3090:	
  4820  07FE  0C20               	rrf	_isdigit$490^(0+128),w
  4821  07FF  0008               	return
  4822  0800                     __end_of_isdigit:	
  4823                           
  4824                           	psect	text5
  4825  146A                     __ptext5:	
  4826 ;; *************** function _fround *****************
  4827 ;; Defined at:
  4828 ;;		line 409 in file "/Applications/microchip/xc8/v1.37/sources/common/doprnt.c"
  4829 ;; Parameters:    Size  Location     Type
  4830 ;;  prec            1    wreg     unsigned char 
  4831 ;; Auto vars:     Size  Location     Type
  4832 ;;  prec            1   74[BANK1 ] unsigned char 
  4833 ;; Return value:  Size  Location     Type
  4834 ;;                  4   42[BANK1 ] unsigned char 
  4835 ;; Registers used:
  4836 ;;		wreg, fsr0l, fsr0h, status,2, status,0, pclath, cstack
  4837 ;; Tracked objects:
  4838 ;;		On entry : 0/0
  4839 ;;		On exit  : 0/0
  4840 ;;		Unchanged: 0/0
  4841 ;; Data sizes:     COMMON   BANK0   BANK1   BANK2   BANK3   BANK4   BANK5   BANK6   BANK7   BANK8   BANK9  BANK10  BANK1
      +1  BANK12
  4842 ;;      Params:         0       0       4       0       0       0       0       0       0       0       0       0       
      +0       0
  4843 ;;      Locals:         0       0       9       0       0       0       0       0       0       0       0       0       
      +0       0
  4844 ;;      Temps:          0       0      20       0       0       0       0       0       0       0       0       0       
      +0       0
  4845 ;;      Totals:         0       0      33       0       0       0       0       0       0       0       0       0       
      +0       0
  4846 ;;Total ram usage:       33 bytes
  4847 ;; Hardware stack levels used:    1
  4848 ;; Hardware stack levels required when called:    4
  4849 ;; This function calls:
  4850 ;;		___awdiv
  4851 ;;		___awmod
  4852 ;;		___flmul
  4853 ;; This function is called by:
  4854 ;;		_printf
  4855 ;; This function uses a non-reentrant model
  4856 ;;
  4857                           
  4858                           
  4859                           ;psect for function _fround
  4860  146A                     _fround:	
  4861                           
  4862                           ;incstack = 0
  4863                           ; Regs used in _fround: [wreg-fsr0h+status,2+status,0+pclath+cstack]
  4864                           ;fround@prec stored from wreg
  4865  146A  0021               	movlb	1	; select bank1
  4866  146B  00EA               	movwf	fround@prec^(0+128)
  4867                           
  4868                           ;doprnt.c: 413: if(prec>=110)
  4869  146C  306E               	movlw	110
  4870  146D  026A               	subwf	fround@prec^(0+128),w
  4871  146E  1C03               	skipc
  4872  146F  2D49               	goto	l3030
  4873                           
  4874                           ;doprnt.c: 414: return 0.5 * _npowers_[prec/100+18] * _npowers_[(prec%100)/10+9] * _npow
      +                          ers_[prec%10];
  4875  1470  300A               	movlw	10
  4876  1471  00A7               	movwf	___awdiv@divisor^(0+128)
  4877  1472  3000               	movlw	0
  4878  1473  00A8               	movwf	(___awdiv@divisor^(0+128)+1)
  4879  1474  086A               	movf	fround@prec^(0+128),w
  4880  1475  00CE               	movwf	??_fround^(0+128)
  4881  1476  01CF               	clrf	(??_fround^(0+128)+1)
  4882  1477  084E               	movf	??_fround^(0+128),w
  4883  1478  00A2               	movwf	___awmod@dividend^(0+128)
  4884  1479  084F               	movf	(??_fround+1)^(0+128),w
  4885  147A  00A3               	movwf	(___awmod@dividend+1)^(0+128)
  4886  147B  3064               	movlw	100
  4887  147C  00A0               	movwf	___awmod@divisor^(0+128)
  4888  147D  3000               	movlw	0
  4889  147E  00A1               	movwf	(___awmod@divisor^(0+128)+1)
  4890  147F  319C  246E  3194   	fcall	___awmod
  4891  1482  0021               	movlb	1	; select bank1
  4892  1483  0821               	movf	(?___awmod+1)^(0+128),w
  4893  1484  00AA               	movwf	(___awdiv@dividend+1)^(0+128)
  4894  1485  0820               	movf	?___awmod^(0+128),w
  4895  1486  00A9               	movwf	___awdiv@dividend^(0+128)
  4896  1487  319C  24B4  3194   	fcall	___awdiv
  4897  148A  0021               	movlb	1	; select bank1
  4898  148B  0827               	movf	?___awdiv^(0+128),w
  4899  148C  00D0               	movwf	(??_fround+2)^(0+128)
  4900  148D  0828               	movf	(?___awdiv+1)^(0+128),w
  4901  148E  00D1               	movwf	((??_fround+2)^(0+128)+1)
  4902  148F  35D0               	lslf	(??_fround+2)^(0+128),f
  4903  1490  0DD1               	rlf	((??_fround+2)^(0+128)+1),f
  4904  1491  35D0               	lslf	(??_fround+2)^(0+128),f
  4905  1492  0DD1               	rlf	((??_fround+2)^(0+128)+1),f
  4906  1493  0850               	movf	(??_fround+2)^(0+128),w
  4907  1494  3E24               	addlw	36
  4908  1495  00D2               	movwf	(??_fround+4)^(0+128)
  4909  1496  3000               	movlw	0
  4910  1497  3D51               	addwfc	(??_fround+3)^(0+128),w
  4911  1498  00D3               	movwf	(??_fround+5)^(0+128)
  4912  1499  3000               	movlw	low (__npowers_| (0+32768))
  4913  149A  0752               	addwf	(??_fround+4)^(0+128),w
  4914  149B  0084               	movwf	4
  4915  149C  3098               	movlw	high (__npowers_| (0+32768))
  4916  149D  3D53               	addwfc	(??_fround+5)^(0+128),w
  4917  149E  0085               	movwf	5
  4918  149F  3F00               	moviw [0]fsr0
  4919  14A0  00D4               	movwf	(??_fround+6)^(0+128)
  4920  14A1  3F01               	moviw [1]fsr0
  4921  14A2  00D5               	movwf	((??_fround+6)^(0+128)+1)
  4922  14A3  3F02               	moviw [2]fsr0
  4923  14A4  00D6               	movwf	((??_fround+6)^(0+128)+2)
  4924  14A5  3F03               	moviw [3]fsr0
  4925  14A6  00D7               	movwf	((??_fround+6)^(0+128)+3)
  4926  14A7  0857               	movf	(??_fround+9)^(0+128),w
  4927  14A8  00B3               	movwf	(___flmul@b+3)^(0+128)
  4928  14A9  0856               	movf	(??_fround+8)^(0+128),w
  4929  14AA  00B2               	movwf	(___flmul@b+2)^(0+128)
  4930  14AB  0855               	movf	(??_fround+7)^(0+128),w
  4931  14AC  00B1               	movwf	(___flmul@b+1)^(0+128)
  4932  14AD  0854               	movf	(??_fround+6)^(0+128),w
  4933  14AE  00B0               	movwf	___flmul@b^(0+128)
  4934  14AF  3064               	movlw	100
  4935  14B0  00A7               	movwf	___awdiv@divisor^(0+128)
  4936  14B1  3000               	movlw	0
  4937  14B2  00A8               	movwf	(___awdiv@divisor^(0+128)+1)
  4938  14B3  086A               	movf	fround@prec^(0+128),w
  4939  14B4  00D8               	movwf	(??_fround+10)^(0+128)
  4940  14B5  01D9               	clrf	((??_fround+10)^(0+128)+1)
  4941  14B6  0858               	movf	(??_fround+10)^(0+128),w
  4942  14B7  00A9               	movwf	___awdiv@dividend^(0+128)
  4943  14B8  0859               	movf	(??_fround+11)^(0+128),w
  4944  14B9  00AA               	movwf	(___awdiv@dividend+1)^(0+128)
  4945  14BA  319C  24B4  3194   	fcall	___awdiv
  4946  14BD  0021               	movlb	1	; select bank1
  4947  14BE  0827               	movf	?___awdiv^(0+128),w
  4948  14BF  00DA               	movwf	(??_fround+12)^(0+128)
  4949  14C0  0828               	movf	(?___awdiv+1)^(0+128),w
  4950  14C1  00DB               	movwf	((??_fround+12)^(0+128)+1)
  4951  14C2  35DA               	lslf	(??_fround+12)^(0+128),f
  4952  14C3  0DDB               	rlf	((??_fround+12)^(0+128)+1),f
  4953  14C4  35DA               	lslf	(??_fround+12)^(0+128),f
  4954  14C5  0DDB               	rlf	((??_fround+12)^(0+128)+1),f
  4955  14C6  085A               	movf	(??_fround+12)^(0+128),w
  4956  14C7  3E48               	addlw	72
  4957  14C8  00DC               	movwf	(??_fround+14)^(0+128)
  4958  14C9  3000               	movlw	0
  4959  14CA  3D5B               	addwfc	(??_fround+13)^(0+128),w
  4960  14CB  00DD               	movwf	(??_fround+15)^(0+128)
  4961  14CC  3000               	movlw	low (__npowers_| (0+32768))
  4962  14CD  075C               	addwf	(??_fround+14)^(0+128),w
  4963  14CE  0084               	movwf	4
  4964  14CF  3098               	movlw	high (__npowers_| (0+32768))
  4965  14D0  3D5D               	addwfc	(??_fround+15)^(0+128),w
  4966  14D1  0085               	movwf	5
  4967  14D2  3F00               	moviw [0]fsr0
  4968  14D3  00DE               	movwf	(??_fround+16)^(0+128)
  4969  14D4  3F01               	moviw [1]fsr0
  4970  14D5  00DF               	movwf	((??_fround+16)^(0+128)+1)
  4971  14D6  3F02               	moviw [2]fsr0
  4972  14D7  00E0               	movwf	((??_fround+16)^(0+128)+2)
  4973  14D8  3F03               	moviw [3]fsr0
  4974  14D9  00E1               	movwf	((??_fround+16)^(0+128)+3)
  4975  14DA  0861               	movf	(??_fround+19)^(0+128),w
  4976  14DB  00B7               	movwf	(___flmul@a+3)^(0+128)
  4977  14DC  0860               	movf	(??_fround+18)^(0+128),w
  4978  14DD  00B6               	movwf	(___flmul@a+2)^(0+128)
  4979  14DE  085F               	movf	(??_fround+17)^(0+128),w
  4980  14DF  00B5               	movwf	(___flmul@a+1)^(0+128)
  4981  14E0  085E               	movf	(??_fround+16)^(0+128),w
  4982  14E1  00B4               	movwf	___flmul@a^(0+128)
  4983  14E2  3188  20E4  3194   	fcall	___flmul
  4984  14E5  0021               	movlb	1	; select bank1
  4985  14E6  0833               	movf	(?___flmul+3)^(0+128),w
  4986  14E7  00E9               	movwf	(_fround$818+3)^(0+128)
  4987  14E8  0832               	movf	(?___flmul+2)^(0+128),w
  4988  14E9  00E8               	movwf	(_fround$818+2)^(0+128)
  4989  14EA  0831               	movf	(?___flmul+1)^(0+128),w
  4990  14EB  00E7               	movwf	(_fround$818+1)^(0+128)
  4991  14EC  0830               	movf	?___flmul^(0+128),w
  4992  14ED  00E6               	movwf	_fround$818^(0+128)
  4993                           
  4994                           ;doprnt.c: 414: return 0.5 * _npowers_[prec/100+18] * _npowers_[(prec%100)/10+9] * _npow
      +                          ers_[prec%10];
  4995  14EE  300A               	movlw	10
  4996  14EF  00A0               	movwf	___awmod@divisor^(0+128)
  4997  14F0  3000               	movlw	0
  4998  14F1  00A1               	movwf	(___awmod@divisor^(0+128)+1)
  4999  14F2  086A               	movf	fround@prec^(0+128),w
  5000  14F3  00CE               	movwf	??_fround^(0+128)
  5001  14F4  01CF               	clrf	(??_fround^(0+128)+1)
  5002  14F5  084E               	movf	??_fround^(0+128),w
  5003  14F6  00A2               	movwf	___awmod@dividend^(0+128)
  5004  14F7  084F               	movf	(??_fround+1)^(0+128),w
  5005  14F8  00A3               	movwf	(___awmod@dividend+1)^(0+128)
  5006  14F9  319C  246E  3194   	fcall	___awmod
  5007  14FC  0021               	movlb	1	; select bank1
  5008  14FD  0821               	movf	(?___awmod+1)^(0+128),w
  5009  14FE  0085               	movwf	5
  5010  14FF  0820               	movf	?___awmod^(0+128),w
  5011  1500  0084               	movwf	4
  5012  1501  3584               	lslf	4,f
  5013  1502  0D85               	rlf	5,f
  5014  1503  3584               	lslf	4,f
  5015  1504  0D85               	rlf	5,f
  5016  1505  3000               	movlw	low (__npowers_| (0+32768))
  5017  1506  0784               	addwf	4,f
  5018  1507  3098               	movlw	high (__npowers_| (0+32768))
  5019  1508  3D85               	addwfc	5,f
  5020  1509  3F00               	moviw [0]fsr0
  5021  150A  00D0               	movwf	(??_fround+2)^(0+128)
  5022  150B  3F01               	moviw [1]fsr0
  5023  150C  00D1               	movwf	((??_fround+2)^(0+128)+1)
  5024  150D  3F02               	moviw [2]fsr0
  5025  150E  00D2               	movwf	((??_fround+2)^(0+128)+2)
  5026  150F  3F03               	moviw [3]fsr0
  5027  1510  00D3               	movwf	((??_fround+2)^(0+128)+3)
  5028  1511  0853               	movf	(??_fround+5)^(0+128),w
  5029  1512  00B3               	movwf	(___flmul@b+3)^(0+128)
  5030  1513  0852               	movf	(??_fround+4)^(0+128),w
  5031  1514  00B2               	movwf	(___flmul@b+2)^(0+128)
  5032  1515  0851               	movf	(??_fround+3)^(0+128),w
  5033  1516  00B1               	movwf	(___flmul@b+1)^(0+128)
  5034  1517  0850               	movf	(??_fround+2)^(0+128),w
  5035  1518  00B0               	movwf	___flmul@b^(0+128)
  5036  1519  0869               	movf	(_fround$818+3)^(0+128),w
  5037  151A  00B7               	movwf	(___flmul@a+3)^(0+128)
  5038  151B  0868               	movf	(_fround$818+2)^(0+128),w
  5039  151C  00B6               	movwf	(___flmul@a+2)^(0+128)
  5040  151D  0867               	movf	(_fround$818+1)^(0+128),w
  5041  151E  00B5               	movwf	(___flmul@a+1)^(0+128)
  5042  151F  0866               	movf	_fround$818^(0+128),w
  5043  1520  00B4               	movwf	___flmul@a^(0+128)
  5044  1521  3188  20E4  3194   	fcall	___flmul
  5045  1524  0021               	movlb	1	; select bank1
  5046  1525  0833               	movf	(?___flmul+3)^(0+128),w
  5047  1526  00E5               	movwf	(_fround$819+3)^(0+128)
  5048  1527  0832               	movf	(?___flmul+2)^(0+128),w
  5049  1528  00E4               	movwf	(_fround$819+2)^(0+128)
  5050  1529  0831               	movf	(?___flmul+1)^(0+128),w
  5051  152A  00E3               	movwf	(_fround$819+1)^(0+128)
  5052  152B  0830               	movf	?___flmul^(0+128),w
  5053  152C  00E2               	movwf	_fround$819^(0+128)
  5054                           
  5055                           ;doprnt.c: 414: return 0.5 * _npowers_[prec/100+18] * _npowers_[(prec%100)/10+9] * _npow
      +                          ers_[prec%10];
  5056  152D  303F               	movlw	63
  5057  152E  00B3               	movwf	(___flmul@b+3)^(0+128)
  5058  152F  3000               	movlw	0
  5059  1530  00B2               	movwf	(___flmul@b+2)^(0+128)
  5060  1531  3000               	movlw	0
  5061  1532  00B1               	movwf	(___flmul@b+1)^(0+128)
  5062  1533  3000               	movlw	0
  5063  1534  00B0               	movwf	___flmul@b^(0+128)
  5064  1535  0865               	movf	(_fround$819+3)^(0+128),w
  5065  1536  00B7               	movwf	(___flmul@a+3)^(0+128)
  5066  1537  0864               	movf	(_fround$819+2)^(0+128),w
  5067  1538  00B6               	movwf	(___flmul@a+2)^(0+128)
  5068  1539  0863               	movf	(_fround$819+1)^(0+128),w
  5069  153A  00B5               	movwf	(___flmul@a+1)^(0+128)
  5070  153B  0862               	movf	_fround$819^(0+128),w
  5071  153C  00B4               	movwf	___flmul@a^(0+128)
  5072  153D  3188  20E4         	fcall	___flmul
  5073  153F  0021               	movlb	1	; select bank1
  5074  1540  0833               	movf	(?___flmul+3)^(0+128),w
  5075  1541  00CD               	movwf	(?_fround+3)^(0+128)
  5076  1542  0832               	movf	(?___flmul+2)^(0+128),w
  5077  1543  00CC               	movwf	(?_fround+2)^(0+128)
  5078  1544  0831               	movf	(?___flmul+1)^(0+128),w
  5079  1545  00CB               	movwf	(?_fround+1)^(0+128)
  5080  1546  0830               	movf	?___flmul^(0+128),w
  5081  1547  00CA               	movwf	?_fround^(0+128)
  5082  1548  0008               	return
  5083  1549                     l3030:	
  5084                           
  5085                           ;doprnt.c: 415: else if(prec > 10)
  5086  1549  300B               	movlw	11
  5087  154A  026A               	subwf	fround@prec^(0+128),w
  5088  154B  1C03               	skipc
  5089  154C  2DD3               	goto	l3038
  5090                           
  5091                           ;doprnt.c: 416: return 0.5 * _npowers_[prec/10+9] * _npowers_[prec%10];
  5092  154D  300A               	movlw	10
  5093  154E  00A0               	movwf	___awmod@divisor^(0+128)
  5094  154F  3000               	movlw	0
  5095  1550  00A1               	movwf	(___awmod@divisor^(0+128)+1)
  5096  1551  086A               	movf	fround@prec^(0+128),w
  5097  1552  00CE               	movwf	??_fround^(0+128)
  5098  1553  01CF               	clrf	(??_fround^(0+128)+1)
  5099  1554  084E               	movf	??_fround^(0+128),w
  5100  1555  00A2               	movwf	___awmod@dividend^(0+128)
  5101  1556  084F               	movf	(??_fround+1)^(0+128),w
  5102  1557  00A3               	movwf	(___awmod@dividend+1)^(0+128)
  5103  1558  319C  246E  3194   	fcall	___awmod
  5104  155B  0021               	movlb	1	; select bank1
  5105  155C  0821               	movf	(?___awmod+1)^(0+128),w
  5106  155D  0085               	movwf	5
  5107  155E  0820               	movf	?___awmod^(0+128),w
  5108  155F  0084               	movwf	4
  5109  1560  3584               	lslf	4,f
  5110  1561  0D85               	rlf	5,f
  5111  1562  3584               	lslf	4,f
  5112  1563  0D85               	rlf	5,f
  5113  1564  3000               	movlw	low (__npowers_| (0+32768))
  5114  1565  0784               	addwf	4,f
  5115  1566  3098               	movlw	high (__npowers_| (0+32768))
  5116  1567  3D85               	addwfc	5,f
  5117  1568  3F00               	moviw [0]fsr0
  5118  1569  00D0               	movwf	(??_fround+2)^(0+128)
  5119  156A  3F01               	moviw [1]fsr0
  5120  156B  00D1               	movwf	((??_fround+2)^(0+128)+1)
  5121  156C  3F02               	moviw [2]fsr0
  5122  156D  00D2               	movwf	((??_fround+2)^(0+128)+2)
  5123  156E  3F03               	moviw [3]fsr0
  5124  156F  00D3               	movwf	((??_fround+2)^(0+128)+3)
  5125  1570  0853               	movf	(??_fround+5)^(0+128),w
  5126  1571  00B3               	movwf	(___flmul@b+3)^(0+128)
  5127  1572  0852               	movf	(??_fround+4)^(0+128),w
  5128  1573  00B2               	movwf	(___flmul@b+2)^(0+128)
  5129  1574  0851               	movf	(??_fround+3)^(0+128),w
  5130  1575  00B1               	movwf	(___flmul@b+1)^(0+128)
  5131  1576  0850               	movf	(??_fround+2)^(0+128),w
  5132  1577  00B0               	movwf	___flmul@b^(0+128)
  5133  1578  300A               	movlw	10
  5134  1579  00A7               	movwf	___awdiv@divisor^(0+128)
  5135  157A  3000               	movlw	0
  5136  157B  00A8               	movwf	(___awdiv@divisor^(0+128)+1)
  5137  157C  086A               	movf	fround@prec^(0+128),w
  5138  157D  00D4               	movwf	(??_fround+6)^(0+128)
  5139  157E  01D5               	clrf	((??_fround+6)^(0+128)+1)
  5140  157F  0854               	movf	(??_fround+6)^(0+128),w
  5141  1580  00A9               	movwf	___awdiv@dividend^(0+128)
  5142  1581  0855               	movf	(??_fround+7)^(0+128),w
  5143  1582  00AA               	movwf	(___awdiv@dividend+1)^(0+128)
  5144  1583  319C  24B4  3194   	fcall	___awdiv
  5145  1586  0021               	movlb	1	; select bank1
  5146  1587  0827               	movf	?___awdiv^(0+128),w
  5147  1588  00D6               	movwf	(??_fround+8)^(0+128)
  5148  1589  0828               	movf	(?___awdiv+1)^(0+128),w
  5149  158A  00D7               	movwf	((??_fround+8)^(0+128)+1)
  5150  158B  35D6               	lslf	(??_fround+8)^(0+128),f
  5151  158C  0DD7               	rlf	((??_fround+8)^(0+128)+1),f
  5152  158D  35D6               	lslf	(??_fround+8)^(0+128),f
  5153  158E  0DD7               	rlf	((??_fround+8)^(0+128)+1),f
  5154  158F  0856               	movf	(??_fround+8)^(0+128),w
  5155  1590  3E24               	addlw	36
  5156  1591  00D8               	movwf	(??_fround+10)^(0+128)
  5157  1592  3000               	movlw	0
  5158  1593  3D57               	addwfc	(??_fround+9)^(0+128),w
  5159  1594  00D9               	movwf	(??_fround+11)^(0+128)
  5160  1595  3000               	movlw	low (__npowers_| (0+32768))
  5161  1596  0758               	addwf	(??_fround+10)^(0+128),w
  5162  1597  0084               	movwf	4
  5163  1598  3098               	movlw	high (__npowers_| (0+32768))
  5164  1599  3D59               	addwfc	(??_fround+11)^(0+128),w
  5165  159A  0085               	movwf	5
  5166  159B  3F00               	moviw [0]fsr0
  5167  159C  00DA               	movwf	(??_fround+12)^(0+128)
  5168  159D  3F01               	moviw [1]fsr0
  5169  159E  00DB               	movwf	((??_fround+12)^(0+128)+1)
  5170  159F  3F02               	moviw [2]fsr0
  5171  15A0  00DC               	movwf	((??_fround+12)^(0+128)+2)
  5172  15A1  3F03               	moviw [3]fsr0
  5173  15A2  00DD               	movwf	((??_fround+12)^(0+128)+3)
  5174  15A3  085D               	movf	(??_fround+15)^(0+128),w
  5175  15A4  00B7               	movwf	(___flmul@a+3)^(0+128)
  5176  15A5  085C               	movf	(??_fround+14)^(0+128),w
  5177  15A6  00B6               	movwf	(___flmul@a+2)^(0+128)
  5178  15A7  085B               	movf	(??_fround+13)^(0+128),w
  5179  15A8  00B5               	movwf	(___flmul@a+1)^(0+128)
  5180  15A9  085A               	movf	(??_fround+12)^(0+128),w
  5181  15AA  00B4               	movwf	___flmul@a^(0+128)
  5182  15AB  3188  20E4  3194   	fcall	___flmul
  5183  15AE  0021               	movlb	1	; select bank1
  5184  15AF  0833               	movf	(?___flmul+3)^(0+128),w
  5185  15B0  00E9               	movwf	(_fround$818+3)^(0+128)
  5186  15B1  0832               	movf	(?___flmul+2)^(0+128),w
  5187  15B2  00E8               	movwf	(_fround$818+2)^(0+128)
  5188  15B3  0831               	movf	(?___flmul+1)^(0+128),w
  5189  15B4  00E7               	movwf	(_fround$818+1)^(0+128)
  5190  15B5  0830               	movf	?___flmul^(0+128),w
  5191  15B6  00E6               	movwf	_fround$818^(0+128)
  5192                           
  5193                           ;doprnt.c: 416: return 0.5 * _npowers_[prec/10+9] * _npowers_[prec%10];
  5194  15B7  303F               	movlw	63
  5195  15B8  00B3               	movwf	(___flmul@b+3)^(0+128)
  5196  15B9  3000               	movlw	0
  5197  15BA  00B2               	movwf	(___flmul@b+2)^(0+128)
  5198  15BB  3000               	movlw	0
  5199  15BC  00B1               	movwf	(___flmul@b+1)^(0+128)
  5200  15BD  3000               	movlw	0
  5201  15BE  00B0               	movwf	___flmul@b^(0+128)
  5202  15BF  0869               	movf	(_fround$818+3)^(0+128),w
  5203  15C0  00B7               	movwf	(___flmul@a+3)^(0+128)
  5204  15C1  0868               	movf	(_fround$818+2)^(0+128),w
  5205  15C2  00B6               	movwf	(___flmul@a+2)^(0+128)
  5206  15C3  0867               	movf	(_fround$818+1)^(0+128),w
  5207  15C4  00B5               	movwf	(___flmul@a+1)^(0+128)
  5208  15C5  0866               	movf	_fround$818^(0+128),w
  5209  15C6  00B4               	movwf	___flmul@a^(0+128)
  5210  15C7  3188  20E4         	fcall	___flmul
  5211  15C9  0021               	movlb	1	; select bank1
  5212  15CA  0833               	movf	(?___flmul+3)^(0+128),w
  5213  15CB  00CD               	movwf	(?_fround+3)^(0+128)
  5214  15CC  0832               	movf	(?___flmul+2)^(0+128),w
  5215  15CD  00CC               	movwf	(?_fround+2)^(0+128)
  5216  15CE  0831               	movf	(?___flmul+1)^(0+128),w
  5217  15CF  00CB               	movwf	(?_fround+1)^(0+128)
  5218  15D0  0830               	movf	?___flmul^(0+128),w
  5219  15D1  00CA               	movwf	?_fround^(0+128)
  5220  15D2  0008               	return
  5221  15D3                     l3038:	
  5222                           
  5223                           ;doprnt.c: 417: return 0.5 * _npowers_[prec];
  5224  15D3  303F               	movlw	63
  5225  15D4  00B3               	movwf	(___flmul@b+3)^(0+128)
  5226  15D5  3000               	movlw	0
  5227  15D6  00B2               	movwf	(___flmul@b+2)^(0+128)
  5228  15D7  3000               	movlw	0
  5229  15D8  00B1               	movwf	(___flmul@b+1)^(0+128)
  5230  15D9  3000               	movlw	0
  5231  15DA  00B0               	movwf	___flmul@b^(0+128)
  5232  15DB  086A               	movf	fround@prec^(0+128),w
  5233  15DC  00CE               	movwf	??_fround^(0+128)
  5234  15DD  01CF               	clrf	(??_fround^(0+128)+1)
  5235  15DE  35CE               	lslf	??_fround^(0+128),f
  5236  15DF  0DCF               	rlf	(??_fround^(0+128)+1),f
  5237  15E0  35CE               	lslf	??_fround^(0+128),f
  5238  15E1  0DCF               	rlf	(??_fround^(0+128)+1),f
  5239  15E2  3000               	movlw	low (__npowers_| (0+32768))
  5240  15E3  074E               	addwf	??_fround^(0+128),w
  5241  15E4  0084               	movwf	4
  5242  15E5  3098               	movlw	high (__npowers_| (0+32768))
  5243  15E6  3D4F               	addwfc	(??_fround+1)^(0+128),w
  5244  15E7  0085               	movwf	5
  5245  15E8  3F00               	moviw [0]fsr0
  5246  15E9  00D0               	movwf	(??_fround+2)^(0+128)
  5247  15EA  3F01               	moviw [1]fsr0
  5248  15EB  00D1               	movwf	((??_fround+2)^(0+128)+1)
  5249  15EC  3F02               	moviw [2]fsr0
  5250  15ED  00D2               	movwf	((??_fround+2)^(0+128)+2)
  5251  15EE  3F03               	moviw [3]fsr0
  5252  15EF  00D3               	movwf	((??_fround+2)^(0+128)+3)
  5253  15F0  0853               	movf	(??_fround+5)^(0+128),w
  5254  15F1  00B7               	movwf	(___flmul@a+3)^(0+128)
  5255  15F2  0852               	movf	(??_fround+4)^(0+128),w
  5256  15F3  00B6               	movwf	(___flmul@a+2)^(0+128)
  5257  15F4  0851               	movf	(??_fround+3)^(0+128),w
  5258  15F5  00B5               	movwf	(___flmul@a+1)^(0+128)
  5259  15F6  0850               	movf	(??_fround+2)^(0+128),w
  5260  15F7  00B4               	movwf	___flmul@a^(0+128)
  5261  15F8  3188  20E4         	fcall	___flmul
  5262  15FA  0021               	movlb	1	; select bank1
  5263  15FB  0833               	movf	(?___flmul+3)^(0+128),w
  5264  15FC  00CD               	movwf	(?_fround+3)^(0+128)
  5265  15FD  0832               	movf	(?___flmul+2)^(0+128),w
  5266  15FE  00CC               	movwf	(?_fround+2)^(0+128)
  5267  15FF  0831               	movf	(?___flmul+1)^(0+128),w
  5268  1600  00CB               	movwf	(?_fround+1)^(0+128)
  5269  1601  0830               	movf	?___flmul^(0+128),w
  5270  1602  00CA               	movwf	?_fround^(0+128)
  5271  1603  0008               	return
  5272  1604                     __end_of_fround:	
  5273                           
  5274                           	psect	text6
  5275  08E4                     __ptext6:	
  5276 ;; *************** function ___flmul *****************
  5277 ;; Defined at:
  5278 ;;		line 8 in file "/Applications/microchip/xc8/v1.37/sources/common/sprcmul.c"
  5279 ;; Parameters:    Size  Location     Type
  5280 ;;  b               4   16[BANK1 ] unsigned char 
  5281 ;;  a               4   20[BANK1 ] unsigned char 
  5282 ;; Auto vars:     Size  Location     Type
  5283 ;;  prod            4   36[BANK1 ] struct .
  5284 ;;  grs             4   30[BANK1 ] unsigned long 
  5285 ;;  temp            2   40[BANK1 ] struct .
  5286 ;;  bexp            1   35[BANK1 ] unsigned char 
  5287 ;;  aexp            1   34[BANK1 ] unsigned char 
  5288 ;;  sign            1   29[BANK1 ] unsigned char 
  5289 ;; Return value:  Size  Location     Type
  5290 ;;                  4   16[BANK1 ] unsigned char 
  5291 ;; Registers used:
  5292 ;;		wreg, status,2, status,0, pclath, cstack
  5293 ;; Tracked objects:
  5294 ;;		On entry : 0/0
  5295 ;;		On exit  : 0/0
  5296 ;;		Unchanged: 0/0
  5297 ;; Data sizes:     COMMON   BANK0   BANK1   BANK2   BANK3   BANK4   BANK5   BANK6   BANK7   BANK8   BANK9  BANK10  BANK1
      +1  BANK12
  5298 ;;      Params:         0       0       8       0       0       0       0       0       0       0       0       0       
      +0       0
  5299 ;;      Locals:         0       0      13       0       0       0       0       0       0       0       0       0       
      +0       0
  5300 ;;      Temps:          0       0       5       0       0       0       0       0       0       0       0       0       
      +0       0
  5301 ;;      Totals:         0       0      26       0       0       0       0       0       0       0       0       0       
      +0       0
  5302 ;;Total ram usage:       26 bytes
  5303 ;; Hardware stack levels used:    1
  5304 ;; Hardware stack levels required when called:    3
  5305 ;; This function calls:
  5306 ;;		__Umul8_16
  5307 ;; This function is called by:
  5308 ;;		_fround
  5309 ;;		_scale
  5310 ;;		_printf
  5311 ;; This function uses a non-reentrant model
  5312 ;;
  5313                           
  5314                           
  5315                           ;psect for function ___flmul
  5316  08E4                     ___flmul:	
  5317                           
  5318                           ;incstack = 0
  5319                           ; Regs used in ___flmul: [wreg+status,2+status,0+pclath+cstack]
  5320  08E4  0021               	movlb	1	; select bank1
  5321  08E5  0833               	movf	(___flmul@b^(0+128)+3),w
  5322  08E6  3980               	andlw	128
  5323  08E7  00B8               	movwf	??___flmul^(0+128)
  5324  08E8  0838               	movf	??___flmul^(0+128),w
  5325  08E9  00BD               	movwf	___flmul@sign^(0+128)
  5326  08EA  3533               	lslf	(___flmul@b^(0+128)+3),w
  5327  08EB  00B8               	movwf	??___flmul^(0+128)
  5328  08EC  0838               	movf	??___flmul^(0+128),w
  5329  08ED  00C3               	movwf	___flmul@bexp^(0+128)
  5330  08EE  1BB2               	btfsc	(___flmul@b^(0+128)+2),7
  5331  08EF  1443               	bsf	___flmul@bexp^(0+128),0
  5332  08F0  0843               	movf	___flmul@bexp^(0+128),w
  5333  08F1  1903               	btfsc	3,2
  5334  08F2  2900               	goto	l2894
  5335  08F3  0A43               	incf	___flmul@bexp^(0+128),w
  5336  08F4  1D03               	btfss	3,2
  5337  08F5  28FE               	goto	l2892
  5338  08F6  3000               	movlw	0
  5339  08F7  00B3               	movwf	(___flmul@b+3)^(0+128)
  5340  08F8  3000               	movlw	0
  5341  08F9  00B2               	movwf	(___flmul@b+2)^(0+128)
  5342  08FA  3000               	movlw	0
  5343  08FB  00B1               	movwf	(___flmul@b+1)^(0+128)
  5344  08FC  3000               	movlw	0
  5345  08FD  00B0               	movwf	___flmul@b^(0+128)
  5346  08FE                     l2892:	
  5347  08FE  17B2               	bsf	(___flmul@b^(0+128)+2),7
  5348  08FF  2908               	goto	l2896
  5349  0900                     l2894:	
  5350  0900  3000               	movlw	0
  5351  0901  00B3               	movwf	(___flmul@b+3)^(0+128)
  5352  0902  3000               	movlw	0
  5353  0903  00B2               	movwf	(___flmul@b+2)^(0+128)
  5354  0904  3000               	movlw	0
  5355  0905  00B1               	movwf	(___flmul@b+1)^(0+128)
  5356  0906  3000               	movlw	0
  5357  0907  00B0               	movwf	___flmul@b^(0+128)
  5358  0908                     l2896:	
  5359  0908  0837               	movf	(___flmul@a^(0+128)+3),w
  5360  0909  3980               	andlw	128
  5361  090A  00B8               	movwf	??___flmul^(0+128)
  5362  090B  0838               	movf	??___flmul^(0+128),w
  5363  090C  06BD               	xorwf	___flmul@sign^(0+128),f
  5364  090D  3537               	lslf	(___flmul@a^(0+128)+3),w
  5365  090E  00B8               	movwf	??___flmul^(0+128)
  5366  090F  0838               	movf	??___flmul^(0+128),w
  5367  0910  00C2               	movwf	___flmul@aexp^(0+128)
  5368  0911  1BB6               	btfsc	(___flmul@a^(0+128)+2),7
  5369  0912  1442               	bsf	___flmul@aexp^(0+128),0
  5370  0913  0842               	movf	___flmul@aexp^(0+128),w
  5371  0914  1903               	btfsc	3,2
  5372  0915  2923               	goto	l2912
  5373  0916  0A42               	incf	___flmul@aexp^(0+128),w
  5374  0917  1D03               	btfss	3,2
  5375  0918  2921               	goto	l2910
  5376  0919  3000               	movlw	0
  5377  091A  00B7               	movwf	(___flmul@a+3)^(0+128)
  5378  091B  3000               	movlw	0
  5379  091C  00B6               	movwf	(___flmul@a+2)^(0+128)
  5380  091D  3000               	movlw	0
  5381  091E  00B5               	movwf	(___flmul@a+1)^(0+128)
  5382  091F  3000               	movlw	0
  5383  0920  00B4               	movwf	___flmul@a^(0+128)
  5384  0921                     l2910:	
  5385  0921  17B6               	bsf	(___flmul@a^(0+128)+2),7
  5386  0922  292B               	goto	l2914
  5387  0923                     l2912:	
  5388  0923  3000               	movlw	0
  5389  0924  00B7               	movwf	(___flmul@a+3)^(0+128)
  5390  0925  3000               	movlw	0
  5391  0926  00B6               	movwf	(___flmul@a+2)^(0+128)
  5392  0927  3000               	movlw	0
  5393  0928  00B5               	movwf	(___flmul@a+1)^(0+128)
  5394  0929  3000               	movlw	0
  5395  092A  00B4               	movwf	___flmul@a^(0+128)
  5396  092B                     l2914:	
  5397  092B  0842               	movf	___flmul@aexp^(0+128),w
  5398  092C  1D03               	btfss	3,2
  5399  092D  0843               	movf	___flmul@bexp^(0+128),w
  5400  092E  1D03               	btfss	3,2
  5401  092F  2939               	goto	l2922
  5402  0930  3000               	movlw	0
  5403  0931  00B3               	movwf	(?___flmul+3)^(0+128)
  5404  0932  3000               	movlw	0
  5405  0933  00B2               	movwf	(?___flmul+2)^(0+128)
  5406  0934  3000               	movlw	0
  5407  0935  00B1               	movwf	(?___flmul+1)^(0+128)
  5408  0936  3000               	movlw	0
  5409  0937  00B0               	movwf	?___flmul^(0+128)
  5410  0938  0008               	return
  5411  0939                     l2922:	
  5412  0939  0830               	movf	___flmul@b^(0+128),w
  5413  093A  00B8               	movwf	??___flmul^(0+128)
  5414  093B  0838               	movf	??___flmul^(0+128),w
  5415  093C  00A0               	movwf	__Umul8_16@multiplicand^(0+128)
  5416  093D  0836               	movf	(___flmul@a^(0+128)+2),w
  5417  093E  3187  27D1  3188   	fcall	__Umul8_16
  5418  0941  0021               	movlb	1	; select bank1
  5419  0942  0821               	movf	(?__Umul8_16+1)^(0+128),w
  5420  0943  00C9               	movwf	(___flmul@temp+1)^(0+128)
  5421  0944  0820               	movf	?__Umul8_16^(0+128),w
  5422  0945  00C8               	movwf	___flmul@temp^(0+128)
  5423  0946  0848               	movf	___flmul@temp^(0+128),w
  5424  0947  00B8               	movwf	??___flmul^(0+128)
  5425  0948  01B9               	clrf	(??___flmul^(0+128)+1)
  5426  0949  01BA               	clrf	(??___flmul^(0+128)+2)
  5427  094A  01BB               	clrf	(??___flmul^(0+128)+3)
  5428  094B  083B               	movf	(??___flmul+3)^(0+128),w
  5429  094C  00C1               	movwf	(___flmul@grs+3)^(0+128)
  5430  094D  083A               	movf	(??___flmul+2)^(0+128),w
  5431  094E  00C0               	movwf	(___flmul@grs+2)^(0+128)
  5432  094F  0839               	movf	(??___flmul+1)^(0+128),w
  5433  0950  00BF               	movwf	(___flmul@grs+1)^(0+128)
  5434  0951  0838               	movf	??___flmul^(0+128),w
  5435  0952  00BE               	movwf	___flmul@grs^(0+128)
  5436  0953  0849               	movf	(___flmul@temp^(0+128)+1),w
  5437  0954  00B8               	movwf	??___flmul^(0+128)
  5438  0955  01B9               	clrf	(??___flmul^(0+128)+1)
  5439  0956  01BA               	clrf	(??___flmul^(0+128)+2)
  5440  0957  01BB               	clrf	(??___flmul^(0+128)+3)
  5441  0958  083B               	movf	(??___flmul+3)^(0+128),w
  5442  0959  00C7               	movwf	(___flmul@prod+3)^(0+128)
  5443  095A  083A               	movf	(??___flmul+2)^(0+128),w
  5444  095B  00C6               	movwf	(___flmul@prod+2)^(0+128)
  5445  095C  0839               	movf	(??___flmul+1)^(0+128),w
  5446  095D  00C5               	movwf	(___flmul@prod+1)^(0+128)
  5447  095E  0838               	movf	??___flmul^(0+128),w
  5448  095F  00C4               	movwf	___flmul@prod^(0+128)
  5449  0960  0831               	movf	(___flmul@b^(0+128)+1),w
  5450  0961  00B8               	movwf	??___flmul^(0+128)
  5451  0962  0838               	movf	??___flmul^(0+128),w
  5452  0963  00A0               	movwf	__Umul8_16@multiplicand^(0+128)
  5453  0964  0835               	movf	(___flmul@a^(0+128)+1),w
  5454  0965  3187  27D1  3188   	fcall	__Umul8_16
  5455  0968  0021               	movlb	1	; select bank1
  5456  0969  0821               	movf	(?__Umul8_16+1)^(0+128),w
  5457  096A  00C9               	movwf	(___flmul@temp+1)^(0+128)
  5458  096B  0820               	movf	?__Umul8_16^(0+128),w
  5459  096C  00C8               	movwf	___flmul@temp^(0+128)
  5460  096D  0848               	movf	___flmul@temp^(0+128),w
  5461  096E  00B8               	movwf	??___flmul^(0+128)
  5462  096F  01B9               	clrf	(??___flmul^(0+128)+1)
  5463  0970  01BA               	clrf	(??___flmul^(0+128)+2)
  5464  0971  01BB               	clrf	(??___flmul^(0+128)+3)
  5465  0972  0838               	movf	??___flmul^(0+128),w
  5466  0973  07BE               	addwf	___flmul@grs^(0+128),f
  5467  0974  0839               	movf	(??___flmul+1)^(0+128),w
  5468  0975  3DBF               	addwfc	(___flmul@grs+1)^(0+128),f
  5469  0976  083A               	movf	(??___flmul+2)^(0+128),w
  5470  0977  3DC0               	addwfc	(___flmul@grs+2)^(0+128),f
  5471  0978  083B               	movf	(??___flmul+3)^(0+128),w
  5472  0979  3DC1               	addwfc	(___flmul@grs+3)^(0+128),f
  5473  097A  0849               	movf	(___flmul@temp^(0+128)+1),w
  5474  097B  00B8               	movwf	??___flmul^(0+128)
  5475  097C  01B9               	clrf	(??___flmul^(0+128)+1)
  5476  097D  01BA               	clrf	(??___flmul^(0+128)+2)
  5477  097E  01BB               	clrf	(??___flmul^(0+128)+3)
  5478  097F  0838               	movf	??___flmul^(0+128),w
  5479  0980  07C4               	addwf	___flmul@prod^(0+128),f
  5480  0981  0839               	movf	(??___flmul+1)^(0+128),w
  5481  0982  3DC5               	addwfc	(___flmul@prod+1)^(0+128),f
  5482  0983  083A               	movf	(??___flmul+2)^(0+128),w
  5483  0984  3DC6               	addwfc	(___flmul@prod+2)^(0+128),f
  5484  0985  083B               	movf	(??___flmul+3)^(0+128),w
  5485  0986  3DC7               	addwfc	(___flmul@prod+3)^(0+128),f
  5486  0987  0832               	movf	(___flmul@b^(0+128)+2),w
  5487  0988  00B8               	movwf	??___flmul^(0+128)
  5488  0989  0838               	movf	??___flmul^(0+128),w
  5489  098A  00A0               	movwf	__Umul8_16@multiplicand^(0+128)
  5490  098B  0834               	movf	___flmul@a^(0+128),w
  5491  098C  3187  27D1  3188   	fcall	__Umul8_16
  5492  098F  0021               	movlb	1	; select bank1
  5493  0990  0821               	movf	(?__Umul8_16+1)^(0+128),w
  5494  0991  00C9               	movwf	(___flmul@temp+1)^(0+128)
  5495  0992  0820               	movf	?__Umul8_16^(0+128),w
  5496  0993  00C8               	movwf	___flmul@temp^(0+128)
  5497  0994  0848               	movf	___flmul@temp^(0+128),w
  5498  0995  00B8               	movwf	??___flmul^(0+128)
  5499  0996  01B9               	clrf	(??___flmul^(0+128)+1)
  5500  0997  01BA               	clrf	(??___flmul^(0+128)+2)
  5501  0998  01BB               	clrf	(??___flmul^(0+128)+3)
  5502  0999  0838               	movf	??___flmul^(0+128),w
  5503  099A  07BE               	addwf	___flmul@grs^(0+128),f
  5504  099B  0839               	movf	(??___flmul+1)^(0+128),w
  5505  099C  3DBF               	addwfc	(___flmul@grs+1)^(0+128),f
  5506  099D  083A               	movf	(??___flmul+2)^(0+128),w
  5507  099E  3DC0               	addwfc	(___flmul@grs+2)^(0+128),f
  5508  099F  083B               	movf	(??___flmul+3)^(0+128),w
  5509  09A0  3DC1               	addwfc	(___flmul@grs+3)^(0+128),f
  5510  09A1  0849               	movf	(___flmul@temp^(0+128)+1),w
  5511  09A2  00B8               	movwf	??___flmul^(0+128)
  5512  09A3  01B9               	clrf	(??___flmul^(0+128)+1)
  5513  09A4  01BA               	clrf	(??___flmul^(0+128)+2)
  5514  09A5  01BB               	clrf	(??___flmul^(0+128)+3)
  5515  09A6  0838               	movf	??___flmul^(0+128),w
  5516  09A7  07C4               	addwf	___flmul@prod^(0+128),f
  5517  09A8  0839               	movf	(??___flmul+1)^(0+128),w
  5518  09A9  3DC5               	addwfc	(___flmul@prod+1)^(0+128),f
  5519  09AA  083A               	movf	(??___flmul+2)^(0+128),w
  5520  09AB  3DC6               	addwfc	(___flmul@prod+2)^(0+128),f
  5521  09AC  083B               	movf	(??___flmul+3)^(0+128),w
  5522  09AD  3DC7               	addwfc	(___flmul@prod+3)^(0+128),f
  5523  09AE  3008               	movlw	8
  5524  09AF                     u4295:	
  5525  09AF  35BE               	lslf	___flmul@grs^(0+128),f
  5526  09B0  0DBF               	rlf	(___flmul@grs+1)^(0+128),f
  5527  09B1  0DC0               	rlf	(___flmul@grs+2)^(0+128),f
  5528  09B2  0DC1               	rlf	(___flmul@grs+3)^(0+128),f
  5529  09B3  0B89               	decfsz	9,f
  5530  09B4  29AF               	goto	u4295
  5531  09B5  0831               	movf	(___flmul@b^(0+128)+1),w
  5532  09B6  00B8               	movwf	??___flmul^(0+128)
  5533  09B7  0838               	movf	??___flmul^(0+128),w
  5534  09B8  00A0               	movwf	__Umul8_16@multiplicand^(0+128)
  5535  09B9  0834               	movf	___flmul@a^(0+128),w
  5536  09BA  3187  27D1  3188   	fcall	__Umul8_16
  5537  09BD  0021               	movlb	1	; select bank1
  5538  09BE  0821               	movf	(?__Umul8_16+1)^(0+128),w
  5539  09BF  00C9               	movwf	(___flmul@temp+1)^(0+128)
  5540  09C0  0820               	movf	?__Umul8_16^(0+128),w
  5541  09C1  00C8               	movwf	___flmul@temp^(0+128)
  5542  09C2  0848               	movf	___flmul@temp^(0+128),w
  5543  09C3  07BE               	addwf	___flmul@grs^(0+128),f
  5544  09C4  0849               	movf	(___flmul@temp+1)^(0+128),w
  5545  09C5  3DBF               	addwfc	(___flmul@grs+1)^(0+128),f
  5546  09C6  3000               	movlw	0
  5547  09C7  3DC0               	addwfc	(___flmul@grs+2)^(0+128),f
  5548  09C8  3DC1               	addwfc	(___flmul@grs+3)^(0+128),f
  5549  09C9  0830               	movf	___flmul@b^(0+128),w
  5550  09CA  00B8               	movwf	??___flmul^(0+128)
  5551  09CB  0838               	movf	??___flmul^(0+128),w
  5552  09CC  00A0               	movwf	__Umul8_16@multiplicand^(0+128)
  5553  09CD  0835               	movf	(___flmul@a^(0+128)+1),w
  5554  09CE  3187  27D1  3188   	fcall	__Umul8_16
  5555  09D1  0021               	movlb	1	; select bank1
  5556  09D2  0821               	movf	(?__Umul8_16+1)^(0+128),w
  5557  09D3  00C9               	movwf	(___flmul@temp+1)^(0+128)
  5558  09D4  0820               	movf	?__Umul8_16^(0+128),w
  5559  09D5  00C8               	movwf	___flmul@temp^(0+128)
  5560  09D6  0848               	movf	___flmul@temp^(0+128),w
  5561  09D7  07BE               	addwf	___flmul@grs^(0+128),f
  5562  09D8  0849               	movf	(___flmul@temp+1)^(0+128),w
  5563  09D9  3DBF               	addwfc	(___flmul@grs+1)^(0+128),f
  5564  09DA  3000               	movlw	0
  5565  09DB  3DC0               	addwfc	(___flmul@grs+2)^(0+128),f
  5566  09DC  3DC1               	addwfc	(___flmul@grs+3)^(0+128),f
  5567  09DD  3008               	movlw	8
  5568  09DE                     u4305:	
  5569  09DE  35BE               	lslf	___flmul@grs^(0+128),f
  5570  09DF  0DBF               	rlf	(___flmul@grs+1)^(0+128),f
  5571  09E0  0DC0               	rlf	(___flmul@grs+2)^(0+128),f
  5572  09E1  0DC1               	rlf	(___flmul@grs+3)^(0+128),f
  5573  09E2  0B89               	decfsz	9,f
  5574  09E3  29DE               	goto	u4305
  5575  09E4  0830               	movf	___flmul@b^(0+128),w
  5576  09E5  00B8               	movwf	??___flmul^(0+128)
  5577  09E6  0838               	movf	??___flmul^(0+128),w
  5578  09E7  00A0               	movwf	__Umul8_16@multiplicand^(0+128)
  5579  09E8  0834               	movf	___flmul@a^(0+128),w
  5580  09E9  3187  27D1  3188   	fcall	__Umul8_16
  5581  09EC  0021               	movlb	1	; select bank1
  5582  09ED  0821               	movf	(?__Umul8_16+1)^(0+128),w
  5583  09EE  00C9               	movwf	(___flmul@temp+1)^(0+128)
  5584  09EF  0820               	movf	?__Umul8_16^(0+128),w
  5585  09F0  00C8               	movwf	___flmul@temp^(0+128)
  5586  09F1  0848               	movf	___flmul@temp^(0+128),w
  5587  09F2  07BE               	addwf	___flmul@grs^(0+128),f
  5588  09F3  0849               	movf	(___flmul@temp+1)^(0+128),w
  5589  09F4  3DBF               	addwfc	(___flmul@grs+1)^(0+128),f
  5590  09F5  3000               	movlw	0
  5591  09F6  3DC0               	addwfc	(___flmul@grs+2)^(0+128),f
  5592  09F7  3DC1               	addwfc	(___flmul@grs+3)^(0+128),f
  5593  09F8  0831               	movf	(___flmul@b^(0+128)+1),w
  5594  09F9  00B8               	movwf	??___flmul^(0+128)
  5595  09FA  0838               	movf	??___flmul^(0+128),w
  5596  09FB  00A0               	movwf	__Umul8_16@multiplicand^(0+128)
  5597  09FC  0836               	movf	(___flmul@a^(0+128)+2),w
  5598  09FD  3187  27D1  3188   	fcall	__Umul8_16
  5599  0A00  0021               	movlb	1	; select bank1
  5600  0A01  0821               	movf	(?__Umul8_16+1)^(0+128),w
  5601  0A02  00C9               	movwf	(___flmul@temp+1)^(0+128)
  5602  0A03  0820               	movf	?__Umul8_16^(0+128),w
  5603  0A04  00C8               	movwf	___flmul@temp^(0+128)
  5604  0A05  0848               	movf	___flmul@temp^(0+128),w
  5605  0A06  07C4               	addwf	___flmul@prod^(0+128),f
  5606  0A07  0849               	movf	(___flmul@temp+1)^(0+128),w
  5607  0A08  3DC5               	addwfc	(___flmul@prod+1)^(0+128),f
  5608  0A09  3000               	movlw	0
  5609  0A0A  3DC6               	addwfc	(___flmul@prod+2)^(0+128),f
  5610  0A0B  3DC7               	addwfc	(___flmul@prod+3)^(0+128),f
  5611  0A0C  0832               	movf	(___flmul@b^(0+128)+2),w
  5612  0A0D  00B8               	movwf	??___flmul^(0+128)
  5613  0A0E  0838               	movf	??___flmul^(0+128),w
  5614  0A0F  00A0               	movwf	__Umul8_16@multiplicand^(0+128)
  5615  0A10  0835               	movf	(___flmul@a^(0+128)+1),w
  5616  0A11  3187  27D1  3188   	fcall	__Umul8_16
  5617  0A14  0021               	movlb	1	; select bank1
  5618  0A15  0821               	movf	(?__Umul8_16+1)^(0+128),w
  5619  0A16  00C9               	movwf	(___flmul@temp+1)^(0+128)
  5620  0A17  0820               	movf	?__Umul8_16^(0+128),w
  5621  0A18  00C8               	movwf	___flmul@temp^(0+128)
  5622  0A19  0848               	movf	___flmul@temp^(0+128),w
  5623  0A1A  07C4               	addwf	___flmul@prod^(0+128),f
  5624  0A1B  0849               	movf	(___flmul@temp+1)^(0+128),w
  5625  0A1C  3DC5               	addwfc	(___flmul@prod+1)^(0+128),f
  5626  0A1D  3000               	movlw	0
  5627  0A1E  3DC6               	addwfc	(___flmul@prod+2)^(0+128),f
  5628  0A1F  3DC7               	addwfc	(___flmul@prod+3)^(0+128),f
  5629  0A20  0832               	movf	(___flmul@b^(0+128)+2),w
  5630  0A21  00B8               	movwf	??___flmul^(0+128)
  5631  0A22  0838               	movf	??___flmul^(0+128),w
  5632  0A23  00A0               	movwf	__Umul8_16@multiplicand^(0+128)
  5633  0A24  0836               	movf	(___flmul@a^(0+128)+2),w
  5634  0A25  3187  27D1  3188   	fcall	__Umul8_16
  5635  0A28  0021               	movlb	1	; select bank1
  5636  0A29  0821               	movf	(?__Umul8_16+1)^(0+128),w
  5637  0A2A  00C9               	movwf	(___flmul@temp+1)^(0+128)
  5638  0A2B  0820               	movf	?__Umul8_16^(0+128),w
  5639  0A2C  00C8               	movwf	___flmul@temp^(0+128)
  5640  0A2D  0848               	movf	___flmul@temp^(0+128),w
  5641  0A2E  00B8               	movwf	??___flmul^(0+128)
  5642  0A2F  0849               	movf	(___flmul@temp+1)^(0+128),w
  5643  0A30  00B9               	movwf	(??___flmul^(0+128)+1)
  5644  0A31  01BA               	clrf	(??___flmul^(0+128)+2)
  5645  0A32  01BB               	clrf	(??___flmul^(0+128)+3)
  5646  0A33  3008               	movlw	8
  5647  0A34                     u4315:	
  5648  0A34  35B8               	lslf	??___flmul^(0+128),f
  5649  0A35  0DB9               	rlf	(??___flmul^(0+128)+1),f
  5650  0A36  0DBA               	rlf	(??___flmul^(0+128)+2),f
  5651  0A37  0DBB               	rlf	(??___flmul^(0+128)+3),f
  5652  0A38  0B89               	decfsz	9,f
  5653  0A39  2A34               	goto	u4315
  5654  0A3A  0838               	movf	??___flmul^(0+128),w
  5655  0A3B  07C4               	addwf	___flmul@prod^(0+128),f
  5656  0A3C  0839               	movf	(??___flmul+1)^(0+128),w
  5657  0A3D  3DC5               	addwfc	(___flmul@prod+1)^(0+128),f
  5658  0A3E  083A               	movf	(??___flmul+2)^(0+128),w
  5659  0A3F  3DC6               	addwfc	(___flmul@prod+2)^(0+128),f
  5660  0A40  083B               	movf	(??___flmul+3)^(0+128),w
  5661  0A41  3DC7               	addwfc	(___flmul@prod+3)^(0+128),f
  5662  0A42  083E               	movf	___flmul@grs^(0+128),w
  5663  0A43  00B8               	movwf	??___flmul^(0+128)
  5664  0A44  083F               	movf	(___flmul@grs+1)^(0+128),w
  5665  0A45  00B9               	movwf	(??___flmul^(0+128)+1)
  5666  0A46  0840               	movf	(___flmul@grs+2)^(0+128),w
  5667  0A47  00BA               	movwf	(??___flmul^(0+128)+2)
  5668  0A48  0841               	movf	(___flmul@grs+3)^(0+128),w
  5669  0A49  00BB               	movwf	(??___flmul^(0+128)+3)
  5670  0A4A  3018               	movlw	24
  5671  0A4B                     u4325:	
  5672  0A4B  36BB               	lsrf	(??___flmul^(0+128)+3),f
  5673  0A4C  0CBA               	rrf	(??___flmul^(0+128)+2),f
  5674  0A4D  0CB9               	rrf	(??___flmul^(0+128)+1),f
  5675  0A4E  0CB8               	rrf	??___flmul^(0+128),f
  5676  0A4F  0B89               	decfsz	9,f
  5677  0A50  2A4B               	goto	u4325
  5678  0A51  0838               	movf	??___flmul^(0+128),w
  5679  0A52  07C4               	addwf	___flmul@prod^(0+128),f
  5680  0A53  0839               	movf	(??___flmul+1)^(0+128),w
  5681  0A54  3DC5               	addwfc	(___flmul@prod+1)^(0+128),f
  5682  0A55  083A               	movf	(??___flmul+2)^(0+128),w
  5683  0A56  3DC6               	addwfc	(___flmul@prod+2)^(0+128),f
  5684  0A57  083B               	movf	(??___flmul+3)^(0+128),w
  5685  0A58  3DC7               	addwfc	(___flmul@prod+3)^(0+128),f
  5686  0A59  3008               	movlw	8
  5687  0A5A                     u4335:	
  5688  0A5A  35BE               	lslf	___flmul@grs^(0+128),f
  5689  0A5B  0DBF               	rlf	(___flmul@grs+1)^(0+128),f
  5690  0A5C  0DC0               	rlf	(___flmul@grs+2)^(0+128),f
  5691  0A5D  0DC1               	rlf	(___flmul@grs+3)^(0+128),f
  5692  0A5E  0B89               	decfsz	9,f
  5693  0A5F  2A5A               	goto	u4335
  5694  0A60  0843               	movf	___flmul@bexp^(0+128),w
  5695  0A61  0742               	addwf	___flmul@aexp^(0+128),w
  5696  0A62  00B8               	movwf	??___flmul^(0+128)
  5697  0A63  01B9               	clrf	(??___flmul^(0+128)+1)
  5698  0A64  0DB9               	rlf	(??___flmul+1)^(0+128),f
  5699  0A65  0838               	movf	??___flmul^(0+128),w
  5700  0A66  3E82               	addlw	130
  5701  0A67  00C8               	movwf	___flmul@temp^(0+128)
  5702  0A68  30FF               	movlw	255
  5703  0A69  3D39               	addwfc	(??___flmul+1)^(0+128),w
  5704  0A6A  00C9               	movwf	(___flmul@temp+1)^(0+128)
  5705  0A6B                     l2974:	
  5706  0A6B  1BC6               	btfsc	(___flmul@prod+2)^(0+128),7
  5707  0A6C  2A82               	goto	l2976
  5708  0A6D  3001               	movlw	1
  5709  0A6E                     u4345:	
  5710  0A6E  35C4               	lslf	___flmul@prod^(0+128),f
  5711  0A6F  0DC5               	rlf	(___flmul@prod+1)^(0+128),f
  5712  0A70  0DC6               	rlf	(___flmul@prod+2)^(0+128),f
  5713  0A71  0DC7               	rlf	(___flmul@prod+3)^(0+128),f
  5714  0A72  0B89               	decfsz	9,f
  5715  0A73  2A6E               	goto	u4345
  5716  0A74  1BC1               	btfsc	(___flmul@grs+3)^(0+128),7
  5717  0A75  1444               	bsf	___flmul@prod^(0+128),0
  5718  0A76  3001               	movlw	1
  5719  0A77                     u4365:	
  5720  0A77  35BE               	lslf	___flmul@grs^(0+128),f
  5721  0A78  0DBF               	rlf	(___flmul@grs+1)^(0+128),f
  5722  0A79  0DC0               	rlf	(___flmul@grs+2)^(0+128),f
  5723  0A7A  0DC1               	rlf	(___flmul@grs+3)^(0+128),f
  5724  0A7B  0B89               	decfsz	9,f
  5725  0A7C  2A77               	goto	u4365
  5726  0A7D  30FF               	movlw	255
  5727  0A7E  07C8               	addwf	___flmul@temp^(0+128),f
  5728  0A7F  30FF               	movlw	255
  5729  0A80  3DC9               	addwfc	(___flmul@temp+1)^(0+128),f
  5730  0A81  2A6B               	goto	l2974
  5731  0A82                     l2976:	
  5732  0A82  01C2               	clrf	___flmul@aexp^(0+128)
  5733  0A83  1FC1               	btfss	(___flmul@grs+3)^(0+128),7
  5734  0A84  2A9B               	goto	l2986
  5735  0A85  30FF               	movlw	255
  5736  0A86  053E               	andwf	___flmul@grs^(0+128),w
  5737  0A87  00B8               	movwf	??___flmul^(0+128)
  5738  0A88  30FF               	movlw	255
  5739  0A89  053F               	andwf	(___flmul@grs+1)^(0+128),w
  5740  0A8A  00B9               	movwf	(??___flmul^(0+128)+1)
  5741  0A8B  30FF               	movlw	255
  5742  0A8C  0540               	andwf	(___flmul@grs+2)^(0+128),w
  5743  0A8D  00BA               	movwf	(??___flmul^(0+128)+2)
  5744  0A8E  307F               	movlw	127
  5745  0A8F  0541               	andwf	(___flmul@grs+3)^(0+128),w
  5746  0A90  00BB               	movwf	(??___flmul^(0+128)+3)
  5747  0A91  083B               	movf	(??___flmul+3)^(0+128),w
  5748  0A92  043A               	iorwf	(??___flmul+2)^(0+128),w
  5749  0A93  0439               	iorwf	(??___flmul+1)^(0+128),w
  5750  0A94  0438               	iorwf	??___flmul^(0+128),w
  5751  0A95  1D03               	btfss	3,2
  5752  0A96  2A99               	goto	l2984
  5753  0A97  1C44               	btfss	___flmul@prod^(0+128),0
  5754  0A98  2A9B               	goto	l2986
  5755  0A99                     l2984:	
  5756  0A99  01C2               	clrf	___flmul@aexp^(0+128)
  5757  0A9A  0AC2               	incf	___flmul@aexp^(0+128),f
  5758  0A9B                     l2986:	
  5759  0A9B  0842               	movf	___flmul@aexp^(0+128),w
  5760  0A9C  1903               	btfsc	3,2
  5761  0A9D  2AC4               	goto	l2996
  5762  0A9E  3001               	movlw	1
  5763  0A9F  07C4               	addwf	___flmul@prod^(0+128),f
  5764  0AA0  3000               	movlw	0
  5765  0AA1  3DC5               	addwfc	(___flmul@prod+1)^(0+128),f
  5766  0AA2  3000               	movlw	0
  5767  0AA3  3DC6               	addwfc	(___flmul@prod+2)^(0+128),f
  5768  0AA4  3000               	movlw	0
  5769  0AA5  3DC7               	addwfc	(___flmul@prod+3)^(0+128),f
  5770  0AA6  1C47               	btfss	(___flmul@prod+3)^(0+128),0
  5771  0AA7  2AC4               	goto	l2996
  5772  0AA8  0844               	movf	___flmul@prod^(0+128),w
  5773  0AA9  00B8               	movwf	??___flmul^(0+128)
  5774  0AAA  0845               	movf	(___flmul@prod+1)^(0+128),w
  5775  0AAB  00B9               	movwf	(??___flmul^(0+128)+1)
  5776  0AAC  0846               	movf	(___flmul@prod+2)^(0+128),w
  5777  0AAD  00BA               	movwf	(??___flmul^(0+128)+2)
  5778  0AAE  0847               	movf	(___flmul@prod+3)^(0+128),w
  5779  0AAF  00BB               	movwf	(??___flmul^(0+128)+3)
  5780  0AB0  3001               	movlw	1
  5781  0AB1  00BC               	movwf	(??___flmul+4)^(0+128)
  5782  0AB2                     u4435:	
  5783  0AB2  37BB               	asrf	(??___flmul^(0+128)+3),f
  5784  0AB3  0CBA               	rrf	(??___flmul^(0+128)+2),f
  5785  0AB4  0CB9               	rrf	(??___flmul^(0+128)+1),f
  5786  0AB5  0CB8               	rrf	??___flmul^(0+128),f
  5787  0AB6  0BBC               	decfsz	(??___flmul+4)^(0+128),f
  5788  0AB7  2AB2               	goto	u4435
  5789  0AB8  083B               	movf	(??___flmul+3)^(0+128),w
  5790  0AB9  00C7               	movwf	(___flmul@prod+3)^(0+128)
  5791  0ABA  083A               	movf	(??___flmul+2)^(0+128),w
  5792  0ABB  00C6               	movwf	(___flmul@prod+2)^(0+128)
  5793  0ABC  0839               	movf	(??___flmul+1)^(0+128),w
  5794  0ABD  00C5               	movwf	(___flmul@prod+1)^(0+128)
  5795  0ABE  0838               	movf	??___flmul^(0+128),w
  5796  0ABF  00C4               	movwf	___flmul@prod^(0+128)
  5797  0AC0  3001               	movlw	1
  5798  0AC1  07C8               	addwf	___flmul@temp^(0+128),f
  5799  0AC2  3000               	movlw	0
  5800  0AC3  3DC9               	addwfc	(___flmul@temp+1)^(0+128),f
  5801  0AC4                     l2996:	
  5802  0AC4  0849               	movf	(___flmul@temp+1)^(0+128),w
  5803  0AC5  3A80               	xorlw	128
  5804  0AC6  00B8               	movwf	??___flmul^(0+128)
  5805  0AC7  3080               	movlw	128
  5806  0AC8  0238               	subwf	??___flmul^(0+128),w
  5807  0AC9  1D03               	skipz
  5808  0ACA  2ACD               	goto	u4445
  5809  0ACB  30FF               	movlw	255
  5810  0ACC  0248               	subwf	___flmul@temp^(0+128),w
  5811  0ACD                     u4445:	
  5812  0ACD  1C03               	skipc
  5813  0ACE  2AD9               	goto	l3000
  5814  0ACF  307F               	movlw	127
  5815  0AD0  0021               	movlb	1	; select bank1
  5816  0AD1  00C7               	movwf	(___flmul@prod+3)^(0+128)
  5817  0AD2  3080               	movlw	128
  5818  0AD3  00C6               	movwf	(___flmul@prod+2)^(0+128)
  5819  0AD4  3000               	movlw	0
  5820  0AD5  00C5               	movwf	(___flmul@prod+1)^(0+128)
  5821  0AD6  3000               	movlw	0
  5822  0AD7  00C4               	movwf	___flmul@prod^(0+128)
  5823  0AD8  2B03               	goto	l788
  5824  0AD9                     l3000:	
  5825  0AD9  0021               	movlb	1	; select bank1
  5826  0ADA  0849               	movf	(___flmul@temp+1)^(0+128),w
  5827  0ADB  3A80               	xorlw	128
  5828  0ADC  00B8               	movwf	??___flmul^(0+128)
  5829  0ADD  3080               	movlw	128
  5830  0ADE  0238               	subwf	??___flmul^(0+128),w
  5831  0ADF  1D03               	skipz
  5832  0AE0  2AE3               	goto	u4455
  5833  0AE1  3001               	movlw	1
  5834  0AE2  0248               	subwf	___flmul@temp^(0+128),w
  5835  0AE3                     u4455:	
  5836  0AE3  1803               	skipnc
  5837  0AE4  2AF0               	goto	l3006
  5838  0AE5  3000               	movlw	0
  5839  0AE6  0021               	movlb	1	; select bank1
  5840  0AE7  00C7               	movwf	(___flmul@prod+3)^(0+128)
  5841  0AE8  3000               	movlw	0
  5842  0AE9  00C6               	movwf	(___flmul@prod+2)^(0+128)
  5843  0AEA  3000               	movlw	0
  5844  0AEB  00C5               	movwf	(___flmul@prod+1)^(0+128)
  5845  0AEC  3000               	movlw	0
  5846  0AED  00C4               	movwf	___flmul@prod^(0+128)
  5847  0AEE  01BD               	clrf	___flmul@sign^(0+128)
  5848  0AEF  2B03               	goto	l788
  5849  0AF0                     l3006:	
  5850  0AF0  0021               	movlb	1	; select bank1
  5851  0AF1  0848               	movf	___flmul@temp^(0+128),w
  5852  0AF2  00B8               	movwf	??___flmul^(0+128)
  5853  0AF3  0838               	movf	??___flmul^(0+128),w
  5854  0AF4  00C3               	movwf	___flmul@bexp^(0+128)
  5855  0AF5  30FF               	movlw	255
  5856  0AF6  05C4               	andwf	___flmul@prod^(0+128),f
  5857  0AF7  30FF               	movlw	255
  5858  0AF8  05C5               	andwf	(___flmul@prod+1)^(0+128),f
  5859  0AF9  307F               	movlw	127
  5860  0AFA  05C6               	andwf	(___flmul@prod+2)^(0+128),f
  5861  0AFB  3000               	movlw	0
  5862  0AFC  05C7               	andwf	(___flmul@prod+3)^(0+128),f
  5863  0AFD  1843               	btfsc	___flmul@bexp^(0+128),0
  5864  0AFE  17C6               	bsf	(___flmul@prod^(0+128)+2),7
  5865  0AFF  3643               	lsrf	___flmul@bexp^(0+128),w
  5866  0B00  00B8               	movwf	??___flmul^(0+128)
  5867  0B01  0838               	movf	??___flmul^(0+128),w
  5868  0B02  00C7               	movwf	(___flmul@prod^(0+128)+3)
  5869  0B03                     l788:	
  5870  0B03  083D               	movf	___flmul@sign^(0+128),w
  5871  0B04  00B8               	movwf	??___flmul^(0+128)
  5872  0B05  0838               	movf	??___flmul^(0+128),w
  5873  0B06  04C7               	iorwf	(___flmul@prod^(0+128)+3),f
  5874  0B07  0847               	movf	(___flmul@prod+3)^(0+128),w
  5875  0B08  00B3               	movwf	(?___flmul+3)^(0+128)
  5876  0B09  0846               	movf	(___flmul@prod+2)^(0+128),w
  5877  0B0A  00B2               	movwf	(?___flmul+2)^(0+128)
  5878  0B0B  0845               	movf	(___flmul@prod+1)^(0+128),w
  5879  0B0C  00B1               	movwf	(?___flmul+1)^(0+128)
  5880  0B0D  0844               	movf	___flmul@prod^(0+128),w
  5881  0B0E  00B0               	movwf	?___flmul^(0+128)
  5882  0B0F  0008               	return
  5883  0B10                     __end_of___flmul:	
  5884                           
  5885                           	psect	text7
  5886  07D1                     __ptext7:	
  5887 ;; *************** function __Umul8_16 *****************
  5888 ;; Defined at:
  5889 ;;		line 4 in file "/Applications/microchip/xc8/v1.37/sources/common/Umul8_16.c"
  5890 ;; Parameters:    Size  Location     Type
  5891 ;;  multiplier      1    wreg     unsigned char 
  5892 ;;  multiplicand    1    0[BANK1 ] unsigned char 
  5893 ;; Auto vars:     Size  Location     Type
  5894 ;;  multiplier      1    8[BANK1 ] unsigned char 
  5895 ;;  word_mpld       2    6[BANK1 ] unsigned int 
  5896 ;;  product         2    4[BANK1 ] unsigned int 
  5897 ;; Return value:  Size  Location     Type
  5898 ;;                  2    0[BANK1 ] unsigned int 
  5899 ;; Registers used:
  5900 ;;		wreg, status,2, status,0
  5901 ;; Tracked objects:
  5902 ;;		On entry : 0/0
  5903 ;;		On exit  : 0/0
  5904 ;;		Unchanged: 0/0
  5905 ;; Data sizes:     COMMON   BANK0   BANK1   BANK2   BANK3   BANK4   BANK5   BANK6   BANK7   BANK8   BANK9  BANK10  BANK1
      +1  BANK12
  5906 ;;      Params:         0       0       2       0       0       0       0       0       0       0       0       0       
      +0       0
  5907 ;;      Locals:         0       0       5       0       0       0       0       0       0       0       0       0       
      +0       0
  5908 ;;      Temps:          0       0       2       0       0       0       0       0       0       0       0       0       
      +0       0
  5909 ;;      Totals:         0       0       9       0       0       0       0       0       0       0       0       0       
      +0       0
  5910 ;;Total ram usage:        9 bytes
  5911 ;; Hardware stack levels used:    1
  5912 ;; Hardware stack levels required when called:    2
  5913 ;; This function calls:
  5914 ;;		Nothing
  5915 ;; This function is called by:
  5916 ;;		___flmul
  5917 ;; This function uses a non-reentrant model
  5918 ;;
  5919                           
  5920                           
  5921                           ;psect for function __Umul8_16
  5922  07D1                     __Umul8_16:	
  5923                           
  5924                           ;incstack = 0
  5925                           ; Regs used in __Umul8_16: [wreg+status,2+status,0]
  5926                           ;__Umul8_16@multiplier stored from wreg
  5927  07D1  0021               	movlb	1	; select bank1
  5928  07D2  00A8               	movwf	__Umul8_16@multiplier^(0+128)
  5929  07D3  01A4               	clrf	__Umul8_16@product^(0+128)
  5930  07D4  01A5               	clrf	(__Umul8_16@product+1)^(0+128)
  5931  07D5  0820               	movf	__Umul8_16@multiplicand^(0+128),w
  5932  07D6  00A2               	movwf	??__Umul8_16^(0+128)
  5933  07D7  01A3               	clrf	(??__Umul8_16^(0+128)+1)
  5934  07D8  0822               	movf	??__Umul8_16^(0+128),w
  5935  07D9  00A6               	movwf	__Umul8_16@word_mpld^(0+128)
  5936  07DA  0823               	movf	(??__Umul8_16+1)^(0+128),w
  5937  07DB  00A7               	movwf	(__Umul8_16@word_mpld+1)^(0+128)
  5938  07DC                     l2592:	
  5939  07DC  1C28               	btfss	__Umul8_16@multiplier^(0+128),0
  5940  07DD  2FE2               	goto	l814
  5941  07DE  0826               	movf	__Umul8_16@word_mpld^(0+128),w
  5942  07DF  07A4               	addwf	__Umul8_16@product^(0+128),f
  5943  07E0  0827               	movf	(__Umul8_16@word_mpld+1)^(0+128),w
  5944  07E1  3DA5               	addwfc	(__Umul8_16@product+1)^(0+128),f
  5945  07E2                     l814:	
  5946  07E2  3001               	movlw	1
  5947  07E3                     u3575:	
  5948  07E3  35A6               	lslf	__Umul8_16@word_mpld^(0+128),f
  5949  07E4  0DA7               	rlf	(__Umul8_16@word_mpld+1)^(0+128),f
  5950  07E5  0B89               	decfsz	9,f
  5951  07E6  2FE3               	goto	u3575
  5952  07E7  1003               	clrc
  5953  07E8  0CA8               	rrf	__Umul8_16@multiplier^(0+128),f
  5954  07E9  0828               	movf	__Umul8_16@multiplier^(0+128),w
  5955  07EA  1D03               	btfss	3,2
  5956  07EB  2FDC               	goto	l2592
  5957  07EC  0825               	movf	(__Umul8_16@product+1)^(0+128),w
  5958  07ED  00A1               	movwf	(?__Umul8_16+1)^(0+128)
  5959  07EE  0824               	movf	__Umul8_16@product^(0+128),w
  5960  07EF  00A0               	movwf	?__Umul8_16^(0+128)
  5961  07F0  0008               	return
  5962  07F1                     __end_of__Umul8_16:	
  5963                           
  5964                           	psect	text8
  5965  1C6E                     __ptext8:	
  5966 ;; *************** function ___awmod *****************
  5967 ;; Defined at:
  5968 ;;		line 6 in file "/Applications/microchip/xc8/v1.37/sources/common/awmod.c"
  5969 ;; Parameters:    Size  Location     Type
  5970 ;;  divisor         2    0[BANK1 ] int 
  5971 ;;  dividend        2    2[BANK1 ] int 
  5972 ;; Auto vars:     Size  Location     Type
  5973 ;;  sign            1    6[BANK1 ] unsigned char 
  5974 ;;  counter         1    5[BANK1 ] unsigned char 
  5975 ;; Return value:  Size  Location     Type
  5976 ;;                  2    0[BANK1 ] int 
  5977 ;; Registers used:
  5978 ;;		wreg, status,2, status,0
  5979 ;; Tracked objects:
  5980 ;;		On entry : 0/0
  5981 ;;		On exit  : 0/0
  5982 ;;		Unchanged: 0/0
  5983 ;; Data sizes:     COMMON   BANK0   BANK1   BANK2   BANK3   BANK4   BANK5   BANK6   BANK7   BANK8   BANK9  BANK10  BANK1
      +1  BANK12
  5984 ;;      Params:         0       0       4       0       0       0       0       0       0       0       0       0       
      +0       0
  5985 ;;      Locals:         0       0       2       0       0       0       0       0       0       0       0       0       
      +0       0
  5986 ;;      Temps:          0       0       1       0       0       0       0       0       0       0       0       0       
      +0       0
  5987 ;;      Totals:         0       0       7       0       0       0       0       0       0       0       0       0       
      +0       0
  5988 ;;Total ram usage:        7 bytes
  5989 ;; Hardware stack levels used:    1
  5990 ;; Hardware stack levels required when called:    2
  5991 ;; This function calls:
  5992 ;;		Nothing
  5993 ;; This function is called by:
  5994 ;;		_fround
  5995 ;;		_scale
  5996 ;; This function uses a non-reentrant model
  5997 ;;
  5998                           
  5999                           
  6000                           ;psect for function ___awmod
  6001  1C6E                     ___awmod:	
  6002                           
  6003                           ;incstack = 0
  6004                           ; Regs used in ___awmod: [wreg+status,2+status,0]
  6005  1C6E  0021               	movlb	1	; select bank1
  6006  1C6F  01A6               	clrf	___awmod@sign^(0+128)
  6007  1C70  1FA3               	btfss	(___awmod@dividend+1)^(0+128),7
  6008  1C71  2C79               	goto	l2654
  6009  1C72  09A2               	comf	___awmod@dividend^(0+128),f
  6010  1C73  09A3               	comf	(___awmod@dividend+1)^(0+128),f
  6011  1C74  0AA2               	incf	___awmod@dividend^(0+128),f
  6012  1C75  1903               	skipnz
  6013  1C76  0AA3               	incf	(___awmod@dividend+1)^(0+128),f
  6014  1C77  01A6               	clrf	___awmod@sign^(0+128)
  6015  1C78  0AA6               	incf	___awmod@sign^(0+128),f
  6016  1C79                     l2654:	
  6017  1C79  1FA1               	btfss	(___awmod@divisor+1)^(0+128),7
  6018  1C7A  2C80               	goto	l2658
  6019  1C7B  09A0               	comf	___awmod@divisor^(0+128),f
  6020  1C7C  09A1               	comf	(___awmod@divisor+1)^(0+128),f
  6021  1C7D  0AA0               	incf	___awmod@divisor^(0+128),f
  6022  1C7E  1903               	skipnz
  6023  1C7F  0AA1               	incf	(___awmod@divisor+1)^(0+128),f
  6024  1C80                     l2658:	
  6025  1C80  0820               	movf	___awmod@divisor^(0+128),w
  6026  1C81  0421               	iorwf	(___awmod@divisor+1)^(0+128),w
  6027  1C82  1903               	btfsc	3,2
  6028  1C83  2CA7               	goto	l2676
  6029  1C84  01A5               	clrf	___awmod@counter^(0+128)
  6030  1C85  0AA5               	incf	___awmod@counter^(0+128),f
  6031  1C86                     l2666:	
  6032  1C86  1BA1               	btfsc	(___awmod@divisor+1)^(0+128),7
  6033  1C87  2C92               	goto	l2668
  6034  1C88  3001               	movlw	1
  6035  1C89                     u3725:	
  6036  1C89  35A0               	lslf	___awmod@divisor^(0+128),f
  6037  1C8A  0DA1               	rlf	(___awmod@divisor+1)^(0+128),f
  6038  1C8B  0B89               	decfsz	9,f
  6039  1C8C  2C89               	goto	u3725
  6040  1C8D  3001               	movlw	1
  6041  1C8E  00A4               	movwf	??___awmod^(0+128)
  6042  1C8F  0824               	movf	??___awmod^(0+128),w
  6043  1C90  07A5               	addwf	___awmod@counter^(0+128),f
  6044  1C91  2C86               	goto	l2666
  6045  1C92                     l2668:	
  6046  1C92  0821               	movf	(___awmod@divisor+1)^(0+128),w
  6047  1C93  0223               	subwf	(___awmod@dividend+1)^(0+128),w
  6048  1C94  1D03               	skipz
  6049  1C95  2C98               	goto	u3745
  6050  1C96  0820               	movf	___awmod@divisor^(0+128),w
  6051  1C97  0222               	subwf	___awmod@dividend^(0+128),w
  6052  1C98                     u3745:	
  6053  1C98  1C03               	skipc
  6054  1C99  2C9E               	goto	l2672
  6055  1C9A  0820               	movf	___awmod@divisor^(0+128),w
  6056  1C9B  02A2               	subwf	___awmod@dividend^(0+128),f
  6057  1C9C  0821               	movf	(___awmod@divisor+1)^(0+128),w
  6058  1C9D  3BA3               	subwfb	(___awmod@dividend+1)^(0+128),f
  6059  1C9E                     l2672:	
  6060  1C9E  3001               	movlw	1
  6061  1C9F                     u3755:	
  6062  1C9F  36A1               	lsrf	(___awmod@divisor+1)^(0+128),f
  6063  1CA0  0CA0               	rrf	___awmod@divisor^(0+128),f
  6064  1CA1  0B89               	decfsz	9,f
  6065  1CA2  2C9F               	goto	u3755
  6066  1CA3  3001               	movlw	1
  6067  1CA4  02A5               	subwf	___awmod@counter^(0+128),f
  6068  1CA5  1D03               	btfss	3,2
  6069  1CA6  2C92               	goto	l2668
  6070  1CA7                     l2676:	
  6071  1CA7  0826               	movf	___awmod@sign^(0+128),w
  6072  1CA8  1903               	btfsc	3,2
  6073  1CA9  2CAF               	goto	l2680
  6074  1CAA  09A2               	comf	___awmod@dividend^(0+128),f
  6075  1CAB  09A3               	comf	(___awmod@dividend+1)^(0+128),f
  6076  1CAC  0AA2               	incf	___awmod@dividend^(0+128),f
  6077  1CAD  1903               	skipnz
  6078  1CAE  0AA3               	incf	(___awmod@dividend+1)^(0+128),f
  6079  1CAF                     l2680:	
  6080  1CAF  0823               	movf	(___awmod@dividend+1)^(0+128),w
  6081  1CB0  00A1               	movwf	(?___awmod+1)^(0+128)
  6082  1CB1  0822               	movf	___awmod@dividend^(0+128),w
  6083  1CB2  00A0               	movwf	?___awmod^(0+128)
  6084  1CB3  0008               	return
  6085  1CB4                     __end_of___awmod:	
  6086                           
  6087                           	psect	text9
  6088  1CB4                     __ptext9:	
  6089 ;; *************** function ___awdiv *****************
  6090 ;; Defined at:
  6091 ;;		line 6 in file "/Applications/microchip/xc8/v1.37/sources/common/awdiv.c"
  6092 ;; Parameters:    Size  Location     Type
  6093 ;;  divisor         2    7[BANK1 ] int 
  6094 ;;  dividend        2    9[BANK1 ] int 
  6095 ;; Auto vars:     Size  Location     Type
  6096 ;;  quotient        2   14[BANK1 ] int 
  6097 ;;  sign            1   13[BANK1 ] unsigned char 
  6098 ;;  counter         1   12[BANK1 ] unsigned char 
  6099 ;; Return value:  Size  Location     Type
  6100 ;;                  2    7[BANK1 ] int 
  6101 ;; Registers used:
  6102 ;;		wreg, status,2, status,0
  6103 ;; Tracked objects:
  6104 ;;		On entry : 0/0
  6105 ;;		On exit  : 0/0
  6106 ;;		Unchanged: 0/0
  6107 ;; Data sizes:     COMMON   BANK0   BANK1   BANK2   BANK3   BANK4   BANK5   BANK6   BANK7   BANK8   BANK9  BANK10  BANK1
      +1  BANK12
  6108 ;;      Params:         0       0       4       0       0       0       0       0       0       0       0       0       
      +0       0
  6109 ;;      Locals:         0       0       4       0       0       0       0       0       0       0       0       0       
      +0       0
  6110 ;;      Temps:          0       0       1       0       0       0       0       0       0       0       0       0       
      +0       0
  6111 ;;      Totals:         0       0       9       0       0       0       0       0       0       0       0       0       
      +0       0
  6112 ;;Total ram usage:        9 bytes
  6113 ;; Hardware stack levels used:    1
  6114 ;; Hardware stack levels required when called:    2
  6115 ;; This function calls:
  6116 ;;		Nothing
  6117 ;; This function is called by:
  6118 ;;		_fround
  6119 ;;		_scale
  6120 ;;		_printf
  6121 ;; This function uses a non-reentrant model
  6122 ;;
  6123                           
  6124                           
  6125                           ;psect for function ___awdiv
  6126  1CB4                     ___awdiv:	
  6127                           
  6128                           ;incstack = 0
  6129                           ; Regs used in ___awdiv: [wreg+status,2+status,0]
  6130  1CB4  0021               	movlb	1	; select bank1
  6131  1CB5  01AD               	clrf	___awdiv@sign^(0+128)
  6132  1CB6  1FA8               	btfss	(___awdiv@divisor+1)^(0+128),7
  6133  1CB7  2CBF               	goto	l2610
  6134  1CB8  09A7               	comf	___awdiv@divisor^(0+128),f
  6135  1CB9  09A8               	comf	(___awdiv@divisor+1)^(0+128),f
  6136  1CBA  0AA7               	incf	___awdiv@divisor^(0+128),f
  6137  1CBB  1903               	skipnz
  6138  1CBC  0AA8               	incf	(___awdiv@divisor+1)^(0+128),f
  6139  1CBD  01AD               	clrf	___awdiv@sign^(0+128)
  6140  1CBE  0AAD               	incf	___awdiv@sign^(0+128),f
  6141  1CBF                     l2610:	
  6142  1CBF  1FAA               	btfss	(___awdiv@dividend+1)^(0+128),7
  6143  1CC0  2CCA               	goto	l2616
  6144  1CC1  09A9               	comf	___awdiv@dividend^(0+128),f
  6145  1CC2  09AA               	comf	(___awdiv@dividend+1)^(0+128),f
  6146  1CC3  0AA9               	incf	___awdiv@dividend^(0+128),f
  6147  1CC4  1903               	skipnz
  6148  1CC5  0AAA               	incf	(___awdiv@dividend+1)^(0+128),f
  6149  1CC6  3001               	movlw	1
  6150  1CC7  00AB               	movwf	??___awdiv^(0+128)
  6151  1CC8  082B               	movf	??___awdiv^(0+128),w
  6152  1CC9  06AD               	xorwf	___awdiv@sign^(0+128),f
  6153  1CCA                     l2616:	
  6154  1CCA  01AE               	clrf	___awdiv@quotient^(0+128)
  6155  1CCB  01AF               	clrf	(___awdiv@quotient+1)^(0+128)
  6156  1CCC  0827               	movf	___awdiv@divisor^(0+128),w
  6157  1CCD  0428               	iorwf	(___awdiv@divisor+1)^(0+128),w
  6158  1CCE  1903               	btfsc	3,2
  6159  1CCF  2CF9               	goto	l2638
  6160  1CD0  01AC               	clrf	___awdiv@counter^(0+128)
  6161  1CD1  0AAC               	incf	___awdiv@counter^(0+128),f
  6162  1CD2                     l2626:	
  6163  1CD2  1BA8               	btfsc	(___awdiv@divisor+1)^(0+128),7
  6164  1CD3  2CDE               	goto	l2628
  6165  1CD4  3001               	movlw	1
  6166  1CD5                     u3625:	
  6167  1CD5  35A7               	lslf	___awdiv@divisor^(0+128),f
  6168  1CD6  0DA8               	rlf	(___awdiv@divisor+1)^(0+128),f
  6169  1CD7  0B89               	decfsz	9,f
  6170  1CD8  2CD5               	goto	u3625
  6171  1CD9  3001               	movlw	1
  6172  1CDA  00AB               	movwf	??___awdiv^(0+128)
  6173  1CDB  082B               	movf	??___awdiv^(0+128),w
  6174  1CDC  07AC               	addwf	___awdiv@counter^(0+128),f
  6175  1CDD  2CD2               	goto	l2626
  6176  1CDE                     l2628:	
  6177  1CDE  3001               	movlw	1
  6178  1CDF                     u3645:	
  6179  1CDF  35AE               	lslf	___awdiv@quotient^(0+128),f
  6180  1CE0  0DAF               	rlf	(___awdiv@quotient+1)^(0+128),f
  6181  1CE1  0B89               	decfsz	9,f
  6182  1CE2  2CDF               	goto	u3645
  6183  1CE3  0828               	movf	(___awdiv@divisor+1)^(0+128),w
  6184  1CE4  022A               	subwf	(___awdiv@dividend+1)^(0+128),w
  6185  1CE5  1D03               	skipz
  6186  1CE6  2CE9               	goto	u3655
  6187  1CE7  0827               	movf	___awdiv@divisor^(0+128),w
  6188  1CE8  0229               	subwf	___awdiv@dividend^(0+128),w
  6189  1CE9                     u3655:	
  6190  1CE9  1C03               	skipc
  6191  1CEA  2CF0               	goto	l2634
  6192  1CEB  0827               	movf	___awdiv@divisor^(0+128),w
  6193  1CEC  02A9               	subwf	___awdiv@dividend^(0+128),f
  6194  1CED  0828               	movf	(___awdiv@divisor+1)^(0+128),w
  6195  1CEE  3BAA               	subwfb	(___awdiv@dividend+1)^(0+128),f
  6196  1CEF  142E               	bsf	___awdiv@quotient^(0+128),0
  6197  1CF0                     l2634:	
  6198  1CF0  3001               	movlw	1
  6199  1CF1                     u3665:	
  6200  1CF1  36A8               	lsrf	(___awdiv@divisor+1)^(0+128),f
  6201  1CF2  0CA7               	rrf	___awdiv@divisor^(0+128),f
  6202  1CF3  0B89               	decfsz	9,f
  6203  1CF4  2CF1               	goto	u3665
  6204  1CF5  3001               	movlw	1
  6205  1CF6  02AC               	subwf	___awdiv@counter^(0+128),f
  6206  1CF7  1D03               	btfss	3,2
  6207  1CF8  2CDE               	goto	l2628
  6208  1CF9                     l2638:	
  6209  1CF9  082D               	movf	___awdiv@sign^(0+128),w
  6210  1CFA  1903               	btfsc	3,2
  6211  1CFB  2D01               	goto	l2642
  6212  1CFC  09AE               	comf	___awdiv@quotient^(0+128),f
  6213  1CFD  09AF               	comf	(___awdiv@quotient+1)^(0+128),f
  6214  1CFE  0AAE               	incf	___awdiv@quotient^(0+128),f
  6215  1CFF  1903               	skipnz
  6216  1D00  0AAF               	incf	(___awdiv@quotient+1)^(0+128),f
  6217  1D01                     l2642:	
  6218  1D01  082F               	movf	(___awdiv@quotient+1)^(0+128),w
  6219  1D02  00A8               	movwf	(?___awdiv+1)^(0+128)
  6220  1D03  082E               	movf	___awdiv@quotient^(0+128),w
  6221  1D04  00A7               	movwf	?___awdiv^(0+128)
  6222  1D05  0008               	return
  6223  1D06                     __end_of___awdiv:	
  6224                           
  6225                           	psect	text10
  6226  1F4A                     __ptext10:	
  6227 ;; *************** function __tdiv_to_l_ *****************
  6228 ;; Defined at:
  6229 ;;		line 60 in file "/Applications/microchip/xc8/v1.37/sources/common/ftdivl.c"
  6230 ;; Parameters:    Size  Location     Type
  6231 ;;  f1              3    0[BANK1 ] float 
  6232 ;;  f2              3    3[BANK1 ] float 
  6233 ;; Auto vars:     Size  Location     Type
  6234 ;;  quot            4   10[BANK1 ] unsigned long 
  6235 ;;  exp1            1   15[BANK1 ] unsigned char 
  6236 ;;  cntr            1   14[BANK1 ] unsigned char 
  6237 ;; Return value:  Size  Location     Type
  6238 ;;                  4    0[BANK1 ] unsigned long 
  6239 ;; Registers used:
  6240 ;;		wreg, status,2, status,0
  6241 ;; Tracked objects:
  6242 ;;		On entry : 0/0
  6243 ;;		On exit  : 0/0
  6244 ;;		Unchanged: 0/0
  6245 ;; Data sizes:     COMMON   BANK0   BANK1   BANK2   BANK3   BANK4   BANK5   BANK6   BANK7   BANK8   BANK9  BANK10  BANK1
      +1  BANK12
  6246 ;;      Params:         0       0       6       0       0       0       0       0       0       0       0       0       
      +0       0
  6247 ;;      Locals:         0       0       6       0       0       0       0       0       0       0       0       0       
      +0       0
  6248 ;;      Temps:          0       0       4       0       0       0       0       0       0       0       0       0       
      +0       0
  6249 ;;      Totals:         0       0      16       0       0       0       0       0       0       0       0       0       
      +0       0
  6250 ;;Total ram usage:       16 bytes
  6251 ;; Hardware stack levels used:    1
  6252 ;; Hardware stack levels required when called:    2
  6253 ;; This function calls:
  6254 ;;		Nothing
  6255 ;; This function is called by:
  6256 ;;		_printf
  6257 ;; This function uses a non-reentrant model
  6258 ;;
  6259                           
  6260                           
  6261                           ;psect for function __tdiv_to_l_
  6262  1F4A                     __tdiv_to_l_:	
  6263                           
  6264                           ;incstack = 0
  6265                           ; Regs used in __tdiv_to_l_: [wreg+status,2+status,0]
  6266  1F4A  0021               	movlb	1	; select bank1
  6267  1F4B  0820               	movf	__tdiv_to_l_@f1^(0+128),w
  6268  1F4C  00A6               	movwf	??__tdiv_to_l_^(0+128)
  6269  1F4D  0821               	movf	(__tdiv_to_l_@f1+1)^(0+128),w
  6270  1F4E  00A7               	movwf	(??__tdiv_to_l_^(0+128)+1)
  6271  1F4F  0822               	movf	(__tdiv_to_l_@f1+2)^(0+128),w
  6272  1F50  00A8               	movwf	(??__tdiv_to_l_^(0+128)+2)
  6273  1F51  1003               	clrc
  6274  1F52  0D27               	rlf	(??__tdiv_to_l_^(0+128)+1),w
  6275  1F53  0D28               	rlf	(??__tdiv_to_l_^(0+128)+2),w
  6276  1F54  00A9               	movwf	(??__tdiv_to_l_+3)^(0+128)
  6277  1F55  0829               	movf	(??__tdiv_to_l_+3)^(0+128),w
  6278  1F56  00AF               	movwf	__tdiv_to_l_@exp1^(0+128)
  6279  1F57  082F               	movf	__tdiv_to_l_@exp1^(0+128),w
  6280  1F58  1D03               	btfss	3,2
  6281  1F59  2F63               	goto	l3100
  6282  1F5A  3000               	movlw	0
  6283  1F5B  00A3               	movwf	(?__tdiv_to_l_+3)^(0+128)
  6284  1F5C  3000               	movlw	0
  6285  1F5D  00A2               	movwf	(?__tdiv_to_l_+2)^(0+128)
  6286  1F5E  3000               	movlw	0
  6287  1F5F  00A1               	movwf	(?__tdiv_to_l_+1)^(0+128)
  6288  1F60  3000               	movlw	0
  6289  1F61  00A0               	movwf	?__tdiv_to_l_^(0+128)
  6290  1F62  0008               	return
  6291  1F63                     l3100:	
  6292  1F63  0823               	movf	__tdiv_to_l_@f2^(0+128),w
  6293  1F64  00A6               	movwf	??__tdiv_to_l_^(0+128)
  6294  1F65  0824               	movf	(__tdiv_to_l_@f2+1)^(0+128),w
  6295  1F66  00A7               	movwf	(??__tdiv_to_l_^(0+128)+1)
  6296  1F67  0825               	movf	(__tdiv_to_l_@f2+2)^(0+128),w
  6297  1F68  00A8               	movwf	(??__tdiv_to_l_^(0+128)+2)
  6298  1F69  1003               	clrc
  6299  1F6A  0D27               	rlf	(??__tdiv_to_l_^(0+128)+1),w
  6300  1F6B  0D28               	rlf	(??__tdiv_to_l_^(0+128)+2),w
  6301  1F6C  00A9               	movwf	(??__tdiv_to_l_+3)^(0+128)
  6302  1F6D  0829               	movf	(??__tdiv_to_l_+3)^(0+128),w
  6303  1F6E  00AE               	movwf	__tdiv_to_l_@cntr^(0+128)
  6304  1F6F  082E               	movf	__tdiv_to_l_@cntr^(0+128),w
  6305  1F70  1D03               	btfss	3,2
  6306  1F71  2F7B               	goto	l507
  6307  1F72  3000               	movlw	0
  6308  1F73  00A3               	movwf	(?__tdiv_to_l_+3)^(0+128)
  6309  1F74  3000               	movlw	0
  6310  1F75  00A2               	movwf	(?__tdiv_to_l_+2)^(0+128)
  6311  1F76  3000               	movlw	0
  6312  1F77  00A1               	movwf	(?__tdiv_to_l_+1)^(0+128)
  6313  1F78  3000               	movlw	0
  6314  1F79  00A0               	movwf	?__tdiv_to_l_^(0+128)
  6315  1F7A  0008               	return
  6316  1F7B                     l507:	
  6317  1F7B  17A1               	bsf	(__tdiv_to_l_@f1^(0+128)+1),7
  6318  1F7C  30FF               	movlw	255
  6319  1F7D  05A0               	andwf	__tdiv_to_l_@f1^(0+128),f
  6320  1F7E  30FF               	movlw	255
  6321  1F7F  05A1               	andwf	(__tdiv_to_l_@f1+1)^(0+128),f
  6322  1F80  3000               	movlw	0
  6323  1F81  05A2               	andwf	(__tdiv_to_l_@f1+2)^(0+128),f
  6324  1F82  17A4               	bsf	(__tdiv_to_l_@f2^(0+128)+1),7
  6325  1F83  30FF               	movlw	255
  6326  1F84  05A3               	andwf	__tdiv_to_l_@f2^(0+128),f
  6327  1F85  30FF               	movlw	255
  6328  1F86  05A4               	andwf	(__tdiv_to_l_@f2+1)^(0+128),f
  6329  1F87  3000               	movlw	0
  6330  1F88  05A5               	andwf	(__tdiv_to_l_@f2+2)^(0+128),f
  6331  1F89  3000               	movlw	0
  6332  1F8A  00AD               	movwf	(__tdiv_to_l_@quot+3)^(0+128)
  6333  1F8B  3000               	movlw	0
  6334  1F8C  00AC               	movwf	(__tdiv_to_l_@quot+2)^(0+128)
  6335  1F8D  3000               	movlw	0
  6336  1F8E  00AB               	movwf	(__tdiv_to_l_@quot+1)^(0+128)
  6337  1F8F  3000               	movlw	0
  6338  1F90  00AA               	movwf	__tdiv_to_l_@quot^(0+128)
  6339  1F91  307F               	movlw	127
  6340  1F92  02AF               	subwf	__tdiv_to_l_@exp1^(0+128),f
  6341  1F93  3098               	movlw	152
  6342  1F94  072E               	addwf	__tdiv_to_l_@cntr^(0+128),w
  6343  1F95  00A6               	movwf	??__tdiv_to_l_^(0+128)
  6344  1F96  0826               	movf	??__tdiv_to_l_^(0+128),w
  6345  1F97  02AF               	subwf	__tdiv_to_l_@exp1^(0+128),f
  6346  1F98  3018               	movlw	24
  6347  1F99  00A6               	movwf	??__tdiv_to_l_^(0+128)
  6348  1F9A  0826               	movf	??__tdiv_to_l_^(0+128),w
  6349  1F9B  00AE               	movwf	__tdiv_to_l_@cntr^(0+128)
  6350  1F9C                     l3114:	
  6351  1F9C  3001               	movlw	1
  6352  1F9D                     u4595:	
  6353  1F9D  35AA               	lslf	__tdiv_to_l_@quot^(0+128),f
  6354  1F9E  0DAB               	rlf	(__tdiv_to_l_@quot+1)^(0+128),f
  6355  1F9F  0DAC               	rlf	(__tdiv_to_l_@quot+2)^(0+128),f
  6356  1FA0  0DAD               	rlf	(__tdiv_to_l_@quot+3)^(0+128),f
  6357  1FA1  0B89               	decfsz	9,f
  6358  1FA2  2F9D               	goto	u4595
  6359  1FA3  0825               	movf	(__tdiv_to_l_@f2+2)^(0+128),w
  6360  1FA4  0222               	subwf	(__tdiv_to_l_@f1+2)^(0+128),w
  6361  1FA5  1D03               	skipz
  6362  1FA6  2FAD               	goto	u4605
  6363  1FA7  0824               	movf	(__tdiv_to_l_@f2+1)^(0+128),w
  6364  1FA8  0221               	subwf	(__tdiv_to_l_@f1+1)^(0+128),w
  6365  1FA9  1D03               	skipz
  6366  1FAA  2FAD               	goto	u4605
  6367  1FAB  0823               	movf	__tdiv_to_l_@f2^(0+128),w
  6368  1FAC  0220               	subwf	__tdiv_to_l_@f1^(0+128),w
  6369  1FAD                     u4605:	
  6370  1FAD  1C03               	skipc
  6371  1FAE  2FB6               	goto	l3122
  6372  1FAF  0823               	movf	__tdiv_to_l_@f2^(0+128),w
  6373  1FB0  02A0               	subwf	__tdiv_to_l_@f1^(0+128),f
  6374  1FB1  0824               	movf	(__tdiv_to_l_@f2+1)^(0+128),w
  6375  1FB2  3BA1               	subwfb	(__tdiv_to_l_@f1+1)^(0+128),f
  6376  1FB3  0825               	movf	(__tdiv_to_l_@f2+2)^(0+128),w
  6377  1FB4  3BA2               	subwfb	(__tdiv_to_l_@f1+2)^(0+128),f
  6378  1FB5  142A               	bsf	__tdiv_to_l_@quot^(0+128),0
  6379  1FB6                     l3122:	
  6380  1FB6  3001               	movlw	1
  6381  1FB7                     u4615:	
  6382  1FB7  35A0               	lslf	__tdiv_to_l_@f1^(0+128),f
  6383  1FB8  0DA1               	rlf	(__tdiv_to_l_@f1+1)^(0+128),f
  6384  1FB9  0DA2               	rlf	(__tdiv_to_l_@f1+2)^(0+128),f
  6385  1FBA  0B89               	decfsz	9,f
  6386  1FBB  2FB7               	goto	u4615
  6387  1FBC  3001               	movlw	1
  6388  1FBD  02AE               	subwf	__tdiv_to_l_@cntr^(0+128),f
  6389  1FBE  1D03               	btfss	3,2
  6390  1FBF  2F9C               	goto	l3114
  6391  1FC0  1FAF               	btfss	__tdiv_to_l_@exp1^(0+128),7
  6392  1FC1  2FDE               	goto	l3134
  6393  1FC2  082F               	movf	__tdiv_to_l_@exp1^(0+128),w
  6394  1FC3  3A80               	xorlw	128
  6395  1FC4  3E97               	addlw	151
  6396  1FC5  1803               	skipnc
  6397  1FC6  2FD0               	goto	l3132
  6398  1FC7  3000               	movlw	0
  6399  1FC8  00A3               	movwf	(?__tdiv_to_l_+3)^(0+128)
  6400  1FC9  3000               	movlw	0
  6401  1FCA  00A2               	movwf	(?__tdiv_to_l_+2)^(0+128)
  6402  1FCB  3000               	movlw	0
  6403  1FCC  00A1               	movwf	(?__tdiv_to_l_+1)^(0+128)
  6404  1FCD  3000               	movlw	0
  6405  1FCE  00A0               	movwf	?__tdiv_to_l_^(0+128)
  6406  1FCF  0008               	return
  6407  1FD0                     l3132:	
  6408  1FD0  3001               	movlw	1
  6409  1FD1                     u4655:	
  6410  1FD1  36AD               	lsrf	(__tdiv_to_l_@quot+3)^(0+128),f
  6411  1FD2  0CAC               	rrf	(__tdiv_to_l_@quot+2)^(0+128),f
  6412  1FD3  0CAB               	rrf	(__tdiv_to_l_@quot+1)^(0+128),f
  6413  1FD4  0CAA               	rrf	__tdiv_to_l_@quot^(0+128),f
  6414  1FD5  0B89               	decfsz	9,f
  6415  1FD6  2FD1               	goto	u4655
  6416  1FD7  3001               	movlw	1
  6417  1FD8  00A6               	movwf	??__tdiv_to_l_^(0+128)
  6418  1FD9  0826               	movf	??__tdiv_to_l_^(0+128),w
  6419  1FDA  07AF               	addwf	__tdiv_to_l_@exp1^(0+128),f
  6420  1FDB  1903               	btfsc	3,2
  6421  1FDC  2FF7               	goto	l3142
  6422  1FDD  2FD0               	goto	l3132
  6423  1FDE                     l3134:	
  6424  1FDE  3018               	movlw	24
  6425  1FDF  022F               	subwf	__tdiv_to_l_@exp1^(0+128),w
  6426  1FE0  1C03               	skipc
  6427  1FE1  2FF4               	goto	l517
  6428  1FE2  3000               	movlw	0
  6429  1FE3  00A3               	movwf	(?__tdiv_to_l_+3)^(0+128)
  6430  1FE4  3000               	movlw	0
  6431  1FE5  00A2               	movwf	(?__tdiv_to_l_+2)^(0+128)
  6432  1FE6  3000               	movlw	0
  6433  1FE7  00A1               	movwf	(?__tdiv_to_l_+1)^(0+128)
  6434  1FE8  3000               	movlw	0
  6435  1FE9  00A0               	movwf	?__tdiv_to_l_^(0+128)
  6436  1FEA  0008               	return
  6437  1FEB                     l3140:	
  6438  1FEB  3001               	movlw	1
  6439  1FEC                     u4685:	
  6440  1FEC  35AA               	lslf	__tdiv_to_l_@quot^(0+128),f
  6441  1FED  0DAB               	rlf	(__tdiv_to_l_@quot+1)^(0+128),f
  6442  1FEE  0DAC               	rlf	(__tdiv_to_l_@quot+2)^(0+128),f
  6443  1FEF  0DAD               	rlf	(__tdiv_to_l_@quot+3)^(0+128),f
  6444  1FF0  0B89               	decfsz	9,f
  6445  1FF1  2FEC               	goto	u4685
  6446  1FF2  3001               	movlw	1
  6447  1FF3  02AF               	subwf	__tdiv_to_l_@exp1^(0+128),f
  6448  1FF4                     l517:	
  6449  1FF4  082F               	movf	__tdiv_to_l_@exp1^(0+128),w
  6450  1FF5  1D03               	btfss	3,2
  6451  1FF6  2FEB               	goto	l3140
  6452  1FF7                     l3142:	
  6453  1FF7  082D               	movf	(__tdiv_to_l_@quot+3)^(0+128),w
  6454  1FF8  00A3               	movwf	(?__tdiv_to_l_+3)^(0+128)
  6455  1FF9  082C               	movf	(__tdiv_to_l_@quot+2)^(0+128),w
  6456  1FFA  00A2               	movwf	(?__tdiv_to_l_+2)^(0+128)
  6457  1FFB  082B               	movf	(__tdiv_to_l_@quot+1)^(0+128),w
  6458  1FFC  00A1               	movwf	(?__tdiv_to_l_+1)^(0+128)
  6459  1FFD  082A               	movf	__tdiv_to_l_@quot^(0+128),w
  6460  1FFE  00A0               	movwf	?__tdiv_to_l_^(0+128)
  6461  1FFF  0008               	return
  6462  2000                     __end_of__tdiv_to_l_:	
  6463                           
  6464                           	psect	text11
  6465  081F                     __ptext11:	
  6466 ;; *************** function __div_to_l_ *****************
  6467 ;; Defined at:
  6468 ;;		line 60 in file "/Applications/microchip/xc8/v1.37/sources/common/fldivl.c"
  6469 ;; Parameters:    Size  Location     Type
  6470 ;;  f1              4    0[BANK1 ] unsigned long 
  6471 ;;  f2              4    4[BANK1 ] unsigned long 
  6472 ;; Auto vars:     Size  Location     Type
  6473 ;;  quot            4   13[BANK1 ] unsigned long 
  6474 ;;  exp1            1   18[BANK1 ] unsigned char 
  6475 ;;  cntr            1   17[BANK1 ] unsigned char 
  6476 ;; Return value:  Size  Location     Type
  6477 ;;                  4    0[BANK1 ] unsigned long 
  6478 ;; Registers used:
  6479 ;;		wreg, status,2, status,0
  6480 ;; Tracked objects:
  6481 ;;		On entry : 0/0
  6482 ;;		On exit  : 0/0
  6483 ;;		Unchanged: 0/0
  6484 ;; Data sizes:     COMMON   BANK0   BANK1   BANK2   BANK3   BANK4   BANK5   BANK6   BANK7   BANK8   BANK9  BANK10  BANK1
      +1  BANK12
  6485 ;;      Params:         0       0       8       0       0       0       0       0       0       0       0       0       
      +0       0
  6486 ;;      Locals:         0       0       6       0       0       0       0       0       0       0       0       0       
      +0       0
  6487 ;;      Temps:          0       0       5       0       0       0       0       0       0       0       0       0       
      +0       0
  6488 ;;      Totals:         0       0      19       0       0       0       0       0       0       0       0       0       
      +0       0
  6489 ;;Total ram usage:       19 bytes
  6490 ;; Hardware stack levels used:    1
  6491 ;; Hardware stack levels required when called:    2
  6492 ;; This function calls:
  6493 ;;		Nothing
  6494 ;; This function is called by:
  6495 ;;		_printf
  6496 ;; This function uses a non-reentrant model
  6497 ;;
  6498                           
  6499                           
  6500                           ;psect for function __div_to_l_
  6501  081F                     __div_to_l_:	
  6502                           
  6503                           ;incstack = 0
  6504                           ; Regs used in __div_to_l_: [wreg+status,2+status,0]
  6505  081F  0021               	movlb	1	; select bank1
  6506  0820  0820               	movf	__div_to_l_@f1^(0+128),w
  6507  0821  00A8               	movwf	??__div_to_l_^(0+128)
  6508  0822  0821               	movf	(__div_to_l_@f1+1)^(0+128),w
  6509  0823  00A9               	movwf	(??__div_to_l_^(0+128)+1)
  6510  0824  0822               	movf	(__div_to_l_@f1+2)^(0+128),w
  6511  0825  00AA               	movwf	(??__div_to_l_^(0+128)+2)
  6512  0826  0823               	movf	(__div_to_l_@f1+3)^(0+128),w
  6513  0827  00AB               	movwf	(??__div_to_l_^(0+128)+3)
  6514  0828  1003               	clrc
  6515  0829  0D2A               	rlf	(??__div_to_l_^(0+128)+2),w
  6516  082A  0D2B               	rlf	(??__div_to_l_^(0+128)+3),w
  6517  082B  00AC               	movwf	(??__div_to_l_+4)^(0+128)
  6518  082C  082C               	movf	(??__div_to_l_+4)^(0+128),w
  6519  082D  00B2               	movwf	__div_to_l_@exp1^(0+128)
  6520  082E  0832               	movf	__div_to_l_@exp1^(0+128),w
  6521  082F  1D03               	btfss	3,2
  6522  0830  283A               	goto	l3152
  6523  0831  3000               	movlw	0
  6524  0832  00A3               	movwf	(?__div_to_l_+3)^(0+128)
  6525  0833  3000               	movlw	0
  6526  0834  00A2               	movwf	(?__div_to_l_+2)^(0+128)
  6527  0835  3000               	movlw	0
  6528  0836  00A1               	movwf	(?__div_to_l_+1)^(0+128)
  6529  0837  3000               	movlw	0
  6530  0838  00A0               	movwf	?__div_to_l_^(0+128)
  6531  0839  0008               	return
  6532  083A                     l3152:	
  6533  083A  0824               	movf	__div_to_l_@f2^(0+128),w
  6534  083B  00A8               	movwf	??__div_to_l_^(0+128)
  6535  083C  0825               	movf	(__div_to_l_@f2+1)^(0+128),w
  6536  083D  00A9               	movwf	(??__div_to_l_^(0+128)+1)
  6537  083E  0826               	movf	(__div_to_l_@f2+2)^(0+128),w
  6538  083F  00AA               	movwf	(??__div_to_l_^(0+128)+2)
  6539  0840  0827               	movf	(__div_to_l_@f2+3)^(0+128),w
  6540  0841  00AB               	movwf	(??__div_to_l_^(0+128)+3)
  6541  0842  1003               	clrc
  6542  0843  0D2A               	rlf	(??__div_to_l_^(0+128)+2),w
  6543  0844  0D2B               	rlf	(??__div_to_l_^(0+128)+3),w
  6544  0845  00AC               	movwf	(??__div_to_l_+4)^(0+128)
  6545  0846  082C               	movf	(??__div_to_l_+4)^(0+128),w
  6546  0847  00B1               	movwf	__div_to_l_@cntr^(0+128)
  6547  0848  0831               	movf	__div_to_l_@cntr^(0+128),w
  6548  0849  1D03               	btfss	3,2
  6549  084A  2854               	goto	l403
  6550  084B  3000               	movlw	0
  6551  084C  00A3               	movwf	(?__div_to_l_+3)^(0+128)
  6552  084D  3000               	movlw	0
  6553  084E  00A2               	movwf	(?__div_to_l_+2)^(0+128)
  6554  084F  3000               	movlw	0
  6555  0850  00A1               	movwf	(?__div_to_l_+1)^(0+128)
  6556  0851  3000               	movlw	0
  6557  0852  00A0               	movwf	?__div_to_l_^(0+128)
  6558  0853  0008               	return
  6559  0854                     l403:	
  6560  0854  17A2               	bsf	(__div_to_l_@f1^(0+128)+2),7
  6561  0855  30FF               	movlw	255
  6562  0856  05A0               	andwf	__div_to_l_@f1^(0+128),f
  6563  0857  30FF               	movlw	255
  6564  0858  05A1               	andwf	(__div_to_l_@f1+1)^(0+128),f
  6565  0859  30FF               	movlw	255
  6566  085A  05A2               	andwf	(__div_to_l_@f1+2)^(0+128),f
  6567  085B  3000               	movlw	0
  6568  085C  05A3               	andwf	(__div_to_l_@f1+3)^(0+128),f
  6569  085D  17A6               	bsf	(__div_to_l_@f2^(0+128)+2),7
  6570  085E  30FF               	movlw	255
  6571  085F  05A4               	andwf	__div_to_l_@f2^(0+128),f
  6572  0860  30FF               	movlw	255
  6573  0861  05A5               	andwf	(__div_to_l_@f2+1)^(0+128),f
  6574  0862  30FF               	movlw	255
  6575  0863  05A6               	andwf	(__div_to_l_@f2+2)^(0+128),f
  6576  0864  3000               	movlw	0
  6577  0865  05A7               	andwf	(__div_to_l_@f2+3)^(0+128),f
  6578  0866  3000               	movlw	0
  6579  0867  00B0               	movwf	(__div_to_l_@quot+3)^(0+128)
  6580  0868  3000               	movlw	0
  6581  0869  00AF               	movwf	(__div_to_l_@quot+2)^(0+128)
  6582  086A  3000               	movlw	0
  6583  086B  00AE               	movwf	(__div_to_l_@quot+1)^(0+128)
  6584  086C  3000               	movlw	0
  6585  086D  00AD               	movwf	__div_to_l_@quot^(0+128)
  6586  086E  307F               	movlw	127
  6587  086F  02B2               	subwf	__div_to_l_@exp1^(0+128),f
  6588  0870  30A0               	movlw	160
  6589  0871  0731               	addwf	__div_to_l_@cntr^(0+128),w
  6590  0872  00A8               	movwf	??__div_to_l_^(0+128)
  6591  0873  0828               	movf	??__div_to_l_^(0+128),w
  6592  0874  02B2               	subwf	__div_to_l_@exp1^(0+128),f
  6593  0875  3020               	movlw	32
  6594  0876  00A8               	movwf	??__div_to_l_^(0+128)
  6595  0877  0828               	movf	??__div_to_l_^(0+128),w
  6596  0878  00B1               	movwf	__div_to_l_@cntr^(0+128)
  6597  0879                     l3166:	
  6598  0879  3001               	movlw	1
  6599  087A                     u4725:	
  6600  087A  35AD               	lslf	__div_to_l_@quot^(0+128),f
  6601  087B  0DAE               	rlf	(__div_to_l_@quot+1)^(0+128),f
  6602  087C  0DAF               	rlf	(__div_to_l_@quot+2)^(0+128),f
  6603  087D  0DB0               	rlf	(__div_to_l_@quot+3)^(0+128),f
  6604  087E  0B89               	decfsz	9,f
  6605  087F  287A               	goto	u4725
  6606  0880  0827               	movf	(__div_to_l_@f2+3)^(0+128),w
  6607  0881  0223               	subwf	(__div_to_l_@f1+3)^(0+128),w
  6608  0882  1D03               	skipz
  6609  0883  288E               	goto	u4735
  6610  0884  0826               	movf	(__div_to_l_@f2+2)^(0+128),w
  6611  0885  0222               	subwf	(__div_to_l_@f1+2)^(0+128),w
  6612  0886  1D03               	skipz
  6613  0887  288E               	goto	u4735
  6614  0888  0825               	movf	(__div_to_l_@f2+1)^(0+128),w
  6615  0889  0221               	subwf	(__div_to_l_@f1+1)^(0+128),w
  6616  088A  1D03               	skipz
  6617  088B  288E               	goto	u4735
  6618  088C  0824               	movf	__div_to_l_@f2^(0+128),w
  6619  088D  0220               	subwf	__div_to_l_@f1^(0+128),w
  6620  088E                     u4735:	
  6621  088E  1C03               	skipc
  6622  088F  2899               	goto	l3174
  6623  0890  0824               	movf	__div_to_l_@f2^(0+128),w
  6624  0891  02A0               	subwf	__div_to_l_@f1^(0+128),f
  6625  0892  0825               	movf	(__div_to_l_@f2+1)^(0+128),w
  6626  0893  3BA1               	subwfb	(__div_to_l_@f1+1)^(0+128),f
  6627  0894  0826               	movf	(__div_to_l_@f2+2)^(0+128),w
  6628  0895  3BA2               	subwfb	(__div_to_l_@f1+2)^(0+128),f
  6629  0896  0827               	movf	(__div_to_l_@f2+3)^(0+128),w
  6630  0897  3BA3               	subwfb	(__div_to_l_@f1+3)^(0+128),f
  6631  0898  142D               	bsf	__div_to_l_@quot^(0+128),0
  6632  0899                     l3174:	
  6633  0899  3001               	movlw	1
  6634  089A                     u4745:	
  6635  089A  35A0               	lslf	__div_to_l_@f1^(0+128),f
  6636  089B  0DA1               	rlf	(__div_to_l_@f1+1)^(0+128),f
  6637  089C  0DA2               	rlf	(__div_to_l_@f1+2)^(0+128),f
  6638  089D  0DA3               	rlf	(__div_to_l_@f1+3)^(0+128),f
  6639  089E  0B89               	decfsz	9,f
  6640  089F  289A               	goto	u4745
  6641  08A0  3001               	movlw	1
  6642  08A1  02B1               	subwf	__div_to_l_@cntr^(0+128),f
  6643  08A2  1D03               	btfss	3,2
  6644  08A3  2879               	goto	l3166
  6645  08A4  1FB2               	btfss	__div_to_l_@exp1^(0+128),7
  6646  08A5  28C2               	goto	l3186
  6647  08A6  0832               	movf	__div_to_l_@exp1^(0+128),w
  6648  08A7  3A80               	xorlw	128
  6649  08A8  3E9F               	addlw	159
  6650  08A9  1803               	skipnc
  6651  08AA  28B4               	goto	l3184
  6652  08AB  3000               	movlw	0
  6653  08AC  00A3               	movwf	(?__div_to_l_+3)^(0+128)
  6654  08AD  3000               	movlw	0
  6655  08AE  00A2               	movwf	(?__div_to_l_+2)^(0+128)
  6656  08AF  3000               	movlw	0
  6657  08B0  00A1               	movwf	(?__div_to_l_+1)^(0+128)
  6658  08B1  3000               	movlw	0
  6659  08B2  00A0               	movwf	?__div_to_l_^(0+128)
  6660  08B3  0008               	return
  6661  08B4                     l3184:	
  6662  08B4  3001               	movlw	1
  6663  08B5                     u4785:	
  6664  08B5  36B0               	lsrf	(__div_to_l_@quot+3)^(0+128),f
  6665  08B6  0CAF               	rrf	(__div_to_l_@quot+2)^(0+128),f
  6666  08B7  0CAE               	rrf	(__div_to_l_@quot+1)^(0+128),f
  6667  08B8  0CAD               	rrf	__div_to_l_@quot^(0+128),f
  6668  08B9  0B89               	decfsz	9,f
  6669  08BA  28B5               	goto	u4785
  6670  08BB  3001               	movlw	1
  6671  08BC  00A8               	movwf	??__div_to_l_^(0+128)
  6672  08BD  0828               	movf	??__div_to_l_^(0+128),w
  6673  08BE  07B2               	addwf	__div_to_l_@exp1^(0+128),f
  6674  08BF  1903               	btfsc	3,2
  6675  08C0  28DB               	goto	l3194
  6676  08C1  28B4               	goto	l3184
  6677  08C2                     l3186:	
  6678  08C2  3020               	movlw	32
  6679  08C3  0232               	subwf	__div_to_l_@exp1^(0+128),w
  6680  08C4  1C03               	skipc
  6681  08C5  28D8               	goto	l413
  6682  08C6  3000               	movlw	0
  6683  08C7  00A3               	movwf	(?__div_to_l_+3)^(0+128)
  6684  08C8  3000               	movlw	0
  6685  08C9  00A2               	movwf	(?__div_to_l_+2)^(0+128)
  6686  08CA  3000               	movlw	0
  6687  08CB  00A1               	movwf	(?__div_to_l_+1)^(0+128)
  6688  08CC  3000               	movlw	0
  6689  08CD  00A0               	movwf	?__div_to_l_^(0+128)
  6690  08CE  0008               	return
  6691  08CF                     l3192:	
  6692  08CF  3001               	movlw	1
  6693  08D0                     u4815:	
  6694  08D0  35AD               	lslf	__div_to_l_@quot^(0+128),f
  6695  08D1  0DAE               	rlf	(__div_to_l_@quot+1)^(0+128),f
  6696  08D2  0DAF               	rlf	(__div_to_l_@quot+2)^(0+128),f
  6697  08D3  0DB0               	rlf	(__div_to_l_@quot+3)^(0+128),f
  6698  08D4  0B89               	decfsz	9,f
  6699  08D5  28D0               	goto	u4815
  6700  08D6  3001               	movlw	1
  6701  08D7  02B2               	subwf	__div_to_l_@exp1^(0+128),f
  6702  08D8                     l413:	
  6703  08D8  0832               	movf	__div_to_l_@exp1^(0+128),w
  6704  08D9  1D03               	btfss	3,2
  6705  08DA  28CF               	goto	l3192
  6706  08DB                     l3194:	
  6707  08DB  0830               	movf	(__div_to_l_@quot+3)^(0+128),w
  6708  08DC  00A3               	movwf	(?__div_to_l_+3)^(0+128)
  6709  08DD  082F               	movf	(__div_to_l_@quot+2)^(0+128),w
  6710  08DE  00A2               	movwf	(?__div_to_l_+2)^(0+128)
  6711  08DF  082E               	movf	(__div_to_l_@quot+1)^(0+128),w
  6712  08E0  00A1               	movwf	(?__div_to_l_+1)^(0+128)
  6713  08E1  082D               	movf	__div_to_l_@quot^(0+128),w
  6714  08E2  00A0               	movwf	?__div_to_l_^(0+128)
  6715  08E3  0008               	return
  6716  08E4                     __end_of__div_to_l_:	
  6717                           
  6718                           	psect	text12
  6719  1E1A                     __ptext12:	
  6720 ;; *************** function ___xxtofl *****************
  6721 ;; Defined at:
  6722 ;;		line 10 in file "/Applications/microchip/xc8/v1.37/sources/common/xxtofl.c"
  6723 ;; Parameters:    Size  Location     Type
  6724 ;;  sign            1    wreg     unsigned char 
  6725 ;;  val             4    0[BANK1 ] long 
  6726 ;; Auto vars:     Size  Location     Type
  6727 ;;  sign            1    8[BANK1 ] unsigned char 
  6728 ;;  arg             4   10[BANK1 ] unsigned long 
  6729 ;;  exp             1    9[BANK1 ] unsigned char 
  6730 ;; Return value:  Size  Location     Type
  6731 ;;                  4    0[BANK1 ] unsigned char 
  6732 ;; Registers used:
  6733 ;;		wreg, status,2, status,0
  6734 ;; Tracked objects:
  6735 ;;		On entry : 0/0
  6736 ;;		On exit  : 0/0
  6737 ;;		Unchanged: 0/0
  6738 ;; Data sizes:     COMMON   BANK0   BANK1   BANK2   BANK3   BANK4   BANK5   BANK6   BANK7   BANK8   BANK9  BANK10  BANK1
      +1  BANK12
  6739 ;;      Params:         0       0       4       0       0       0       0       0       0       0       0       0       
      +0       0
  6740 ;;      Locals:         0       0       6       0       0       0       0       0       0       0       0       0       
      +0       0
  6741 ;;      Temps:          0       0       4       0       0       0       0       0       0       0       0       0       
      +0       0
  6742 ;;      Totals:         0       0      14       0       0       0       0       0       0       0       0       0       
      +0       0
  6743 ;;Total ram usage:       14 bytes
  6744 ;; Hardware stack levels used:    1
  6745 ;; Hardware stack levels required when called:    2
  6746 ;; This function calls:
  6747 ;;		Nothing
  6748 ;; This function is called by:
  6749 ;;		_printf
  6750 ;; This function uses a non-reentrant model
  6751 ;;
  6752                           
  6753                           
  6754                           ;psect for function ___xxtofl
  6755  1E1A                     ___xxtofl:	
  6756                           
  6757                           ;incstack = 0
  6758                           ; Regs used in ___xxtofl: [wreg+status,2+status,0]
  6759                           ;___xxtofl@sign stored from wreg
  6760  1E1A  0021               	movlb	1	; select bank1
  6761  1E1B  00A8               	movwf	___xxtofl@sign^(0+128)
  6762  1E1C  0828               	movf	___xxtofl@sign^(0+128),w
  6763  1E1D  1D03               	btfss	3,2
  6764  1E1E  1FA3               	btfss	(___xxtofl@val+3)^(0+128),7
  6765  1E1F  2E30               	goto	l3338
  6766  1E20  0920               	comf	___xxtofl@val^(0+128),w
  6767  1E21  00AA               	movwf	___xxtofl@arg^(0+128)
  6768  1E22  0921               	comf	(___xxtofl@val^(0+128)+1),w
  6769  1E23  00AB               	movwf	(___xxtofl@arg+1)^(0+128)
  6770  1E24  0922               	comf	(___xxtofl@val^(0+128)+2),w
  6771  1E25  00AC               	movwf	(___xxtofl@arg+2)^(0+128)
  6772  1E26  0923               	comf	(___xxtofl@val^(0+128)+3),w
  6773  1E27  00AD               	movwf	(___xxtofl@arg+3)^(0+128)
  6774  1E28  0AAA               	incf	___xxtofl@arg^(0+128),f
  6775  1E29  1903               	skipnz
  6776  1E2A  0AAB               	incf	(___xxtofl@arg+1)^(0+128),f
  6777  1E2B  1903               	skipnz
  6778  1E2C  0AAC               	incf	(___xxtofl@arg+2)^(0+128),f
  6779  1E2D  1903               	skipnz
  6780  1E2E  0AAD               	incf	(___xxtofl@arg+3)^(0+128),f
  6781  1E2F  2E38               	goto	l795
  6782  1E30                     l3338:	
  6783  1E30  0823               	movf	(___xxtofl@val+3)^(0+128),w
  6784  1E31  00AD               	movwf	(___xxtofl@arg+3)^(0+128)
  6785  1E32  0822               	movf	(___xxtofl@val+2)^(0+128),w
  6786  1E33  00AC               	movwf	(___xxtofl@arg+2)^(0+128)
  6787  1E34  0821               	movf	(___xxtofl@val+1)^(0+128),w
  6788  1E35  00AB               	movwf	(___xxtofl@arg+1)^(0+128)
  6789  1E36  0820               	movf	___xxtofl@val^(0+128),w
  6790  1E37  00AA               	movwf	___xxtofl@arg^(0+128)
  6791  1E38                     l795:	
  6792  1E38  0823               	movf	(___xxtofl@val+3)^(0+128),w
  6793  1E39  0422               	iorwf	(___xxtofl@val+2)^(0+128),w
  6794  1E3A  0421               	iorwf	(___xxtofl@val+1)^(0+128),w
  6795  1E3B  0420               	iorwf	___xxtofl@val^(0+128),w
  6796  1E3C  1D03               	skipz
  6797  1E3D  2E47               	goto	l3344
  6798  1E3E  3000               	movlw	0
  6799  1E3F  00A3               	movwf	(?___xxtofl+3)^(0+128)
  6800  1E40  3000               	movlw	0
  6801  1E41  00A2               	movwf	(?___xxtofl+2)^(0+128)
  6802  1E42  3000               	movlw	0
  6803  1E43  00A1               	movwf	(?___xxtofl+1)^(0+128)
  6804  1E44  3000               	movlw	0
  6805  1E45  00A0               	movwf	?___xxtofl^(0+128)
  6806  1E46  0008               	return
  6807  1E47                     l3344:	
  6808  1E47  3096               	movlw	150
  6809  1E48  00A4               	movwf	??___xxtofl^(0+128)
  6810  1E49  0824               	movf	??___xxtofl^(0+128),w
  6811  1E4A  00A9               	movwf	___xxtofl@exp^(0+128)
  6812  1E4B                     l3348:	
  6813  1E4B  30FE               	movlw	254
  6814  1E4C  052D               	andwf	(___xxtofl@arg+3)^(0+128),w
  6815  1E4D  1903               	btfsc	3,2
  6816  1E4E  2E6E               	goto	l801
  6817  1E4F  3001               	movlw	1
  6818  1E50  00A4               	movwf	??___xxtofl^(0+128)
  6819  1E51  0824               	movf	??___xxtofl^(0+128),w
  6820  1E52  07A9               	addwf	___xxtofl@exp^(0+128),f
  6821  1E53  3001               	movlw	1
  6822  1E54                     u5195:	
  6823  1E54  36AD               	lsrf	(___xxtofl@arg+3)^(0+128),f
  6824  1E55  0CAC               	rrf	(___xxtofl@arg+2)^(0+128),f
  6825  1E56  0CAB               	rrf	(___xxtofl@arg+1)^(0+128),f
  6826  1E57  0CAA               	rrf	___xxtofl@arg^(0+128),f
  6827  1E58  0B89               	decfsz	9,f
  6828  1E59  2E54               	goto	u5195
  6829  1E5A  2E4B               	goto	l3348
  6830  1E5B                     l3350:	
  6831  1E5B  3001               	movlw	1
  6832  1E5C  00A4               	movwf	??___xxtofl^(0+128)
  6833  1E5D  0824               	movf	??___xxtofl^(0+128),w
  6834  1E5E  07A9               	addwf	___xxtofl@exp^(0+128),f
  6835  1E5F  3001               	movlw	1
  6836  1E60  07AA               	addwf	___xxtofl@arg^(0+128),f
  6837  1E61  3000               	movlw	0
  6838  1E62  3DAB               	addwfc	(___xxtofl@arg+1)^(0+128),f
  6839  1E63  3000               	movlw	0
  6840  1E64  3DAC               	addwfc	(___xxtofl@arg+2)^(0+128),f
  6841  1E65  3000               	movlw	0
  6842  1E66  3DAD               	addwfc	(___xxtofl@arg+3)^(0+128),f
  6843  1E67  3001               	movlw	1
  6844  1E68                     u5215:	
  6845  1E68  36AD               	lsrf	(___xxtofl@arg+3)^(0+128),f
  6846  1E69  0CAC               	rrf	(___xxtofl@arg+2)^(0+128),f
  6847  1E6A  0CAB               	rrf	(___xxtofl@arg+1)^(0+128),f
  6848  1E6B  0CAA               	rrf	___xxtofl@arg^(0+128),f
  6849  1E6C  0B89               	decfsz	9,f
  6850  1E6D  2E68               	goto	u5215
  6851  1E6E                     l801:	
  6852  1E6E  30FF               	movlw	255
  6853  1E6F  052D               	andwf	(___xxtofl@arg+3)^(0+128),w
  6854  1E70  1903               	btfsc	3,2
  6855  1E71  2E7C               	goto	l3358
  6856  1E72  2E5B               	goto	l3350
  6857  1E73                     l3356:	
  6858  1E73  3001               	movlw	1
  6859  1E74  02A9               	subwf	___xxtofl@exp^(0+128),f
  6860  1E75  3001               	movlw	1
  6861  1E76                     u5235:	
  6862  1E76  35AA               	lslf	___xxtofl@arg^(0+128),f
  6863  1E77  0DAB               	rlf	(___xxtofl@arg+1)^(0+128),f
  6864  1E78  0DAC               	rlf	(___xxtofl@arg+2)^(0+128),f
  6865  1E79  0DAD               	rlf	(___xxtofl@arg+3)^(0+128),f
  6866  1E7A  0B89               	decfsz	9,f
  6867  1E7B  2E76               	goto	u5235
  6868  1E7C                     l3358:	
  6869  1E7C  1BAC               	btfsc	(___xxtofl@arg+2)^(0+128),7
  6870  1E7D  2E82               	goto	l808
  6871  1E7E  3002               	movlw	2
  6872  1E7F  0229               	subwf	___xxtofl@exp^(0+128),w
  6873  1E80  1803               	skipnc
  6874  1E81  2E73               	goto	l3356
  6875  1E82                     l808:	
  6876  1E82  1829               	btfsc	___xxtofl@exp^(0+128),0
  6877  1E83  2E8C               	goto	l809
  6878  1E84  30FF               	movlw	255
  6879  1E85  05AA               	andwf	___xxtofl@arg^(0+128),f
  6880  1E86  30FF               	movlw	255
  6881  1E87  05AB               	andwf	(___xxtofl@arg+1)^(0+128),f
  6882  1E88  307F               	movlw	127
  6883  1E89  05AC               	andwf	(___xxtofl@arg+2)^(0+128),f
  6884  1E8A  30FF               	movlw	255
  6885  1E8B  05AD               	andwf	(___xxtofl@arg+3)^(0+128),f
  6886  1E8C                     l809:	
  6887  1E8C  1003               	clrc
  6888  1E8D  0CA9               	rrf	___xxtofl@exp^(0+128),f
  6889  1E8E  0829               	movf	___xxtofl@exp^(0+128),w
  6890  1E8F  00A4               	movwf	??___xxtofl^(0+128)
  6891  1E90  01A5               	clrf	(??___xxtofl^(0+128)+1)
  6892  1E91  01A6               	clrf	(??___xxtofl^(0+128)+2)
  6893  1E92  01A7               	clrf	(??___xxtofl^(0+128)+3)
  6894  1E93  3018               	movlw	24
  6895  1E94                     u5275:	
  6896  1E94  35A4               	lslf	??___xxtofl^(0+128),f
  6897  1E95  0DA5               	rlf	(??___xxtofl^(0+128)+1),f
  6898  1E96  0DA6               	rlf	(??___xxtofl^(0+128)+2),f
  6899  1E97  0DA7               	rlf	(??___xxtofl^(0+128)+3),f
  6900  1E98  0B89               	decfsz	9,f
  6901  1E99  2E94               	goto	u5275
  6902  1E9A  0824               	movf	??___xxtofl^(0+128),w
  6903  1E9B  04AA               	iorwf	___xxtofl@arg^(0+128),f
  6904  1E9C  0825               	movf	(??___xxtofl+1)^(0+128),w
  6905  1E9D  04AB               	iorwf	(___xxtofl@arg+1)^(0+128),f
  6906  1E9E  0826               	movf	(??___xxtofl+2)^(0+128),w
  6907  1E9F  04AC               	iorwf	(___xxtofl@arg+2)^(0+128),f
  6908  1EA0  0827               	movf	(??___xxtofl+3)^(0+128),w
  6909  1EA1  04AD               	iorwf	(___xxtofl@arg+3)^(0+128),f
  6910  1EA2  0828               	movf	___xxtofl@sign^(0+128),w
  6911  1EA3  1D03               	btfss	3,2
  6912  1EA4  1FA3               	btfss	(___xxtofl@val+3)^(0+128),7
  6913  1EA5  2EA7               	goto	l3372
  6914  1EA6  17AD               	bsf	(___xxtofl@arg^(0+128)+3),7
  6915  1EA7                     l3372:	
  6916  1EA7  082D               	movf	(___xxtofl@arg+3)^(0+128),w
  6917  1EA8  00A3               	movwf	(?___xxtofl+3)^(0+128)
  6918  1EA9  082C               	movf	(___xxtofl@arg+2)^(0+128),w
  6919  1EAA  00A2               	movwf	(?___xxtofl+2)^(0+128)
  6920  1EAB  082B               	movf	(___xxtofl@arg+1)^(0+128),w
  6921  1EAC  00A1               	movwf	(?___xxtofl+1)^(0+128)
  6922  1EAD  082A               	movf	___xxtofl@arg^(0+128),w
  6923  1EAE  00A0               	movwf	?___xxtofl^(0+128)
  6924  1EAF  0008               	return
  6925  1EB0                     __end_of___xxtofl:	
  6926                           
  6927                           	psect	text13
  6928  1C0F                     __ptext13:	
  6929 ;; *************** function ___wmul *****************
  6930 ;; Defined at:
  6931 ;;		line 15 in file "/Applications/microchip/xc8/v1.37/sources/common/Umul16.c"
  6932 ;; Parameters:    Size  Location     Type
  6933 ;;  multiplier      2    0[BANK1 ] unsigned int 
  6934 ;;  multiplicand    2    2[BANK1 ] unsigned int 
  6935 ;; Auto vars:     Size  Location     Type
  6936 ;;  product         2    4[BANK1 ] unsigned int 
  6937 ;; Return value:  Size  Location     Type
  6938 ;;                  2    0[BANK1 ] unsigned int 
  6939 ;; Registers used:
  6940 ;;		wreg, status,2, status,0
  6941 ;; Tracked objects:
  6942 ;;		On entry : 0/0
  6943 ;;		On exit  : 0/0
  6944 ;;		Unchanged: 0/0
  6945 ;; Data sizes:     COMMON   BANK0   BANK1   BANK2   BANK3   BANK4   BANK5   BANK6   BANK7   BANK8   BANK9  BANK10  BANK1
      +1  BANK12
  6946 ;;      Params:         0       0       4       0       0       0       0       0       0       0       0       0       
      +0       0
  6947 ;;      Locals:         0       0       2       0       0       0       0       0       0       0       0       0       
      +0       0
  6948 ;;      Temps:          0       0       0       0       0       0       0       0       0       0       0       0       
      +0       0
  6949 ;;      Totals:         0       0       6       0       0       0       0       0       0       0       0       0       
      +0       0
  6950 ;;Total ram usage:        6 bytes
  6951 ;; Hardware stack levels used:    1
  6952 ;; Hardware stack levels required when called:    2
  6953 ;; This function calls:
  6954 ;;		Nothing
  6955 ;; This function is called by:
  6956 ;;		_printf
  6957 ;; This function uses a non-reentrant model
  6958 ;;
  6959                           
  6960                           
  6961                           ;psect for function ___wmul
  6962  1C0F                     ___wmul:	
  6963                           
  6964                           ;incstack = 0
  6965                           ; Regs used in ___wmul: [wreg+status,2+status,0]
  6966  1C0F  0021               	movlb	1	; select bank1
  6967  1C10  01A4               	clrf	___wmul@product^(0+128)
  6968  1C11  01A5               	clrf	(___wmul@product+1)^(0+128)
  6969  1C12                     l3200:	
  6970  1C12  1C20               	btfss	___wmul@multiplier^(0+128),0
  6971  1C13  2C18               	goto	l247
  6972  1C14  0822               	movf	___wmul@multiplicand^(0+128),w
  6973  1C15  07A4               	addwf	___wmul@product^(0+128),f
  6974  1C16  0823               	movf	(___wmul@multiplicand+1)^(0+128),w
  6975  1C17  3DA5               	addwfc	(___wmul@product+1)^(0+128),f
  6976  1C18                     l247:	
  6977  1C18  3001               	movlw	1
  6978  1C19                     u4845:	
  6979  1C19  35A2               	lslf	___wmul@multiplicand^(0+128),f
  6980  1C1A  0DA3               	rlf	(___wmul@multiplicand+1)^(0+128),f
  6981  1C1B  0B89               	decfsz	9,f
  6982  1C1C  2C19               	goto	u4845
  6983  1C1D  3001               	movlw	1
  6984  1C1E                     u4855:	
  6985  1C1E  36A1               	lsrf	(___wmul@multiplier+1)^(0+128),f
  6986  1C1F  0CA0               	rrf	___wmul@multiplier^(0+128),f
  6987  1C20  0B89               	decfsz	9,f
  6988  1C21  2C1E               	goto	u4855
  6989  1C22  0820               	movf	___wmul@multiplier^(0+128),w
  6990  1C23  0421               	iorwf	(___wmul@multiplier+1)^(0+128),w
  6991  1C24  1D03               	btfss	3,2
  6992  1C25  2C12               	goto	l3200
  6993  1C26  0825               	movf	(___wmul@product+1)^(0+128),w
  6994  1C27  00A1               	movwf	(?___wmul+1)^(0+128)
  6995  1C28  0824               	movf	___wmul@product^(0+128),w
  6996  1C29  00A0               	movwf	?___wmul^(0+128)
  6997  1C2A  0008               	return
  6998  1C2B                     __end_of___wmul:	
  6999                           
  7000                           	psect	text14
  7001  1C2B                     __ptext14:	
  7002 ;; *************** function ___llmod *****************
  7003 ;; Defined at:
  7004 ;;		line 6 in file "/Applications/microchip/xc8/v1.37/sources/common/llmod.c"
  7005 ;; Parameters:    Size  Location     Type
  7006 ;;  divisor         4   14[BANK1 ] unsigned long 
  7007 ;;  dividend        4   18[BANK1 ] unsigned long 
  7008 ;; Auto vars:     Size  Location     Type
  7009 ;;  counter         1   23[BANK1 ] unsigned char 
  7010 ;; Return value:  Size  Location     Type
  7011 ;;                  4   14[BANK1 ] unsigned long 
  7012 ;; Registers used:
  7013 ;;		wreg, status,2, status,0
  7014 ;; Tracked objects:
  7015 ;;		On entry : 0/0
  7016 ;;		On exit  : 0/0
  7017 ;;		Unchanged: 0/0
  7018 ;; Data sizes:     COMMON   BANK0   BANK1   BANK2   BANK3   BANK4   BANK5   BANK6   BANK7   BANK8   BANK9  BANK10  BANK1
      +1  BANK12
  7019 ;;      Params:         0       0       8       0       0       0       0       0       0       0       0       0       
      +0       0
  7020 ;;      Locals:         0       0       1       0       0       0       0       0       0       0       0       0       
      +0       0
  7021 ;;      Temps:          0       0       1       0       0       0       0       0       0       0       0       0       
      +0       0
  7022 ;;      Totals:         0       0      10       0       0       0       0       0       0       0       0       0       
      +0       0
  7023 ;;Total ram usage:       10 bytes
  7024 ;; Hardware stack levels used:    1
  7025 ;; Hardware stack levels required when called:    2
  7026 ;; This function calls:
  7027 ;;		Nothing
  7028 ;; This function is called by:
  7029 ;;		_printf
  7030 ;; This function uses a non-reentrant model
  7031 ;;
  7032                           
  7033                           
  7034                           ;psect for function ___llmod
  7035  1C2B                     ___llmod:	
  7036                           
  7037                           ;incstack = 0
  7038                           ; Regs used in ___llmod: [wreg+status,2+status,0]
  7039  1C2B  0021               	movlb	1	; select bank1
  7040  1C2C  0831               	movf	(___llmod@divisor+3)^(0+128),w
  7041  1C2D  0430               	iorwf	(___llmod@divisor+2)^(0+128),w
  7042  1C2E  042F               	iorwf	(___llmod@divisor+1)^(0+128),w
  7043  1C2F  042E               	iorwf	___llmod@divisor^(0+128),w
  7044  1C30  1903               	skipnz
  7045  1C31  2C65               	goto	l3322
  7046  1C32  01B7               	clrf	___llmod@counter^(0+128)
  7047  1C33  0AB7               	incf	___llmod@counter^(0+128),f
  7048  1C34                     l3312:	
  7049  1C34  1BB1               	btfsc	(___llmod@divisor+3)^(0+128),7
  7050  1C35  2C42               	goto	l3314
  7051  1C36  3001               	movlw	1
  7052  1C37                     u5115:	
  7053  1C37  35AE               	lslf	___llmod@divisor^(0+128),f
  7054  1C38  0DAF               	rlf	(___llmod@divisor+1)^(0+128),f
  7055  1C39  0DB0               	rlf	(___llmod@divisor+2)^(0+128),f
  7056  1C3A  0DB1               	rlf	(___llmod@divisor+3)^(0+128),f
  7057  1C3B  0B89               	decfsz	9,f
  7058  1C3C  2C37               	goto	u5115
  7059  1C3D  3001               	movlw	1
  7060  1C3E  00B6               	movwf	??___llmod^(0+128)
  7061  1C3F  0836               	movf	??___llmod^(0+128),w
  7062  1C40  07B7               	addwf	___llmod@counter^(0+128),f
  7063  1C41  2C34               	goto	l3312
  7064  1C42                     l3314:	
  7065  1C42  0831               	movf	(___llmod@divisor+3)^(0+128),w
  7066  1C43  0235               	subwf	(___llmod@dividend+3)^(0+128),w
  7067  1C44  1D03               	skipz
  7068  1C45  2C50               	goto	u5135
  7069  1C46  0830               	movf	(___llmod@divisor+2)^(0+128),w
  7070  1C47  0234               	subwf	(___llmod@dividend+2)^(0+128),w
  7071  1C48  1D03               	skipz
  7072  1C49  2C50               	goto	u5135
  7073  1C4A  082F               	movf	(___llmod@divisor+1)^(0+128),w
  7074  1C4B  0233               	subwf	(___llmod@dividend+1)^(0+128),w
  7075  1C4C  1D03               	skipz
  7076  1C4D  2C50               	goto	u5135
  7077  1C4E  082E               	movf	___llmod@divisor^(0+128),w
  7078  1C4F  0232               	subwf	___llmod@dividend^(0+128),w
  7079  1C50                     u5135:	
  7080  1C50  1C03               	skipc
  7081  1C51  2C5A               	goto	l3318
  7082  1C52  082E               	movf	___llmod@divisor^(0+128),w
  7083  1C53  02B2               	subwf	___llmod@dividend^(0+128),f
  7084  1C54  082F               	movf	(___llmod@divisor+1)^(0+128),w
  7085  1C55  3BB3               	subwfb	(___llmod@dividend+1)^(0+128),f
  7086  1C56  0830               	movf	(___llmod@divisor+2)^(0+128),w
  7087  1C57  3BB4               	subwfb	(___llmod@dividend+2)^(0+128),f
  7088  1C58  0831               	movf	(___llmod@divisor+3)^(0+128),w
  7089  1C59  3BB5               	subwfb	(___llmod@dividend+3)^(0+128),f
  7090  1C5A                     l3318:	
  7091  1C5A  3001               	movlw	1
  7092  1C5B                     u5145:	
  7093  1C5B  36B1               	lsrf	(___llmod@divisor+3)^(0+128),f
  7094  1C5C  0CB0               	rrf	(___llmod@divisor+2)^(0+128),f
  7095  1C5D  0CAF               	rrf	(___llmod@divisor+1)^(0+128),f
  7096  1C5E  0CAE               	rrf	___llmod@divisor^(0+128),f
  7097  1C5F  0B89               	decfsz	9,f
  7098  1C60  2C5B               	goto	u5145
  7099  1C61  3001               	movlw	1
  7100  1C62  02B7               	subwf	___llmod@counter^(0+128),f
  7101  1C63  1D03               	btfss	3,2
  7102  1C64  2C42               	goto	l3314
  7103  1C65                     l3322:	
  7104  1C65  0835               	movf	(___llmod@dividend+3)^(0+128),w
  7105  1C66  00B1               	movwf	(?___llmod+3)^(0+128)
  7106  1C67  0834               	movf	(___llmod@dividend+2)^(0+128),w
  7107  1C68  00B0               	movwf	(?___llmod+2)^(0+128)
  7108  1C69  0833               	movf	(___llmod@dividend+1)^(0+128),w
  7109  1C6A  00AF               	movwf	(?___llmod+1)^(0+128)
  7110  1C6B  0832               	movf	___llmod@dividend^(0+128),w
  7111  1C6C  00AE               	movwf	?___llmod^(0+128)
  7112  1C6D  0008               	return
  7113  1C6E                     __end_of___llmod:	
  7114                           
  7115                           	psect	text15
  7116  1006                     __ptext15:	
  7117 ;; *************** function ___lldiv *****************
  7118 ;; Defined at:
  7119 ;;		line 6 in file "/Applications/microchip/xc8/v1.37/sources/common/lldiv.c"
  7120 ;; Parameters:    Size  Location     Type
  7121 ;;  divisor         4    0[BANK1 ] unsigned long 
  7122 ;;  dividend        4    4[BANK1 ] unsigned long 
  7123 ;; Auto vars:     Size  Location     Type
  7124 ;;  quotient        4    9[BANK1 ] unsigned long 
  7125 ;;  counter         1   13[BANK1 ] unsigned char 
  7126 ;; Return value:  Size  Location     Type
  7127 ;;                  4    0[BANK1 ] unsigned long 
  7128 ;; Registers used:
  7129 ;;		wreg, status,2, status,0
  7130 ;; Tracked objects:
  7131 ;;		On entry : 0/0
  7132 ;;		On exit  : 0/0
  7133 ;;		Unchanged: 0/0
  7134 ;; Data sizes:     COMMON   BANK0   BANK1   BANK2   BANK3   BANK4   BANK5   BANK6   BANK7   BANK8   BANK9  BANK10  BANK1
      +1  BANK12
  7135 ;;      Params:         0       0       8       0       0       0       0       0       0       0       0       0       
      +0       0
  7136 ;;      Locals:         0       0       5       0       0       0       0       0       0       0       0       0       
      +0       0
  7137 ;;      Temps:          0       0       1       0       0       0       0       0       0       0       0       0       
      +0       0
  7138 ;;      Totals:         0       0      14       0       0       0       0       0       0       0       0       0       
      +0       0
  7139 ;;Total ram usage:       14 bytes
  7140 ;; Hardware stack levels used:    1
  7141 ;; Hardware stack levels required when called:    2
  7142 ;; This function calls:
  7143 ;;		Nothing
  7144 ;; This function is called by:
  7145 ;;		_printf
  7146 ;; This function uses a non-reentrant model
  7147 ;;
  7148                           
  7149                           
  7150                           ;psect for function ___lldiv
  7151  1006                     ___lldiv:	
  7152                           
  7153                           ;incstack = 0
  7154                           ; Regs used in ___lldiv: [wreg+status,2+status,0]
  7155  1006  3000               	movlw	0
  7156  1007  0021               	movlb	1	; select bank1
  7157  1008  00AC               	movwf	(___lldiv@quotient+3)^(0+128)
  7158  1009  3000               	movlw	0
  7159  100A  00AB               	movwf	(___lldiv@quotient+2)^(0+128)
  7160  100B  3000               	movlw	0
  7161  100C  00AA               	movwf	(___lldiv@quotient+1)^(0+128)
  7162  100D  3000               	movlw	0
  7163  100E  00A9               	movwf	___lldiv@quotient^(0+128)
  7164  100F  0823               	movf	(___lldiv@divisor+3)^(0+128),w
  7165  1010  0422               	iorwf	(___lldiv@divisor+2)^(0+128),w
  7166  1011  0421               	iorwf	(___lldiv@divisor+1)^(0+128),w
  7167  1012  0420               	iorwf	___lldiv@divisor^(0+128),w
  7168  1013  1903               	skipnz
  7169  1014  2850               	goto	l3302
  7170  1015  01AD               	clrf	___lldiv@counter^(0+128)
  7171  1016  0AAD               	incf	___lldiv@counter^(0+128),f
  7172  1017                     l3288:	
  7173  1017  1BA3               	btfsc	(___lldiv@divisor+3)^(0+128),7
  7174  1018  2825               	goto	l3290
  7175  1019  3001               	movlw	1
  7176  101A                     u5045:	
  7177  101A  35A0               	lslf	___lldiv@divisor^(0+128),f
  7178  101B  0DA1               	rlf	(___lldiv@divisor+1)^(0+128),f
  7179  101C  0DA2               	rlf	(___lldiv@divisor+2)^(0+128),f
  7180  101D  0DA3               	rlf	(___lldiv@divisor+3)^(0+128),f
  7181  101E  0B89               	decfsz	9,f
  7182  101F  281A               	goto	u5045
  7183  1020  3001               	movlw	1
  7184  1021  00A8               	movwf	??___lldiv^(0+128)
  7185  1022  0828               	movf	??___lldiv^(0+128),w
  7186  1023  07AD               	addwf	___lldiv@counter^(0+128),f
  7187  1024  2817               	goto	l3288
  7188  1025                     l3290:	
  7189  1025  3001               	movlw	1
  7190  1026                     u5065:	
  7191  1026  35A9               	lslf	___lldiv@quotient^(0+128),f
  7192  1027  0DAA               	rlf	(___lldiv@quotient+1)^(0+128),f
  7193  1028  0DAB               	rlf	(___lldiv@quotient+2)^(0+128),f
  7194  1029  0DAC               	rlf	(___lldiv@quotient+3)^(0+128),f
  7195  102A  0B89               	decfsz	9,f
  7196  102B  2826               	goto	u5065
  7197  102C  0823               	movf	(___lldiv@divisor+3)^(0+128),w
  7198  102D  0227               	subwf	(___lldiv@dividend+3)^(0+128),w
  7199  102E  1D03               	skipz
  7200  102F  283A               	goto	u5075
  7201  1030  0822               	movf	(___lldiv@divisor+2)^(0+128),w
  7202  1031  0226               	subwf	(___lldiv@dividend+2)^(0+128),w
  7203  1032  1D03               	skipz
  7204  1033  283A               	goto	u5075
  7205  1034  0821               	movf	(___lldiv@divisor+1)^(0+128),w
  7206  1035  0225               	subwf	(___lldiv@dividend+1)^(0+128),w
  7207  1036  1D03               	skipz
  7208  1037  283A               	goto	u5075
  7209  1038  0820               	movf	___lldiv@divisor^(0+128),w
  7210  1039  0224               	subwf	___lldiv@dividend^(0+128),w
  7211  103A                     u5075:	
  7212  103A  1C03               	skipc
  7213  103B  2845               	goto	l3298
  7214  103C  0820               	movf	___lldiv@divisor^(0+128),w
  7215  103D  02A4               	subwf	___lldiv@dividend^(0+128),f
  7216  103E  0821               	movf	(___lldiv@divisor+1)^(0+128),w
  7217  103F  3BA5               	subwfb	(___lldiv@dividend+1)^(0+128),f
  7218  1040  0822               	movf	(___lldiv@divisor+2)^(0+128),w
  7219  1041  3BA6               	subwfb	(___lldiv@dividend+2)^(0+128),f
  7220  1042  0823               	movf	(___lldiv@divisor+3)^(0+128),w
  7221  1043  3BA7               	subwfb	(___lldiv@dividend+3)^(0+128),f
  7222  1044  1429               	bsf	___lldiv@quotient^(0+128),0
  7223  1045                     l3298:	
  7224  1045  3001               	movlw	1
  7225  1046                     u5085:	
  7226  1046  36A3               	lsrf	(___lldiv@divisor+3)^(0+128),f
  7227  1047  0CA2               	rrf	(___lldiv@divisor+2)^(0+128),f
  7228  1048  0CA1               	rrf	(___lldiv@divisor+1)^(0+128),f
  7229  1049  0CA0               	rrf	___lldiv@divisor^(0+128),f
  7230  104A  0B89               	decfsz	9,f
  7231  104B  2846               	goto	u5085
  7232  104C  3001               	movlw	1
  7233  104D  02AD               	subwf	___lldiv@counter^(0+128),f
  7234  104E  1D03               	btfss	3,2
  7235  104F  2825               	goto	l3290
  7236  1050                     l3302:	
  7237  1050  082C               	movf	(___lldiv@quotient+3)^(0+128),w
  7238  1051  00A3               	movwf	(?___lldiv+3)^(0+128)
  7239  1052  082B               	movf	(___lldiv@quotient+2)^(0+128),w
  7240  1053  00A2               	movwf	(?___lldiv+2)^(0+128)
  7241  1054  082A               	movf	(___lldiv@quotient+1)^(0+128),w
  7242  1055  00A1               	movwf	(?___lldiv+1)^(0+128)
  7243  1056  0829               	movf	___lldiv@quotient^(0+128),w
  7244  1057  00A0               	movwf	?___lldiv^(0+128)
  7245  1058  0008               	return
  7246  1059                     __end_of___lldiv:	
  7247                           
  7248                           	psect	text16
  7249  1D06                     __ptext16:	
  7250 ;; *************** function ___fltol *****************
  7251 ;; Defined at:
  7252 ;;		line 43 in file "/Applications/microchip/xc8/v1.37/sources/common/fltol.c"
  7253 ;; Parameters:    Size  Location     Type
  7254 ;;  f1              4   67[BANK1 ] unsigned long 
  7255 ;; Auto vars:     Size  Location     Type
  7256 ;;  exp1            1   77[BANK1 ] unsigned char 
  7257 ;;  sign1           1   76[BANK1 ] unsigned char 
  7258 ;; Return value:  Size  Location     Type
  7259 ;;                  4   67[BANK1 ] long 
  7260 ;; Registers used:
  7261 ;;		wreg, status,2, status,0
  7262 ;; Tracked objects:
  7263 ;;		On entry : 0/0
  7264 ;;		On exit  : 0/0
  7265 ;;		Unchanged: 0/0
  7266 ;; Data sizes:     COMMON   BANK0   BANK1   BANK2   BANK3   BANK4   BANK5   BANK6   BANK7   BANK8   BANK9  BANK10  BANK1
      +1  BANK12
  7267 ;;      Params:         0       0       4       0       0       0       0       0       0       0       0       0       
      +0       0
  7268 ;;      Locals:         0       0       2       0       0       0       0       0       0       0       0       0       
      +0       0
  7269 ;;      Temps:          0       0       5       0       0       0       0       0       0       0       0       0       
      +0       0
  7270 ;;      Totals:         0       0      11       0       0       0       0       0       0       0       0       0       
      +0       0
  7271 ;;Total ram usage:       11 bytes
  7272 ;; Hardware stack levels used:    1
  7273 ;; Hardware stack levels required when called:    2
  7274 ;; This function calls:
  7275 ;;		Nothing
  7276 ;; This function is called by:
  7277 ;;		_printf
  7278 ;; This function uses a non-reentrant model
  7279 ;;
  7280                           
  7281                           
  7282                           ;psect for function ___fltol
  7283  1D06                     ___fltol:	
  7284                           
  7285                           ;incstack = 0
  7286                           ; Regs used in ___fltol: [wreg+status,2+status,0]
  7287  1D06  0021               	movlb	1	; select bank1
  7288  1D07  0863               	movf	___fltol@f1^(0+128),w
  7289  1D08  00E7               	movwf	??___fltol^(0+128)
  7290  1D09  0864               	movf	(___fltol@f1+1)^(0+128),w
  7291  1D0A  00E8               	movwf	(??___fltol^(0+128)+1)
  7292  1D0B  0865               	movf	(___fltol@f1+2)^(0+128),w
  7293  1D0C  00E9               	movwf	(??___fltol^(0+128)+2)
  7294  1D0D  0866               	movf	(___fltol@f1+3)^(0+128),w
  7295  1D0E  00EA               	movwf	(??___fltol^(0+128)+3)
  7296  1D0F  1003               	clrc
  7297  1D10  0D69               	rlf	(??___fltol^(0+128)+2),w
  7298  1D11  0D6A               	rlf	(??___fltol^(0+128)+3),w
  7299  1D12  00EB               	movwf	(??___fltol+4)^(0+128)
  7300  1D13  086B               	movf	(??___fltol+4)^(0+128),w
  7301  1D14  00ED               	movwf	___fltol@exp1^(0+128)
  7302  1D15  086D               	movf	___fltol@exp1^(0+128),w
  7303  1D16  1D03               	btfss	3,2
  7304  1D17  2D21               	goto	l3252
  7305  1D18  3000               	movlw	0
  7306  1D19  00E6               	movwf	(?___fltol+3)^(0+128)
  7307  1D1A  3000               	movlw	0
  7308  1D1B  00E5               	movwf	(?___fltol+2)^(0+128)
  7309  1D1C  3000               	movlw	0
  7310  1D1D  00E4               	movwf	(?___fltol+1)^(0+128)
  7311  1D1E  3000               	movlw	0
  7312  1D1F  00E3               	movwf	?___fltol^(0+128)
  7313  1D20  0008               	return
  7314  1D21                     l3252:	
  7315  1D21  0863               	movf	___fltol@f1^(0+128),w
  7316  1D22  00E7               	movwf	??___fltol^(0+128)
  7317  1D23  0864               	movf	(___fltol@f1+1)^(0+128),w
  7318  1D24  00E8               	movwf	(??___fltol^(0+128)+1)
  7319  1D25  0865               	movf	(___fltol@f1+2)^(0+128),w
  7320  1D26  00E9               	movwf	(??___fltol^(0+128)+2)
  7321  1D27  0866               	movf	(___fltol@f1+3)^(0+128),w
  7322  1D28  00EA               	movwf	(??___fltol^(0+128)+3)
  7323  1D29  301F               	movlw	31
  7324  1D2A                     u4945:	
  7325  1D2A  36EA               	lsrf	(??___fltol^(0+128)+3),f
  7326  1D2B  0CE9               	rrf	(??___fltol^(0+128)+2),f
  7327  1D2C  0CE8               	rrf	(??___fltol^(0+128)+1),f
  7328  1D2D  0CE7               	rrf	??___fltol^(0+128),f
  7329  1D2E  0B89               	decfsz	9,f
  7330  1D2F  2D2A               	goto	u4945
  7331  1D30  0867               	movf	??___fltol^(0+128),w
  7332  1D31  00EB               	movwf	(??___fltol+4)^(0+128)
  7333  1D32  086B               	movf	(??___fltol+4)^(0+128),w
  7334  1D33  00EC               	movwf	___fltol@sign1^(0+128)
  7335  1D34  17E5               	bsf	(___fltol@f1^(0+128)+2),7
  7336  1D35  30FF               	movlw	255
  7337  1D36  05E3               	andwf	___fltol@f1^(0+128),f
  7338  1D37  30FF               	movlw	255
  7339  1D38  05E4               	andwf	(___fltol@f1+1)^(0+128),f
  7340  1D39  30FF               	movlw	255
  7341  1D3A  05E5               	andwf	(___fltol@f1+2)^(0+128),f
  7342  1D3B  3000               	movlw	0
  7343  1D3C  05E6               	andwf	(___fltol@f1+3)^(0+128),f
  7344  1D3D  3096               	movlw	150
  7345  1D3E  02ED               	subwf	___fltol@exp1^(0+128),f
  7346  1D3F  1FED               	btfss	___fltol@exp1^(0+128),7
  7347  1D40  2D5D               	goto	l3270
  7348  1D41  086D               	movf	___fltol@exp1^(0+128),w
  7349  1D42  3A80               	xorlw	128
  7350  1D43  3E97               	addlw	151
  7351  1D44  1803               	skipnc
  7352  1D45  2D4F               	goto	l3268
  7353  1D46  3000               	movlw	0
  7354  1D47  00E6               	movwf	(?___fltol+3)^(0+128)
  7355  1D48  3000               	movlw	0
  7356  1D49  00E5               	movwf	(?___fltol+2)^(0+128)
  7357  1D4A  3000               	movlw	0
  7358  1D4B  00E4               	movwf	(?___fltol+1)^(0+128)
  7359  1D4C  3000               	movlw	0
  7360  1D4D  00E3               	movwf	?___fltol^(0+128)
  7361  1D4E  0008               	return
  7362  1D4F                     l3268:	
  7363  1D4F  3001               	movlw	1
  7364  1D50                     u4975:	
  7365  1D50  36E6               	lsrf	(___fltol@f1+3)^(0+128),f
  7366  1D51  0CE5               	rrf	(___fltol@f1+2)^(0+128),f
  7367  1D52  0CE4               	rrf	(___fltol@f1+1)^(0+128),f
  7368  1D53  0CE3               	rrf	___fltol@f1^(0+128),f
  7369  1D54  0B89               	decfsz	9,f
  7370  1D55  2D50               	goto	u4975
  7371  1D56  3001               	movlw	1
  7372  1D57  00E7               	movwf	??___fltol^(0+128)
  7373  1D58  0867               	movf	??___fltol^(0+128),w
  7374  1D59  07ED               	addwf	___fltol@exp1^(0+128),f
  7375  1D5A  1903               	btfsc	3,2
  7376  1D5B  2D76               	goto	l3278
  7377  1D5C  2D4F               	goto	l3268
  7378  1D5D                     l3270:	
  7379  1D5D  3020               	movlw	32
  7380  1D5E  026D               	subwf	___fltol@exp1^(0+128),w
  7381  1D5F  1C03               	skipc
  7382  1D60  2D73               	goto	l456
  7383  1D61  3000               	movlw	0
  7384  1D62  00E6               	movwf	(?___fltol+3)^(0+128)
  7385  1D63  3000               	movlw	0
  7386  1D64  00E5               	movwf	(?___fltol+2)^(0+128)
  7387  1D65  3000               	movlw	0
  7388  1D66  00E4               	movwf	(?___fltol+1)^(0+128)
  7389  1D67  3000               	movlw	0
  7390  1D68  00E3               	movwf	?___fltol^(0+128)
  7391  1D69  0008               	return
  7392  1D6A                     l3276:	
  7393  1D6A  3001               	movlw	1
  7394  1D6B                     u5005:	
  7395  1D6B  35E3               	lslf	___fltol@f1^(0+128),f
  7396  1D6C  0DE4               	rlf	(___fltol@f1+1)^(0+128),f
  7397  1D6D  0DE5               	rlf	(___fltol@f1+2)^(0+128),f
  7398  1D6E  0DE6               	rlf	(___fltol@f1+3)^(0+128),f
  7399  1D6F  0B89               	decfsz	9,f
  7400  1D70  2D6B               	goto	u5005
  7401  1D71  3001               	movlw	1
  7402  1D72  02ED               	subwf	___fltol@exp1^(0+128),f
  7403  1D73                     l456:	
  7404  1D73  086D               	movf	___fltol@exp1^(0+128),w
  7405  1D74  1D03               	btfss	3,2
  7406  1D75  2D6A               	goto	l3276
  7407  1D76                     l3278:	
  7408  1D76  086C               	movf	___fltol@sign1^(0+128),w
  7409  1D77  1903               	btfsc	3,2
  7410  1D78  0008               	return
  7411  1D79  09E3               	comf	___fltol@f1^(0+128),f
  7412  1D7A  09E4               	comf	(___fltol@f1+1)^(0+128),f
  7413  1D7B  09E5               	comf	(___fltol@f1+2)^(0+128),f
  7414  1D7C  09E6               	comf	(___fltol@f1+3)^(0+128),f
  7415  1D7D  0AE3               	incf	___fltol@f1^(0+128),f
  7416  1D7E  1903               	skipnz
  7417  1D7F  0AE4               	incf	(___fltol@f1+1)^(0+128),f
  7418  1D80  1903               	skipnz
  7419  1D81  0AE5               	incf	(___fltol@f1+2)^(0+128),f
  7420  1D82  1903               	skipnz
  7421  1D83  0AE6               	incf	(___fltol@f1+3)^(0+128),f
  7422  1D84  0008               	return
  7423  1D85                     __end_of___fltol:	
  7424                           
  7425                           	psect	text17
  7426  0800                     __ptext17:	
  7427 ;; *************** function ___flsub *****************
  7428 ;; Defined at:
  7429 ;;		line 242 in file "/Applications/microchip/xc8/v1.37/sources/common/sprcadd.c"
  7430 ;; Parameters:    Size  Location     Type
  7431 ;;  a               4   20[BANK2 ] long 
  7432 ;;  b               4   24[BANK2 ] long 
  7433 ;; Auto vars:     Size  Location     Type
  7434 ;;		None
  7435 ;; Return value:  Size  Location     Type
  7436 ;;                  4   20[BANK2 ] long 
  7437 ;; Registers used:
  7438 ;;		wreg, status,2, status,0, pclath, cstack
  7439 ;; Tracked objects:
  7440 ;;		On entry : 0/0
  7441 ;;		On exit  : 0/0
  7442 ;;		Unchanged: 0/0
  7443 ;; Data sizes:     COMMON   BANK0   BANK1   BANK2   BANK3   BANK4   BANK5   BANK6   BANK7   BANK8   BANK9  BANK10  BANK1
      +1  BANK12
  7444 ;;      Params:         0       0       0       8       0       0       0       0       0       0       0       0       
      +0       0
  7445 ;;      Locals:         0       0       0       0       0       0       0       0       0       0       0       0       
      +0       0
  7446 ;;      Temps:          0       0       0       0       0       0       0       0       0       0       0       0       
      +0       0
  7447 ;;      Totals:         0       0       0       8       0       0       0       0       0       0       0       0       
      +0       0
  7448 ;;Total ram usage:        8 bytes
  7449 ;; Hardware stack levels used:    1
  7450 ;; Hardware stack levels required when called:    3
  7451 ;; This function calls:
  7452 ;;		___fladd
  7453 ;; This function is called by:
  7454 ;;		_printf
  7455 ;; This function uses a non-reentrant model
  7456 ;;
  7457                           
  7458                           
  7459                           ;psect for function ___flsub
  7460  0800                     ___flsub:	
  7461                           
  7462                           ;incstack = 0
  7463                           ; Regs used in ___flsub: [wreg+status,2+status,0+pclath+cstack]
  7464  0800  3080               	movlw	128
  7465  0801  0022               	movlb	2	; select bank2
  7466  0802  06B7               	xorwf	(___flsub@a+3)^(0+256),f
  7467  0803  083B               	movf	(___flsub@b+3)^(0+256),w
  7468  0804  00A3               	movwf	(___fladd@b+3)^(0+256)
  7469  0805  083A               	movf	(___flsub@b+2)^(0+256),w
  7470  0806  00A2               	movwf	(___fladd@b+2)^(0+256)
  7471  0807  0839               	movf	(___flsub@b+1)^(0+256),w
  7472  0808  00A1               	movwf	(___fladd@b+1)^(0+256)
  7473  0809  0838               	movf	___flsub@b^(0+256),w
  7474  080A  00A0               	movwf	___fladd@b^(0+256)
  7475  080B  0837               	movf	(___flsub@a+3)^(0+256),w
  7476  080C  00A7               	movwf	(___fladd@a+3)^(0+256)
  7477  080D  0836               	movf	(___flsub@a+2)^(0+256),w
  7478  080E  00A6               	movwf	(___fladd@a+2)^(0+256)
  7479  080F  0835               	movf	(___flsub@a+1)^(0+256),w
  7480  0810  00A5               	movwf	(___fladd@a+1)^(0+256)
  7481  0811  0834               	movf	___flsub@a^(0+256),w
  7482  0812  00A4               	movwf	___fladd@a^(0+256)
  7483  0813  318B  2310         	fcall	___fladd
  7484  0815  0022               	movlb	2	; select bank2
  7485  0816  0823               	movf	(?___fladd+3)^(0+256),w
  7486  0817  00B7               	movwf	(?___flsub+3)^(0+256)
  7487  0818  0822               	movf	(?___fladd+2)^(0+256),w
  7488  0819  00B6               	movwf	(?___flsub+2)^(0+256)
  7489  081A  0821               	movf	(?___fladd+1)^(0+256),w
  7490  081B  00B5               	movwf	(?___flsub+1)^(0+256)
  7491  081C  0820               	movf	?___fladd^(0+256),w
  7492  081D  00B4               	movwf	?___flsub^(0+256)
  7493  081E  0008               	return
  7494  081F                     __end_of___flsub:	
  7495                           
  7496                           	psect	text18
  7497  0B10                     __ptext18:	
  7498 ;; *************** function ___fladd *****************
  7499 ;; Defined at:
  7500 ;;		line 10 in file "/Applications/microchip/xc8/v1.37/sources/common/sprcadd.c"
  7501 ;; Parameters:    Size  Location     Type
  7502 ;;  b               4    0[BANK2 ] long 
  7503 ;;  a               4    4[BANK2 ] long 
  7504 ;; Auto vars:     Size  Location     Type
  7505 ;;  grs             1   78[BANK1 ] unsigned char 
  7506 ;;  bexp            1   77[BANK1 ] unsigned char 
  7507 ;;  aexp            1   76[BANK1 ] unsigned char 
  7508 ;;  signs           1   75[BANK1 ] unsigned char 
  7509 ;; Return value:  Size  Location     Type
  7510 ;;                  4    0[BANK2 ] unsigned char 
  7511 ;; Registers used:
  7512 ;;		wreg, status,2, status,0
  7513 ;; Tracked objects:
  7514 ;;		On entry : 0/0
  7515 ;;		On exit  : 0/0
  7516 ;;		Unchanged: 0/0
  7517 ;; Data sizes:     COMMON   BANK0   BANK1   BANK2   BANK3   BANK4   BANK5   BANK6   BANK7   BANK8   BANK9  BANK10  BANK1
      +1  BANK12
  7518 ;;      Params:         0       0       0       8       0       0       0       0       0       0       0       0       
      +0       0
  7519 ;;      Locals:         0       0       4       0       0       0       0       0       0       0       0       0       
      +0       0
  7520 ;;      Temps:          0       0       0      12       0       0       0       0       0       0       0       0       
      +0       0
  7521 ;;      Totals:         0       0       4      20       0       0       0       0       0       0       0       0       
      +0       0
  7522 ;;Total ram usage:       24 bytes
  7523 ;; Hardware stack levels used:    1
  7524 ;; Hardware stack levels required when called:    2
  7525 ;; This function calls:
  7526 ;;		Nothing
  7527 ;; This function is called by:
  7528 ;;		_printf
  7529 ;;		___flsub
  7530 ;; This function uses a non-reentrant model
  7531 ;;
  7532                           
  7533                           
  7534                           ;psect for function ___fladd
  7535  0B10                     ___fladd:	
  7536                           
  7537                           ;incstack = 0
  7538                           ; Regs used in ___fladd: [wreg+status,2+status,0]
  7539  0B10  0022               	movlb	2	; select bank2
  7540  0B11  0823               	movf	(___fladd@b^(0+256)+3),w
  7541  0B12  3980               	andlw	128
  7542  0B13  00A8               	movwf	??___fladd^(0+256)
  7543  0B14  0828               	movf	??___fladd^(0+256),w
  7544  0B15  0021               	movlb	1	; select bank1
  7545  0B16  00EB               	movwf	___fladd@signs^(0+128)
  7546  0B17  0022               	movlb	2	; select bank2
  7547  0B18  3523               	lslf	(___fladd@b^(0+256)+3),w
  7548  0B19  00A8               	movwf	??___fladd^(0+256)
  7549  0B1A  0828               	movf	??___fladd^(0+256),w
  7550  0B1B  0021               	movlb	1	; select bank1
  7551  0B1C  00ED               	movwf	___fladd@bexp^(0+128)
  7552  0B1D  0022               	movlb	2	; select bank2
  7553  0B1E  1FA2               	btfss	(___fladd@b^(0+256)+2),7
  7554  0B1F  2B22               	goto	l2692
  7555  0B20  0021               	movlb	1	; select bank1
  7556  0B21  146D               	bsf	___fladd@bexp^(0+128),0
  7557  0B22                     l2692:	
  7558  0B22  0021               	movlb	1	; select bank1
  7559  0B23  086D               	movf	___fladd@bexp^(0+128),w
  7560  0B24  1903               	btfsc	3,2
  7561  0B25  2B36               	goto	l2702
  7562  0B26  0A6D               	incf	___fladd@bexp^(0+128),w
  7563  0B27  1D03               	btfss	3,2
  7564  0B28  2B32               	goto	l2698
  7565  0B29  3000               	movlw	0
  7566  0B2A  0022               	movlb	2	; select bank2
  7567  0B2B  00A3               	movwf	(___fladd@b+3)^(0+256)
  7568  0B2C  3000               	movlw	0
  7569  0B2D  00A2               	movwf	(___fladd@b+2)^(0+256)
  7570  0B2E  3000               	movlw	0
  7571  0B2F  00A1               	movwf	(___fladd@b+1)^(0+256)
  7572  0B30  3000               	movlw	0
  7573  0B31  00A0               	movwf	___fladd@b^(0+256)
  7574  0B32                     l2698:	
  7575  0B32  0022               	movlb	2	; select bank2
  7576  0B33  17A2               	bsf	(___fladd@b^(0+256)+2),7
  7577  0B34  01A3               	clrf	(___fladd@b^(0+256)+3)
  7578  0B35  2B3F               	goto	l2704
  7579  0B36                     l2702:	
  7580  0B36  3000               	movlw	0
  7581  0B37  0022               	movlb	2	; select bank2
  7582  0B38  00A3               	movwf	(___fladd@b+3)^(0+256)
  7583  0B39  3000               	movlw	0
  7584  0B3A  00A2               	movwf	(___fladd@b+2)^(0+256)
  7585  0B3B  3000               	movlw	0
  7586  0B3C  00A1               	movwf	(___fladd@b+1)^(0+256)
  7587  0B3D  3000               	movlw	0
  7588  0B3E  00A0               	movwf	___fladd@b^(0+256)
  7589  0B3F                     l2704:	
  7590  0B3F  0827               	movf	(___fladd@a^(0+256)+3),w
  7591  0B40  3980               	andlw	128
  7592  0B41  00A8               	movwf	??___fladd^(0+256)
  7593  0B42  0828               	movf	??___fladd^(0+256),w
  7594  0B43  0021               	movlb	1	; select bank1
  7595  0B44  00EC               	movwf	___fladd@aexp^(0+128)
  7596  0B45  086C               	movf	___fladd@aexp^(0+128),w
  7597  0B46  066B               	xorwf	___fladd@signs^(0+128),w
  7598  0B47  1D03               	btfss	3,2
  7599  0B48  176B               	bsf	___fladd@signs^(0+128),6
  7600  0B49  0022               	movlb	2	; select bank2
  7601  0B4A  3527               	lslf	(___fladd@a^(0+256)+3),w
  7602  0B4B  00A8               	movwf	??___fladd^(0+256)
  7603  0B4C  0828               	movf	??___fladd^(0+256),w
  7604  0B4D  0021               	movlb	1	; select bank1
  7605  0B4E  00EC               	movwf	___fladd@aexp^(0+128)
  7606  0B4F  0022               	movlb	2	; select bank2
  7607  0B50  1FA6               	btfss	(___fladd@a^(0+256)+2),7
  7608  0B51  2B54               	goto	l2716
  7609  0B52  0021               	movlb	1	; select bank1
  7610  0B53  146C               	bsf	___fladd@aexp^(0+128),0
  7611  0B54                     l2716:	
  7612  0B54  0021               	movlb	1	; select bank1
  7613  0B55  086C               	movf	___fladd@aexp^(0+128),w
  7614  0B56  1903               	btfsc	3,2
  7615  0B57  2B68               	goto	l2726
  7616  0B58  0A6C               	incf	___fladd@aexp^(0+128),w
  7617  0B59  1D03               	btfss	3,2
  7618  0B5A  2B64               	goto	l2722
  7619  0B5B  3000               	movlw	0
  7620  0B5C  0022               	movlb	2	; select bank2
  7621  0B5D  00A7               	movwf	(___fladd@a+3)^(0+256)
  7622  0B5E  3000               	movlw	0
  7623  0B5F  00A6               	movwf	(___fladd@a+2)^(0+256)
  7624  0B60  3000               	movlw	0
  7625  0B61  00A5               	movwf	(___fladd@a+1)^(0+256)
  7626  0B62  3000               	movlw	0
  7627  0B63  00A4               	movwf	___fladd@a^(0+256)
  7628  0B64                     l2722:	
  7629  0B64  0022               	movlb	2	; select bank2
  7630  0B65  17A6               	bsf	(___fladd@a^(0+256)+2),7
  7631  0B66  01A7               	clrf	(___fladd@a^(0+256)+3)
  7632  0B67  2B71               	goto	l680
  7633  0B68                     l2726:	
  7634  0B68  3000               	movlw	0
  7635  0B69  0022               	movlb	2	; select bank2
  7636  0B6A  00A7               	movwf	(___fladd@a+3)^(0+256)
  7637  0B6B  3000               	movlw	0
  7638  0B6C  00A6               	movwf	(___fladd@a+2)^(0+256)
  7639  0B6D  3000               	movlw	0
  7640  0B6E  00A5               	movwf	(___fladd@a+1)^(0+256)
  7641  0B6F  3000               	movlw	0
  7642  0B70  00A4               	movwf	___fladd@a^(0+256)
  7643  0B71                     l680:	
  7644  0B71  0021               	movlb	1	; select bank1
  7645  0B72  086D               	movf	___fladd@bexp^(0+128),w
  7646  0B73  026C               	subwf	___fladd@aexp^(0+128),w
  7647  0B74  1803               	skipnc
  7648  0B75  2BD1               	goto	l2762
  7649  0B76  1F6B               	btfss	___fladd@signs^(0+128),6
  7650  0B77  2B7E               	goto	l2732
  7651  0B78  3080               	movlw	128
  7652  0B79  0022               	movlb	2	; select bank2
  7653  0B7A  00A8               	movwf	??___fladd^(0+256)
  7654  0B7B  0828               	movf	??___fladd^(0+256),w
  7655  0B7C  0021               	movlb	1	; select bank1
  7656  0B7D  06EB               	xorwf	___fladd@signs^(0+128),f
  7657  0B7E                     l2732:	
  7658  0B7E  086D               	movf	___fladd@bexp^(0+128),w
  7659  0B7F  0022               	movlb	2	; select bank2
  7660  0B80  00A8               	movwf	??___fladd^(0+256)
  7661  0B81  0828               	movf	??___fladd^(0+256),w
  7662  0B82  0021               	movlb	1	; select bank1
  7663  0B83  00EE               	movwf	___fladd@grs^(0+128)
  7664  0B84  086C               	movf	___fladd@aexp^(0+128),w
  7665  0B85  0022               	movlb	2	; select bank2
  7666  0B86  00A8               	movwf	??___fladd^(0+256)
  7667  0B87  0828               	movf	??___fladd^(0+256),w
  7668  0B88  0021               	movlb	1	; select bank1
  7669  0B89  00ED               	movwf	___fladd@bexp^(0+128)
  7670  0B8A  086E               	movf	___fladd@grs^(0+128),w
  7671  0B8B  0022               	movlb	2	; select bank2
  7672  0B8C  00A8               	movwf	??___fladd^(0+256)
  7673  0B8D  0828               	movf	??___fladd^(0+256),w
  7674  0B8E  0021               	movlb	1	; select bank1
  7675  0B8F  00EC               	movwf	___fladd@aexp^(0+128)
  7676  0B90  0022               	movlb	2	; select bank2
  7677  0B91  0820               	movf	___fladd@b^(0+256),w
  7678  0B92  00A8               	movwf	??___fladd^(0+256)
  7679  0B93  0828               	movf	??___fladd^(0+256),w
  7680  0B94  0021               	movlb	1	; select bank1
  7681  0B95  00EE               	movwf	___fladd@grs^(0+128)
  7682  0B96  0022               	movlb	2	; select bank2
  7683  0B97  0824               	movf	___fladd@a^(0+256),w
  7684  0B98  00A8               	movwf	??___fladd^(0+256)
  7685  0B99  0828               	movf	??___fladd^(0+256),w
  7686  0B9A  00A0               	movwf	___fladd@b^(0+256)
  7687  0B9B  0021               	movlb	1	; select bank1
  7688  0B9C  086E               	movf	___fladd@grs^(0+128),w
  7689  0B9D  0022               	movlb	2	; select bank2
  7690  0B9E  00A8               	movwf	??___fladd^(0+256)
  7691  0B9F  0828               	movf	??___fladd^(0+256),w
  7692  0BA0  00A4               	movwf	___fladd@a^(0+256)
  7693  0BA1  0821               	movf	(___fladd@b^(0+256)+1),w
  7694  0BA2  00A8               	movwf	??___fladd^(0+256)
  7695  0BA3  0828               	movf	??___fladd^(0+256),w
  7696  0BA4  0021               	movlb	1	; select bank1
  7697  0BA5  00EE               	movwf	___fladd@grs^(0+128)
  7698  0BA6  0022               	movlb	2	; select bank2
  7699  0BA7  0825               	movf	(___fladd@a^(0+256)+1),w
  7700  0BA8  00A8               	movwf	??___fladd^(0+256)
  7701  0BA9  0828               	movf	??___fladd^(0+256),w
  7702  0BAA  00A1               	movwf	(___fladd@b^(0+256)+1)
  7703  0BAB  0021               	movlb	1	; select bank1
  7704  0BAC  086E               	movf	___fladd@grs^(0+128),w
  7705  0BAD  0022               	movlb	2	; select bank2
  7706  0BAE  00A8               	movwf	??___fladd^(0+256)
  7707  0BAF  0828               	movf	??___fladd^(0+256),w
  7708  0BB0  00A5               	movwf	(___fladd@a^(0+256)+1)
  7709  0BB1  0822               	movf	(___fladd@b^(0+256)+2),w
  7710  0BB2  00A8               	movwf	??___fladd^(0+256)
  7711  0BB3  0828               	movf	??___fladd^(0+256),w
  7712  0BB4  0021               	movlb	1	; select bank1
  7713  0BB5  00EE               	movwf	___fladd@grs^(0+128)
  7714  0BB6  0022               	movlb	2	; select bank2
  7715  0BB7  0826               	movf	(___fladd@a^(0+256)+2),w
  7716  0BB8  00A8               	movwf	??___fladd^(0+256)
  7717  0BB9  0828               	movf	??___fladd^(0+256),w
  7718  0BBA  00A2               	movwf	(___fladd@b^(0+256)+2)
  7719  0BBB  0021               	movlb	1	; select bank1
  7720  0BBC  086E               	movf	___fladd@grs^(0+128),w
  7721  0BBD  0022               	movlb	2	; select bank2
  7722  0BBE  00A8               	movwf	??___fladd^(0+256)
  7723  0BBF  0828               	movf	??___fladd^(0+256),w
  7724  0BC0  00A6               	movwf	(___fladd@a^(0+256)+2)
  7725  0BC1  0823               	movf	(___fladd@b^(0+256)+3),w
  7726  0BC2  00A8               	movwf	??___fladd^(0+256)
  7727  0BC3  0828               	movf	??___fladd^(0+256),w
  7728  0BC4  0021               	movlb	1	; select bank1
  7729  0BC5  00EE               	movwf	___fladd@grs^(0+128)
  7730  0BC6  0022               	movlb	2	; select bank2
  7731  0BC7  0827               	movf	(___fladd@a^(0+256)+3),w
  7732  0BC8  00A8               	movwf	??___fladd^(0+256)
  7733  0BC9  0828               	movf	??___fladd^(0+256),w
  7734  0BCA  00A3               	movwf	(___fladd@b^(0+256)+3)
  7735  0BCB  0021               	movlb	1	; select bank1
  7736  0BCC  086E               	movf	___fladd@grs^(0+128),w
  7737  0BCD  0022               	movlb	2	; select bank2
  7738  0BCE  00A8               	movwf	??___fladd^(0+256)
  7739  0BCF  0828               	movf	??___fladd^(0+256),w
  7740  0BD0  00A7               	movwf	(___fladd@a^(0+256)+3)
  7741  0BD1                     l2762:	
  7742  0BD1  0021               	movlb	1	; select bank1
  7743  0BD2  01EE               	clrf	___fladd@grs^(0+128)
  7744  0BD3  086D               	movf	___fladd@bexp^(0+128),w
  7745  0BD4  0022               	movlb	2	; select bank2
  7746  0BD5  00A8               	movwf	??___fladd^(0+256)
  7747  0BD6  01A9               	clrf	(??___fladd^(0+256)+1)
  7748  0BD7  09A8               	comf	??___fladd^(0+256),f
  7749  0BD8  09A9               	comf	(??___fladd^(0+256)+1),f
  7750  0BD9  0AA8               	incf	??___fladd^(0+256),f
  7751  0BDA  1903               	skipnz
  7752  0BDB  0AA9               	incf	(??___fladd^(0+256)+1),f
  7753  0BDC  0021               	movlb	1	; select bank1
  7754  0BDD  086C               	movf	___fladd@aexp^(0+128),w
  7755  0BDE  0022               	movlb	2	; select bank2
  7756  0BDF  0728               	addwf	??___fladd^(0+256),w
  7757  0BE0  00AA               	movwf	(??___fladd+2)^(0+256)
  7758  0BE1  0829               	movf	(??___fladd+1)^(0+256),w
  7759  0BE2  1803               	skipnc
  7760  0BE3  0A29               	incf	(??___fladd+1)^(0+256),w
  7761  0BE4  00AB               	movwf	((??___fladd+2)^(0+256)+1)
  7762  0BE5  082B               	movf	(??___fladd+3)^(0+256),w
  7763  0BE6  3A80               	xorlw	128
  7764  0BE7  00AC               	movwf	(??___fladd+4)^(0+256)
  7765  0BE8  3080               	movlw	128
  7766  0BE9  022C               	subwf	(??___fladd+4)^(0+256),w
  7767  0BEA  1D03               	skipz
  7768  0BEB  2BEE               	goto	u3875
  7769  0BEC  301A               	movlw	26
  7770  0BED  022A               	subwf	(??___fladd+2)^(0+256),w
  7771  0BEE                     u3875:	
  7772  0BEE  1C03               	skipc
  7773  0BEF  2C2E               	goto	l2780
  7774  0BF0  0022               	movlb	2	; select bank2
  7775  0BF1  0823               	movf	(___fladd@b+3)^(0+256),w
  7776  0BF2  0422               	iorwf	(___fladd@b+2)^(0+256),w
  7777  0BF3  0421               	iorwf	(___fladd@b+1)^(0+256),w
  7778  0BF4  0420               	iorwf	___fladd@b^(0+256),w
  7779  0BF5  1903               	btfsc	3,2
  7780  0BF6  2BF9               	goto	u3880
  7781  0BF7  3001               	movlw	1
  7782  0BF8  2BFA               	goto	u3890
  7783  0BF9                     u3880:	
  7784  0BF9  3000               	movlw	0
  7785  0BFA                     u3890:	
  7786  0BFA  00A8               	movwf	??___fladd^(0+256)
  7787  0BFB  0828               	movf	??___fladd^(0+256),w
  7788  0BFC  0021               	movlb	1	; select bank1
  7789  0BFD  00EE               	movwf	___fladd@grs^(0+128)
  7790  0BFE  3000               	movlw	0
  7791  0BFF  0022               	movlb	2	; select bank2
  7792  0C00  00A3               	movwf	(___fladd@b+3)^(0+256)
  7793  0C01  3000               	movlw	0
  7794  0C02  00A2               	movwf	(___fladd@b+2)^(0+256)
  7795  0C03  3000               	movlw	0
  7796  0C04  00A1               	movwf	(___fladd@b+1)^(0+256)
  7797  0C05  3000               	movlw	0
  7798  0C06  00A0               	movwf	___fladd@b^(0+256)
  7799  0C07  0021               	movlb	1	; select bank1
  7800  0C08  086C               	movf	___fladd@aexp^(0+128),w
  7801  0C09  0022               	movlb	2	; select bank2
  7802  0C0A  00A8               	movwf	??___fladd^(0+256)
  7803  0C0B  0828               	movf	??___fladd^(0+256),w
  7804  0C0C  0021               	movlb	1	; select bank1
  7805  0C0D  00ED               	movwf	___fladd@bexp^(0+128)
  7806  0C0E  2C33               	goto	l684
  7807  0C0F                     l686:	
  7808  0C0F  1C6E               	btfss	___fladd@grs^(0+128),0
  7809  0C10  2C19               	goto	l2770
  7810  0C11  366E               	lsrf	___fladd@grs^(0+128),w
  7811  0C12  3801               	iorlw	1
  7812  0C13  0022               	movlb	2	; select bank2
  7813  0C14  00A8               	movwf	??___fladd^(0+256)
  7814  0C15  0828               	movf	??___fladd^(0+256),w
  7815  0C16  0021               	movlb	1	; select bank1
  7816  0C17  00EE               	movwf	___fladd@grs^(0+128)
  7817  0C18  2C1B               	goto	l2772
  7818  0C19                     l2770:	
  7819  0C19  1003               	clrc
  7820  0C1A  0CEE               	rrf	___fladd@grs^(0+128),f
  7821  0C1B                     l2772:	
  7822  0C1B  0022               	movlb	2	; select bank2
  7823  0C1C  1C20               	btfss	___fladd@b^(0+256),0
  7824  0C1D  2C20               	goto	l2776
  7825  0C1E  0021               	movlb	1	; select bank1
  7826  0C1F  17EE               	bsf	___fladd@grs^(0+128),7
  7827  0C20                     l2776:	
  7828  0C20  3001               	movlw	1
  7829  0C21  0022               	movlb	2	; select bank2
  7830  0C22  00A8               	movwf	??___fladd^(0+256)
  7831  0C23                     u3925:	
  7832  0C23  37A3               	asrf	(___fladd@b+3)^(0+256),f
  7833  0C24  0CA2               	rrf	(___fladd@b+2)^(0+256),f
  7834  0C25  0CA1               	rrf	(___fladd@b+1)^(0+256),f
  7835  0C26  0CA0               	rrf	___fladd@b^(0+256),f
  7836  0C27  0BA8               	decfsz	(??___fladd^(0+256))& (0+127),f
  7837  0C28  2C23               	goto	u3925
  7838  0C29  3001               	movlw	1
  7839  0C2A  00A8               	movwf	??___fladd^(0+256)
  7840  0C2B  0828               	movf	??___fladd^(0+256),w
  7841  0C2C  0021               	movlb	1	; select bank1
  7842  0C2D  07ED               	addwf	___fladd@bexp^(0+128),f
  7843  0C2E                     l2780:	
  7844  0C2E  0021               	movlb	1	; select bank1
  7845  0C2F  086C               	movf	___fladd@aexp^(0+128),w
  7846  0C30  026D               	subwf	___fladd@bexp^(0+128),w
  7847  0C31  1C03               	skipc
  7848  0C32  2C0F               	goto	l686
  7849  0C33                     l684:	
  7850  0C33  1B6B               	btfsc	___fladd@signs^(0+128),6
  7851  0C34  2C70               	goto	l2806
  7852  0C35  086D               	movf	___fladd@bexp^(0+128),w
  7853  0C36  1D03               	btfss	3,2
  7854  0C37  2C42               	goto	l2788
  7855  0C38  3000               	movlw	0
  7856  0C39  0022               	movlb	2	; select bank2
  7857  0C3A  00A3               	movwf	(?___fladd+3)^(0+256)
  7858  0C3B  3000               	movlw	0
  7859  0C3C  00A2               	movwf	(?___fladd+2)^(0+256)
  7860  0C3D  3000               	movlw	0
  7861  0C3E  00A1               	movwf	(?___fladd+1)^(0+256)
  7862  0C3F  3000               	movlw	0
  7863  0C40  00A0               	movwf	?___fladd^(0+256)
  7864  0C41  0008               	return
  7865  0C42                     l2788:	
  7866  0C42  0022               	movlb	2	; select bank2
  7867  0C43  0824               	movf	___fladd@a^(0+256),w
  7868  0C44  07A0               	addwf	___fladd@b^(0+256),f
  7869  0C45  0825               	movf	(___fladd@a+1)^(0+256),w
  7870  0C46  3DA1               	addwfc	(___fladd@b+1)^(0+256),f
  7871  0C47  0826               	movf	(___fladd@a+2)^(0+256),w
  7872  0C48  3DA2               	addwfc	(___fladd@b+2)^(0+256),f
  7873  0C49  0827               	movf	(___fladd@a+3)^(0+256),w
  7874  0C4A  3DA3               	addwfc	(___fladd@b+3)^(0+256),f
  7875  0C4B  1C23               	btfss	(___fladd@b+3)^(0+256),0
  7876  0C4C  2D08               	goto	l2840
  7877  0C4D  0021               	movlb	1	; select bank1
  7878  0C4E  1C6E               	btfss	___fladd@grs^(0+128),0
  7879  0C4F  2C5A               	goto	l2796
  7880  0C50  1003               	clrc
  7881  0C51  0CEE               	rrf	___fladd@grs^(0+128),f
  7882  0C52  086E               	movf	___fladd@grs^(0+128),w
  7883  0C53  3801               	iorlw	1
  7884  0C54  0022               	movlb	2	; select bank2
  7885  0C55  00A8               	movwf	??___fladd^(0+256)
  7886  0C56  0828               	movf	??___fladd^(0+256),w
  7887  0C57  0021               	movlb	1	; select bank1
  7888  0C58  00EE               	movwf	___fladd@grs^(0+128)
  7889  0C59  2C5C               	goto	l2798
  7890  0C5A                     l2796:	
  7891  0C5A  1003               	clrc
  7892  0C5B  0CEE               	rrf	___fladd@grs^(0+128),f
  7893  0C5C                     l2798:	
  7894  0C5C  0022               	movlb	2	; select bank2
  7895  0C5D  1C20               	btfss	___fladd@b^(0+256),0
  7896  0C5E  2C61               	goto	l2802
  7897  0C5F  0021               	movlb	1	; select bank1
  7898  0C60  17EE               	bsf	___fladd@grs^(0+128),7
  7899  0C61                     l2802:	
  7900  0C61  3001               	movlw	1
  7901  0C62  0022               	movlb	2	; select bank2
  7902  0C63  00A8               	movwf	??___fladd^(0+256)
  7903  0C64                     u3995:	
  7904  0C64  37A3               	asrf	(___fladd@b+3)^(0+256),f
  7905  0C65  0CA2               	rrf	(___fladd@b+2)^(0+256),f
  7906  0C66  0CA1               	rrf	(___fladd@b+1)^(0+256),f
  7907  0C67  0CA0               	rrf	___fladd@b^(0+256),f
  7908  0C68  0BA8               	decfsz	(??___fladd^(0+256))& (0+127),f
  7909  0C69  2C64               	goto	u3995
  7910  0C6A  3001               	movlw	1
  7911  0C6B  00A8               	movwf	??___fladd^(0+256)
  7912  0C6C  0828               	movf	??___fladd^(0+256),w
  7913  0C6D  0021               	movlb	1	; select bank1
  7914  0C6E  07ED               	addwf	___fladd@bexp^(0+128),f
  7915  0C6F  2D08               	goto	l2840
  7916  0C70                     l2806:	
  7917  0C70  0022               	movlb	2	; select bank2
  7918  0C71  0823               	movf	(___fladd@b+3)^(0+256),w
  7919  0C72  3A80               	xorlw	128
  7920  0C73  00A8               	movwf	??___fladd^(0+256)
  7921  0C74  0827               	movf	(___fladd@a+3)^(0+256),w
  7922  0C75  3A80               	xorlw	128
  7923  0C76  0228               	subwf	??___fladd^(0+256),w
  7924  0C77  1D03               	skipz
  7925  0C78  2C83               	goto	u4003
  7926  0C79  0826               	movf	(___fladd@a+2)^(0+256),w
  7927  0C7A  0222               	subwf	(___fladd@b+2)^(0+256),w
  7928  0C7B  1D03               	skipz
  7929  0C7C  2C83               	goto	u4003
  7930  0C7D  0825               	movf	(___fladd@a+1)^(0+256),w
  7931  0C7E  0221               	subwf	(___fladd@b+1)^(0+256),w
  7932  0C7F  1D03               	skipz
  7933  0C80  2C83               	goto	u4003
  7934  0C81  0824               	movf	___fladd@a^(0+256),w
  7935  0C82  0220               	subwf	___fladd@b^(0+256),w
  7936  0C83                     u4003:	
  7937  0C83  1803               	skipnc
  7938  0C84  2CD0               	goto	l2816
  7939  0C85  30FF               	movlw	255
  7940  0C86  00A8               	movwf	??___fladd^(0+256)
  7941  0C87  30FF               	movlw	255
  7942  0C88  00A9               	movwf	(??___fladd^(0+256)+1)
  7943  0C89  30FF               	movlw	255
  7944  0C8A  00AA               	movwf	(??___fladd^(0+256)+2)
  7945  0C8B  30FF               	movlw	255
  7946  0C8C  00AB               	movwf	(??___fladd^(0+256)+3)
  7947  0C8D  0824               	movf	___fladd@a^(0+256),w
  7948  0C8E  00AC               	movwf	(??___fladd+4)^(0+256)
  7949  0C8F  0825               	movf	(___fladd@a+1)^(0+256),w
  7950  0C90  00AD               	movwf	((??___fladd+4)^(0+256)+1)
  7951  0C91  0826               	movf	(___fladd@a+2)^(0+256),w
  7952  0C92  00AE               	movwf	((??___fladd+4)^(0+256)+2)
  7953  0C93  0827               	movf	(___fladd@a+3)^(0+256),w
  7954  0C94  00AF               	movwf	((??___fladd+4)^(0+256)+3)
  7955  0C95  0920               	comf	___fladd@b^(0+256),w
  7956  0C96  00B0               	movwf	(??___fladd+8)^(0+256)
  7957  0C97  0921               	comf	(___fladd@b+1)^(0+256),w
  7958  0C98  00B1               	movwf	((??___fladd+8)^(0+256)+1)
  7959  0C99  0922               	comf	(___fladd@b+2)^(0+256),w
  7960  0C9A  00B2               	movwf	((??___fladd+8)^(0+256)+2)
  7961  0C9B  0923               	comf	(___fladd@b+3)^(0+256),w
  7962  0C9C  00B3               	movwf	((??___fladd+8)^(0+256)+3)
  7963  0C9D  0AB0               	incf	(??___fladd+8)^(0+256),f
  7964  0C9E  1903               	skipnz
  7965  0C9F  0AB1               	incf	((??___fladd+8)^(0+256)+1),f
  7966  0CA0  1903               	skipnz
  7967  0CA1  0AB2               	incf	((??___fladd+8)^(0+256)+2),f
  7968  0CA2  1903               	skipnz
  7969  0CA3  0AB3               	incf	((??___fladd+8)^(0+256)+3),f
  7970  0CA4  0830               	movf	(??___fladd+8)^(0+256),w
  7971  0CA5  07AC               	addwf	(??___fladd+4)^(0+256),f
  7972  0CA6  0831               	movf	(??___fladd+9)^(0+256),w
  7973  0CA7  3DAD               	addwfc	((??___fladd+4)^(0+256)+1),f
  7974  0CA8  0832               	movf	(??___fladd+10)^(0+256),w
  7975  0CA9  3DAE               	addwfc	((??___fladd+4)^(0+256)+2),f
  7976  0CAA  0833               	movf	(??___fladd+11)^(0+256),w
  7977  0CAB  3DAF               	addwfc	((??___fladd+4)^(0+256)+3),f
  7978  0CAC  082C               	movf	(??___fladd+4)^(0+256),w
  7979  0CAD  07A8               	addwf	??___fladd^(0+256),f
  7980  0CAE  082D               	movf	(??___fladd+5)^(0+256),w
  7981  0CAF  3DA9               	addwfc	(??___fladd^(0+256)+1),f
  7982  0CB0  082E               	movf	(??___fladd+6)^(0+256),w
  7983  0CB1  3DAA               	addwfc	(??___fladd^(0+256)+2),f
  7984  0CB2  082F               	movf	(??___fladd+7)^(0+256),w
  7985  0CB3  3DAB               	addwfc	(??___fladd^(0+256)+3),f
  7986  0CB4  082B               	movf	(??___fladd+3)^(0+256),w
  7987  0CB5  00A3               	movwf	(___fladd@b+3)^(0+256)
  7988  0CB6  082A               	movf	(??___fladd+2)^(0+256),w
  7989  0CB7  00A2               	movwf	(___fladd@b+2)^(0+256)
  7990  0CB8  0829               	movf	(??___fladd+1)^(0+256),w
  7991  0CB9  00A1               	movwf	(___fladd@b+1)^(0+256)
  7992  0CBA  0828               	movf	??___fladd^(0+256),w
  7993  0CBB  00A0               	movwf	___fladd@b^(0+256)
  7994  0CBC  3080               	movlw	128
  7995  0CBD  00A8               	movwf	??___fladd^(0+256)
  7996  0CBE  0828               	movf	??___fladd^(0+256),w
  7997  0CBF  0021               	movlb	1	; select bank1
  7998  0CC0  06EB               	xorwf	___fladd@signs^(0+128),f
  7999  0CC1  09EE               	comf	___fladd@grs^(0+128),f
  8000  0CC2  0AEE               	incf	___fladd@grs^(0+128),f
  8001  0CC3  086E               	movf	___fladd@grs^(0+128),w
  8002  0CC4  1D03               	btfss	3,2
  8003  0CC5  2CD8               	goto	l701
  8004  0CC6  3001               	movlw	1
  8005  0CC7  0022               	movlb	2	; select bank2
  8006  0CC8  07A0               	addwf	___fladd@b^(0+256),f
  8007  0CC9  3000               	movlw	0
  8008  0CCA  3DA1               	addwfc	(___fladd@b+1)^(0+256),f
  8009  0CCB  3000               	movlw	0
  8010  0CCC  3DA2               	addwfc	(___fladd@b+2)^(0+256),f
  8011  0CCD  3000               	movlw	0
  8012  0CCE  3DA3               	addwfc	(___fladd@b+3)^(0+256),f
  8013  0CCF  2CD8               	goto	l701
  8014  0CD0                     l2816:	
  8015  0CD0  0824               	movf	___fladd@a^(0+256),w
  8016  0CD1  02A0               	subwf	___fladd@b^(0+256),f
  8017  0CD2  0825               	movf	(___fladd@a+1)^(0+256),w
  8018  0CD3  3BA1               	subwfb	(___fladd@b+1)^(0+256),f
  8019  0CD4  0826               	movf	(___fladd@a+2)^(0+256),w
  8020  0CD5  3BA2               	subwfb	(___fladd@b+2)^(0+256),f
  8021  0CD6  0827               	movf	(___fladd@a+3)^(0+256),w
  8022  0CD7  3BA3               	subwfb	(___fladd@b+3)^(0+256),f
  8023  0CD8                     l701:	
  8024  0CD8  0022               	movlb	2	; select bank2
  8025  0CD9  0823               	movf	(___fladd@b+3)^(0+256),w
  8026  0CDA  0422               	iorwf	(___fladd@b+2)^(0+256),w
  8027  0CDB  0421               	iorwf	(___fladd@b+1)^(0+256),w
  8028  0CDC  0420               	iorwf	___fladd@b^(0+256),w
  8029  0CDD  1D03               	skipz
  8030  0CDE  2D05               	goto	l2838
  8031  0CDF  0021               	movlb	1	; select bank1
  8032  0CE0  086E               	movf	___fladd@grs^(0+128),w
  8033  0CE1  1D03               	btfss	3,2
  8034  0CE2  2D05               	goto	l2838
  8035  0CE3  3000               	movlw	0
  8036  0CE4  0022               	movlb	2	; select bank2
  8037  0CE5  00A3               	movwf	(?___fladd+3)^(0+256)
  8038  0CE6  3000               	movlw	0
  8039  0CE7  00A2               	movwf	(?___fladd+2)^(0+256)
  8040  0CE8  3000               	movlw	0
  8041  0CE9  00A1               	movwf	(?___fladd+1)^(0+256)
  8042  0CEA  3000               	movlw	0
  8043  0CEB  00A0               	movwf	?___fladd^(0+256)
  8044  0CEC  0008               	return
  8045  0CED                     l2824:	
  8046  0CED  3001               	movlw	1
  8047  0CEE                     u4045:	
  8048  0CEE  35A0               	lslf	___fladd@b^(0+256),f
  8049  0CEF  0DA1               	rlf	(___fladd@b+1)^(0+256),f
  8050  0CF0  0DA2               	rlf	(___fladd@b+2)^(0+256),f
  8051  0CF1  0DA3               	rlf	(___fladd@b+3)^(0+256),f
  8052  0CF2  0B89               	decfsz	9,f
  8053  0CF3  2CEE               	goto	u4045
  8054  0CF4  0021               	movlb	1	; select bank1
  8055  0CF5  1FEE               	btfss	___fladd@grs^(0+128),7
  8056  0CF6  2CF9               	goto	l705
  8057  0CF7  0022               	movlb	2	; select bank2
  8058  0CF8  1420               	bsf	___fladd@b^(0+256),0
  8059  0CF9                     l705:	
  8060  0CF9  0021               	movlb	1	; select bank1
  8061  0CFA  1C6E               	btfss	___fladd@grs^(0+128),0
  8062  0CFB  2CFE               	goto	l2832
  8063  0CFC  1403               	setc
  8064  0CFD  2CFF               	goto	L10
  8065  0CFE                     l2832:	
  8066  0CFE  1003               	clrc
  8067  0CFF                     L10:	
  8068  0CFF  0DEE               	rlf	___fladd@grs^(0+128),f
  8069  0D00  086D               	movf	___fladd@bexp^(0+128),w
  8070  0D01  1903               	btfsc	3,2
  8071  0D02  2D05               	goto	l2838
  8072  0D03  3001               	movlw	1
  8073  0D04  02ED               	subwf	___fladd@bexp^(0+128),f
  8074  0D05                     l2838:	
  8075  0D05  0022               	movlb	2	; select bank2
  8076  0D06  1FA2               	btfss	(___fladd@b+2)^(0+256),7
  8077  0D07  2CED               	goto	l2824
  8078  0D08                     l2840:	
  8079  0D08  0021               	movlb	1	; select bank1
  8080  0D09  01EC               	clrf	___fladd@aexp^(0+128)
  8081  0D0A  1FEE               	btfss	___fladd@grs^(0+128),7
  8082  0D0B  2D16               	goto	l2850
  8083  0D0C  086E               	movf	___fladd@grs^(0+128),w
  8084  0D0D  397F               	andlw	127
  8085  0D0E  1D03               	btfss	3,2
  8086  0D0F  2D14               	goto	L11
  8087  0D10  0022               	movlb	2	; select bank2
  8088  0D11  1C20               	btfss	___fladd@b^(0+256),0
  8089  0D12  2D16               	goto	l2850
  8090  0D13  0021               	movlb	1	; select bank1
  8091  0D14                     L11:	
  8092  0D14  01EC               	clrf	___fladd@aexp^(0+128)
  8093  0D15  0AEC               	incf	___fladd@aexp^(0+128),f
  8094  0D16                     l2850:	
  8095  0D16  0021               	movlb	1	; select bank1
  8096  0D17  086C               	movf	___fladd@aexp^(0+128),w
  8097  0D18  1903               	btfsc	3,2
  8098  0D19  2D47               	goto	l714
  8099  0D1A  3001               	movlw	1
  8100  0D1B  0022               	movlb	2	; select bank2
  8101  0D1C  07A0               	addwf	___fladd@b^(0+256),f
  8102  0D1D  3000               	movlw	0
  8103  0D1E  3DA1               	addwfc	(___fladd@b+1)^(0+256),f
  8104  0D1F  3000               	movlw	0
  8105  0D20  3DA2               	addwfc	(___fladd@b+2)^(0+256),f
  8106  0D21  3000               	movlw	0
  8107  0D22  3DA3               	addwfc	(___fladd@b+3)^(0+256),f
  8108  0D23  1C23               	btfss	(___fladd@b+3)^(0+256),0
  8109  0D24  2D47               	goto	l714
  8110  0D25  0820               	movf	___fladd@b^(0+256),w
  8111  0D26  00A8               	movwf	??___fladd^(0+256)
  8112  0D27  0821               	movf	(___fladd@b+1)^(0+256),w
  8113  0D28  00A9               	movwf	(??___fladd^(0+256)+1)
  8114  0D29  0822               	movf	(___fladd@b+2)^(0+256),w
  8115  0D2A  00AA               	movwf	(??___fladd^(0+256)+2)
  8116  0D2B  0823               	movf	(___fladd@b+3)^(0+256),w
  8117  0D2C  00AB               	movwf	(??___fladd^(0+256)+3)
  8118  0D2D  3001               	movlw	1
  8119  0D2E  00AC               	movwf	(??___fladd+4)^(0+256)
  8120  0D2F                     u4145:	
  8121  0D2F  37AB               	asrf	(??___fladd^(0+256)+3),f
  8122  0D30  0CAA               	rrf	(??___fladd^(0+256)+2),f
  8123  0D31  0CA9               	rrf	(??___fladd^(0+256)+1),f
  8124  0D32  0CA8               	rrf	??___fladd^(0+256),f
  8125  0D33  0BAC               	decfsz	(??___fladd+4)^(0+256),f
  8126  0D34  2D2F               	goto	u4145
  8127  0D35  082B               	movf	(??___fladd+3)^(0+256),w
  8128  0D36  00A3               	movwf	(___fladd@b+3)^(0+256)
  8129  0D37  082A               	movf	(??___fladd+2)^(0+256),w
  8130  0D38  00A2               	movwf	(___fladd@b+2)^(0+256)
  8131  0D39  0829               	movf	(??___fladd+1)^(0+256),w
  8132  0D3A  00A1               	movwf	(___fladd@b+1)^(0+256)
  8133  0D3B  0828               	movf	??___fladd^(0+256),w
  8134  0D3C  00A0               	movwf	___fladd@b^(0+256)
  8135  0D3D  0021               	movlb	1	; select bank1
  8136  0D3E  0A6D               	incf	___fladd@bexp^(0+128),w
  8137  0D3F  1903               	btfsc	3,2
  8138  0D40  2D47               	goto	l714
  8139  0D41  3001               	movlw	1
  8140  0D42  0022               	movlb	2	; select bank2
  8141  0D43  00A8               	movwf	??___fladd^(0+256)
  8142  0D44  0828               	movf	??___fladd^(0+256),w
  8143  0D45  0021               	movlb	1	; select bank1
  8144  0D46  07ED               	addwf	___fladd@bexp^(0+128),f
  8145  0D47                     l714:	
  8146  0D47  0021               	movlb	1	; select bank1
  8147  0D48  0A6D               	incf	___fladd@bexp^(0+128),w
  8148  0D49  1D03               	btfss	3,2
  8149  0D4A  086D               	movf	___fladd@bexp^(0+128),w
  8150  0D4B  1D03               	btfss	3,2
  8151  0D4C  2D5A               	goto	l2868
  8152  0D4D  3000               	movlw	0
  8153  0D4E  0022               	movlb	2	; select bank2
  8154  0D4F  00A3               	movwf	(___fladd@b+3)^(0+256)
  8155  0D50  3000               	movlw	0
  8156  0D51  00A2               	movwf	(___fladd@b+2)^(0+256)
  8157  0D52  3000               	movlw	0
  8158  0D53  00A1               	movwf	(___fladd@b+1)^(0+256)
  8159  0D54  3000               	movlw	0
  8160  0D55  00A0               	movwf	___fladd@b^(0+256)
  8161  0D56  0021               	movlb	1	; select bank1
  8162  0D57  086D               	movf	___fladd@bexp^(0+128),w
  8163  0D58  1903               	btfsc	3,2
  8164  0D59  01EB               	clrf	___fladd@signs^(0+128)
  8165  0D5A                     l2868:	
  8166  0D5A  1C6D               	btfss	___fladd@bexp^(0+128),0
  8167  0D5B  2D5F               	goto	l2872
  8168  0D5C  0022               	movlb	2	; select bank2
  8169  0D5D  17A2               	bsf	(___fladd@b^(0+256)+2),7
  8170  0D5E  2D64               	goto	l722
  8171  0D5F                     l2872:	
  8172  0D5F  307F               	movlw	127
  8173  0D60  0022               	movlb	2	; select bank2
  8174  0D61  00A8               	movwf	??___fladd^(0+256)
  8175  0D62  0828               	movf	??___fladd^(0+256),w
  8176  0D63  05A2               	andwf	(___fladd@b^(0+256)+2),f
  8177  0D64                     l722:	
  8178  0D64  0021               	movlb	1	; select bank1
  8179  0D65  366D               	lsrf	___fladd@bexp^(0+128),w
  8180  0D66  0022               	movlb	2	; select bank2
  8181  0D67  00A8               	movwf	??___fladd^(0+256)
  8182  0D68  0828               	movf	??___fladd^(0+256),w
  8183  0D69  00A3               	movwf	(___fladd@b^(0+256)+3)
  8184  0D6A  0021               	movlb	1	; select bank1
  8185  0D6B  1FEB               	btfss	___fladd@signs^(0+128),7
  8186  0D6C  0008               	return
  8187  0D6D  0022               	movlb	2	; select bank2
  8188  0D6E  17A3               	bsf	(___fladd@b^(0+256)+3),7
  8189  0D6F  0008               	return
  8190  0D70                     __end_of___fladd:	
  8191                           
  8192                           	psect	text19
  8193  1BFB                     __ptext19:	
  8194 ;; *************** function ___flneg *****************
  8195 ;; Defined at:
  8196 ;;		line 15 in file "/Applications/microchip/xc8/v1.37/sources/common/flneg.c"
  8197 ;; Parameters:    Size  Location     Type
  8198 ;;  f1              4    0[BANK1 ] unsigned char 
  8199 ;; Auto vars:     Size  Location     Type
  8200 ;;		None
  8201 ;; Return value:  Size  Location     Type
  8202 ;;                  4    0[BANK1 ] unsigned char 
  8203 ;; Registers used:
  8204 ;;		wreg
  8205 ;; Tracked objects:
  8206 ;;		On entry : 0/0
  8207 ;;		On exit  : 0/0
  8208 ;;		Unchanged: 0/0
  8209 ;; Data sizes:     COMMON   BANK0   BANK1   BANK2   BANK3   BANK4   BANK5   BANK6   BANK7   BANK8   BANK9  BANK10  BANK1
      +1  BANK12
  8210 ;;      Params:         0       0       4       0       0       0       0       0       0       0       0       0       
      +0       0
  8211 ;;      Locals:         0       0       0       0       0       0       0       0       0       0       0       0       
      +0       0
  8212 ;;      Temps:          0       0       0       0       0       0       0       0       0       0       0       0       
      +0       0
  8213 ;;      Totals:         0       0       4       0       0       0       0       0       0       0       0       0       
      +0       0
  8214 ;;Total ram usage:        4 bytes
  8215 ;; Hardware stack levels used:    1
  8216 ;; Hardware stack levels required when called:    2
  8217 ;; This function calls:
  8218 ;;		Nothing
  8219 ;; This function is called by:
  8220 ;;		_printf
  8221 ;; This function uses a non-reentrant model
  8222 ;;
  8223                           
  8224                           
  8225                           ;psect for function ___flneg
  8226  1BFB                     ___flneg:	
  8227                           
  8228                           ;incstack = 0
  8229                           ; Regs used in ___flneg: [wreg]
  8230  1BFB  0021               	movlb	1	; select bank1
  8231  1BFC  0823               	movf	(___flneg@f1+3)^(0+128),w
  8232  1BFD  0422               	iorwf	(___flneg@f1+2)^(0+128),w
  8233  1BFE  0421               	iorwf	(___flneg@f1+1)^(0+128),w
  8234  1BFF  0420               	iorwf	___flneg@f1^(0+128),w
  8235  1C00  1903               	skipnz
  8236  1C01  0008               	return
  8237  1C02  3080               	movlw	128
  8238  1C03  06A3               	xorwf	(___flneg@f1+3)^(0+128),f
  8239  1C04  0008               	return
  8240  1C05                     __end_of___flneg:	
  8241                           
  8242                           	psect	text20
  8243  1EB0                     __ptext20:	
  8244 ;; *************** function ___flge *****************
  8245 ;; Defined at:
  8246 ;;		line 4 in file "/Applications/microchip/xc8/v1.37/sources/common/flge.c"
  8247 ;; Parameters:    Size  Location     Type
  8248 ;;  ff1             4    0[BANK1 ] unsigned char 
  8249 ;;  ff2             4    4[BANK1 ] unsigned char 
  8250 ;; Auto vars:     Size  Location     Type
  8251 ;;		None
  8252 ;; Return value:  Size  Location     Type
  8253 ;;		None               void
  8254 ;; Registers used:
  8255 ;;		wreg, status,2, status,0
  8256 ;; Tracked objects:
  8257 ;;		On entry : 0/0
  8258 ;;		On exit  : 0/0
  8259 ;;		Unchanged: 0/0
  8260 ;; Data sizes:     COMMON   BANK0   BANK1   BANK2   BANK3   BANK4   BANK5   BANK6   BANK7   BANK8   BANK9  BANK10  BANK1
      +1  BANK12
  8261 ;;      Params:         0       0       8       0       0       0       0       0       0       0       0       0       
      +0       0
  8262 ;;      Locals:         0       0       0       0       0       0       0       0       0       0       0       0       
      +0       0
  8263 ;;      Temps:          0       0       8       0       0       0       0       0       0       0       0       0       
      +0       0
  8264 ;;      Totals:         0       0      16       0       0       0       0       0       0       0       0       0       
      +0       0
  8265 ;;Total ram usage:       16 bytes
  8266 ;; Hardware stack levels used:    1
  8267 ;; Hardware stack levels required when called:    2
  8268 ;; This function calls:
  8269 ;;		Nothing
  8270 ;; This function is called by:
  8271 ;;		_printf
  8272 ;; This function uses a non-reentrant model
  8273 ;;
  8274                           
  8275                           
  8276                           ;psect for function ___flge
  8277  1EB0                     ___flge:	
  8278                           
  8279                           ;incstack = 0
  8280                           ; Regs used in ___flge: [wreg+status,2+status,0]
  8281  1EB0  3000               	movlw	0
  8282  1EB1  0021               	movlb	1	; select bank1
  8283  1EB2  0520               	andwf	___flge@ff1^(0+128),w
  8284  1EB3  00A8               	movwf	??___flge^(0+128)
  8285  1EB4  3000               	movlw	0
  8286  1EB5  0521               	andwf	(___flge@ff1+1)^(0+128),w
  8287  1EB6  00A9               	movwf	(??___flge^(0+128)+1)
  8288  1EB7  3080               	movlw	128
  8289  1EB8  0522               	andwf	(___flge@ff1+2)^(0+128),w
  8290  1EB9  00AA               	movwf	(??___flge^(0+128)+2)
  8291  1EBA  307F               	movlw	127
  8292  1EBB  0523               	andwf	(___flge@ff1+3)^(0+128),w
  8293  1EBC  00AB               	movwf	(??___flge^(0+128)+3)
  8294  1EBD  082B               	movf	(??___flge+3)^(0+128),w
  8295  1EBE  042A               	iorwf	(??___flge+2)^(0+128),w
  8296  1EBF  0429               	iorwf	(??___flge+1)^(0+128),w
  8297  1EC0  0428               	iorwf	??___flge^(0+128),w
  8298  1EC1  1D03               	skipz
  8299  1EC2  2ECB               	goto	l418
  8300  1EC3  3000               	movlw	0
  8301  1EC4  00A3               	movwf	(___flge@ff1+3)^(0+128)
  8302  1EC5  3000               	movlw	0
  8303  1EC6  00A2               	movwf	(___flge@ff1+2)^(0+128)
  8304  1EC7  3000               	movlw	0
  8305  1EC8  00A1               	movwf	(___flge@ff1+1)^(0+128)
  8306  1EC9  3000               	movlw	0
  8307  1ECA  00A0               	movwf	___flge@ff1^(0+128)
  8308  1ECB                     l418:	
  8309  1ECB  3000               	movlw	0
  8310  1ECC  0524               	andwf	___flge@ff2^(0+128),w
  8311  1ECD  00A8               	movwf	??___flge^(0+128)
  8312  1ECE  3000               	movlw	0
  8313  1ECF  0525               	andwf	(___flge@ff2+1)^(0+128),w
  8314  1ED0  00A9               	movwf	(??___flge^(0+128)+1)
  8315  1ED1  3080               	movlw	128
  8316  1ED2  0526               	andwf	(___flge@ff2+2)^(0+128),w
  8317  1ED3  00AA               	movwf	(??___flge^(0+128)+2)
  8318  1ED4  307F               	movlw	127
  8319  1ED5  0527               	andwf	(___flge@ff2+3)^(0+128),w
  8320  1ED6  00AB               	movwf	(??___flge^(0+128)+3)
  8321  1ED7  082B               	movf	(??___flge+3)^(0+128),w
  8322  1ED8  042A               	iorwf	(??___flge+2)^(0+128),w
  8323  1ED9  0429               	iorwf	(??___flge+1)^(0+128),w
  8324  1EDA  0428               	iorwf	??___flge^(0+128),w
  8325  1EDB  1D03               	skipz
  8326  1EDC  2EE5               	goto	l3218
  8327  1EDD  3000               	movlw	0
  8328  1EDE  00A7               	movwf	(___flge@ff2+3)^(0+128)
  8329  1EDF  3000               	movlw	0
  8330  1EE0  00A6               	movwf	(___flge@ff2+2)^(0+128)
  8331  1EE1  3000               	movlw	0
  8332  1EE2  00A5               	movwf	(___flge@ff2+1)^(0+128)
  8333  1EE3  3000               	movlw	0
  8334  1EE4  00A4               	movwf	___flge@ff2^(0+128)
  8335  1EE5                     l3218:	
  8336  1EE5  1FA3               	btfss	(___flge@ff1+3)^(0+128),7
  8337  1EE6  2F0E               	goto	l3222
  8338  1EE7  3000               	movlw	0
  8339  1EE8  00A8               	movwf	??___flge^(0+128)
  8340  1EE9  3000               	movlw	0
  8341  1EEA  00A9               	movwf	(??___flge^(0+128)+1)
  8342  1EEB  3000               	movlw	0
  8343  1EEC  00AA               	movwf	(??___flge^(0+128)+2)
  8344  1EED  3080               	movlw	128
  8345  1EEE  00AB               	movwf	(??___flge^(0+128)+3)
  8346  1EEF  0920               	comf	___flge@ff1^(0+128),w
  8347  1EF0  00AC               	movwf	(??___flge+4)^(0+128)
  8348  1EF1  0921               	comf	(___flge@ff1+1)^(0+128),w
  8349  1EF2  00AD               	movwf	((??___flge+4)^(0+128)+1)
  8350  1EF3  0922               	comf	(___flge@ff1+2)^(0+128),w
  8351  1EF4  00AE               	movwf	((??___flge+4)^(0+128)+2)
  8352  1EF5  0923               	comf	(___flge@ff1+3)^(0+128),w
  8353  1EF6  00AF               	movwf	((??___flge+4)^(0+128)+3)
  8354  1EF7  0AAC               	incf	(??___flge+4)^(0+128),f
  8355  1EF8  1903               	skipnz
  8356  1EF9  0AAD               	incf	((??___flge+4)^(0+128)+1),f
  8357  1EFA  1903               	skipnz
  8358  1EFB  0AAE               	incf	((??___flge+4)^(0+128)+2),f
  8359  1EFC  1903               	skipnz
  8360  1EFD  0AAF               	incf	((??___flge+4)^(0+128)+3),f
  8361  1EFE  082C               	movf	(??___flge+4)^(0+128),w
  8362  1EFF  07A8               	addwf	??___flge^(0+128),f
  8363  1F00  082D               	movf	(??___flge+5)^(0+128),w
  8364  1F01  3DA9               	addwfc	(??___flge^(0+128)+1),f
  8365  1F02  082E               	movf	(??___flge+6)^(0+128),w
  8366  1F03  3DAA               	addwfc	(??___flge^(0+128)+2),f
  8367  1F04  082F               	movf	(??___flge+7)^(0+128),w
  8368  1F05  3DAB               	addwfc	(??___flge^(0+128)+3),f
  8369  1F06  082B               	movf	(??___flge+3)^(0+128),w
  8370  1F07  00A3               	movwf	(___flge@ff1+3)^(0+128)
  8371  1F08  082A               	movf	(??___flge+2)^(0+128),w
  8372  1F09  00A2               	movwf	(___flge@ff1+2)^(0+128)
  8373  1F0A  0829               	movf	(??___flge+1)^(0+128),w
  8374  1F0B  00A1               	movwf	(___flge@ff1+1)^(0+128)
  8375  1F0C  0828               	movf	??___flge^(0+128),w
  8376  1F0D  00A0               	movwf	___flge@ff1^(0+128)
  8377  1F0E                     l3222:	
  8378  1F0E  1FA7               	btfss	(___flge@ff2+3)^(0+128),7
  8379  1F0F  2F37               	goto	l3226
  8380  1F10  3000               	movlw	0
  8381  1F11  00A8               	movwf	??___flge^(0+128)
  8382  1F12  3000               	movlw	0
  8383  1F13  00A9               	movwf	(??___flge^(0+128)+1)
  8384  1F14  3000               	movlw	0
  8385  1F15  00AA               	movwf	(??___flge^(0+128)+2)
  8386  1F16  3080               	movlw	128
  8387  1F17  00AB               	movwf	(??___flge^(0+128)+3)
  8388  1F18  0924               	comf	___flge@ff2^(0+128),w
  8389  1F19  00AC               	movwf	(??___flge+4)^(0+128)
  8390  1F1A  0925               	comf	(___flge@ff2+1)^(0+128),w
  8391  1F1B  00AD               	movwf	((??___flge+4)^(0+128)+1)
  8392  1F1C  0926               	comf	(___flge@ff2+2)^(0+128),w
  8393  1F1D  00AE               	movwf	((??___flge+4)^(0+128)+2)
  8394  1F1E  0927               	comf	(___flge@ff2+3)^(0+128),w
  8395  1F1F  00AF               	movwf	((??___flge+4)^(0+128)+3)
  8396  1F20  0AAC               	incf	(??___flge+4)^(0+128),f
  8397  1F21  1903               	skipnz
  8398  1F22  0AAD               	incf	((??___flge+4)^(0+128)+1),f
  8399  1F23  1903               	skipnz
  8400  1F24  0AAE               	incf	((??___flge+4)^(0+128)+2),f
  8401  1F25  1903               	skipnz
  8402  1F26  0AAF               	incf	((??___flge+4)^(0+128)+3),f
  8403  1F27  082C               	movf	(??___flge+4)^(0+128),w
  8404  1F28  07A8               	addwf	??___flge^(0+128),f
  8405  1F29  082D               	movf	(??___flge+5)^(0+128),w
  8406  1F2A  3DA9               	addwfc	(??___flge^(0+128)+1),f
  8407  1F2B  082E               	movf	(??___flge+6)^(0+128),w
  8408  1F2C  3DAA               	addwfc	(??___flge^(0+128)+2),f
  8409  1F2D  082F               	movf	(??___flge+7)^(0+128),w
  8410  1F2E  3DAB               	addwfc	(??___flge^(0+128)+3),f
  8411  1F2F  082B               	movf	(??___flge+3)^(0+128),w
  8412  1F30  00A7               	movwf	(___flge@ff2+3)^(0+128)
  8413  1F31  082A               	movf	(??___flge+2)^(0+128),w
  8414  1F32  00A6               	movwf	(___flge@ff2+2)^(0+128)
  8415  1F33  0829               	movf	(??___flge+1)^(0+128),w
  8416  1F34  00A5               	movwf	(___flge@ff2+1)^(0+128)
  8417  1F35  0828               	movf	??___flge^(0+128),w
  8418  1F36  00A4               	movwf	___flge@ff2^(0+128)
  8419  1F37                     l3226:	
  8420  1F37  3080               	movlw	128
  8421  1F38  06A3               	xorwf	(___flge@ff1+3)^(0+128),f
  8422  1F39  3080               	movlw	128
  8423  1F3A  06A7               	xorwf	(___flge@ff2+3)^(0+128),f
  8424  1F3B  0827               	movf	(___flge@ff2+3)^(0+128),w
  8425  1F3C  0223               	subwf	(___flge@ff1+3)^(0+128),w
  8426  1F3D  1D03               	skipz
  8427  1F3E  0008               	return
  8428  1F3F  0826               	movf	(___flge@ff2+2)^(0+128),w
  8429  1F40  0222               	subwf	(___flge@ff1+2)^(0+128),w
  8430  1F41  1D03               	skipz
  8431  1F42  0008               	return
  8432  1F43  0825               	movf	(___flge@ff2+1)^(0+128),w
  8433  1F44  0221               	subwf	(___flge@ff1+1)^(0+128),w
  8434  1F45  1D03               	skipz
  8435  1F46  0008               	return
  8436  1F47  0824               	movf	___flge@ff2^(0+128),w
  8437  1F48  0220               	subwf	___flge@ff1^(0+128),w
  8438  1F49  0008               	return
  8439  1F4A                     __end_of___flge:	
  8440                           
  8441                           	psect	text21
  8442  12DB                     __ptext21:	
  8443 ;; *************** function ___fldiv *****************
  8444 ;; Defined at:
  8445 ;;		line 8 in file "/Applications/microchip/xc8/v1.37/sources/common/sprcdiv.c"
  8446 ;; Parameters:    Size  Location     Type
  8447 ;;  a               4    0[BANK1 ] unsigned char 
  8448 ;;  b               4    4[BANK1 ] unsigned char 
  8449 ;; Auto vars:     Size  Location     Type
  8450 ;;  grs             4   20[BANK1 ] unsigned long 
  8451 ;;  rem             4   14[BANK1 ] unsigned long 
  8452 ;;  new_exp         2   18[BANK1 ] int 
  8453 ;;  aexp            1   25[BANK1 ] unsigned char 
  8454 ;;  bexp            1   24[BANK1 ] unsigned char 
  8455 ;;  sign            1   13[BANK1 ] unsigned char 
  8456 ;; Return value:  Size  Location     Type
  8457 ;;                  4    0[BANK1 ] unsigned char 
  8458 ;; Registers used:
  8459 ;;		wreg, status,2, status,0
  8460 ;; Tracked objects:
  8461 ;;		On entry : 0/0
  8462 ;;		On exit  : 0/0
  8463 ;;		Unchanged: 0/0
  8464 ;; Data sizes:     COMMON   BANK0   BANK1   BANK2   BANK3   BANK4   BANK5   BANK6   BANK7   BANK8   BANK9  BANK10  BANK1
      +1  BANK12
  8465 ;;      Params:         0       0       8       0       0       0       0       0       0       0       0       0       
      +0       0
  8466 ;;      Locals:         0       0      13       0       0       0       0       0       0       0       0       0       
      +0       0
  8467 ;;      Temps:          0       0       5       0       0       0       0       0       0       0       0       0       
      +0       0
  8468 ;;      Totals:         0       0      26       0       0       0       0       0       0       0       0       0       
      +0       0
  8469 ;;Total ram usage:       26 bytes
  8470 ;; Hardware stack levels used:    1
  8471 ;; Hardware stack levels required when called:    2
  8472 ;; This function calls:
  8473 ;;		Nothing
  8474 ;; This function is called by:
  8475 ;;		_main
  8476 ;; This function uses a non-reentrant model
  8477 ;;
  8478                           
  8479                           
  8480                           ;psect for function ___fldiv
  8481  12DB                     ___fldiv:	
  8482                           
  8483                           ;incstack = 0
  8484                           ; Regs used in ___fldiv: [wreg+status,2+status,0]
  8485  12DB  0021               	movlb	1	; select bank1
  8486  12DC  0827               	movf	(___fldiv@b^(0+128)+3),w
  8487  12DD  3980               	andlw	128
  8488  12DE  00A8               	movwf	??___fldiv^(0+128)
  8489  12DF  0828               	movf	??___fldiv^(0+128),w
  8490  12E0  00AD               	movwf	___fldiv@sign^(0+128)
  8491  12E1  3527               	lslf	(___fldiv@b^(0+128)+3),w
  8492  12E2  00A8               	movwf	??___fldiv^(0+128)
  8493  12E3  0828               	movf	??___fldiv^(0+128),w
  8494  12E4  00B8               	movwf	___fldiv@bexp^(0+128)
  8495  12E5  1BA6               	btfsc	(___fldiv@b^(0+128)+2),7
  8496  12E6  1438               	bsf	___fldiv@bexp^(0+128),0
  8497  12E7  0838               	movf	___fldiv@bexp^(0+128),w
  8498  12E8  1903               	btfsc	3,2
  8499  12E9  2AF8               	goto	l3682
  8500  12EA  0A38               	incf	___fldiv@bexp^(0+128),w
  8501  12EB  1D03               	btfss	3,2
  8502  12EC  2AF5               	goto	l3678
  8503  12ED  3000               	movlw	0
  8504  12EE  00A7               	movwf	(___fldiv@b+3)^(0+128)
  8505  12EF  3000               	movlw	0
  8506  12F0  00A6               	movwf	(___fldiv@b+2)^(0+128)
  8507  12F1  3000               	movlw	0
  8508  12F2  00A5               	movwf	(___fldiv@b+1)^(0+128)
  8509  12F3  3000               	movlw	0
  8510  12F4  00A4               	movwf	___fldiv@b^(0+128)
  8511  12F5                     l3678:	
  8512  12F5  17A6               	bsf	(___fldiv@b^(0+128)+2),7
  8513  12F6  01A7               	clrf	(___fldiv@b^(0+128)+3)
  8514  12F7  2B00               	goto	l3684
  8515  12F8                     l3682:	
  8516  12F8  3000               	movlw	0
  8517  12F9  00A7               	movwf	(___fldiv@b+3)^(0+128)
  8518  12FA  3000               	movlw	0
  8519  12FB  00A6               	movwf	(___fldiv@b+2)^(0+128)
  8520  12FC  3000               	movlw	0
  8521  12FD  00A5               	movwf	(___fldiv@b+1)^(0+128)
  8522  12FE  3000               	movlw	0
  8523  12FF  00A4               	movwf	___fldiv@b^(0+128)
  8524  1300                     l3684:	
  8525  1300  0823               	movf	(___fldiv@a^(0+128)+3),w
  8526  1301  3980               	andlw	128
  8527  1302  00A8               	movwf	??___fldiv^(0+128)
  8528  1303  0828               	movf	??___fldiv^(0+128),w
  8529  1304  06AD               	xorwf	___fldiv@sign^(0+128),f
  8530  1305  3523               	lslf	(___fldiv@a^(0+128)+3),w
  8531  1306  00A8               	movwf	??___fldiv^(0+128)
  8532  1307  0828               	movf	??___fldiv^(0+128),w
  8533  1308  00B9               	movwf	___fldiv@aexp^(0+128)
  8534  1309  1BA2               	btfsc	(___fldiv@a^(0+128)+2),7
  8535  130A  1439               	bsf	___fldiv@aexp^(0+128),0
  8536  130B  0839               	movf	___fldiv@aexp^(0+128),w
  8537  130C  1903               	btfsc	3,2
  8538  130D  2B1C               	goto	l3702
  8539  130E  0A39               	incf	___fldiv@aexp^(0+128),w
  8540  130F  1D03               	btfss	3,2
  8541  1310  2B19               	goto	l3698
  8542  1311  3000               	movlw	0
  8543  1312  00A3               	movwf	(___fldiv@a+3)^(0+128)
  8544  1313  3000               	movlw	0
  8545  1314  00A2               	movwf	(___fldiv@a+2)^(0+128)
  8546  1315  3000               	movlw	0
  8547  1316  00A1               	movwf	(___fldiv@a+1)^(0+128)
  8548  1317  3000               	movlw	0
  8549  1318  00A0               	movwf	___fldiv@a^(0+128)
  8550  1319                     l3698:	
  8551  1319  17A2               	bsf	(___fldiv@a^(0+128)+2),7
  8552  131A  01A3               	clrf	(___fldiv@a^(0+128)+3)
  8553  131B  2B24               	goto	l736
  8554  131C                     l3702:	
  8555  131C  3000               	movlw	0
  8556  131D  00A3               	movwf	(___fldiv@a+3)^(0+128)
  8557  131E  3000               	movlw	0
  8558  131F  00A2               	movwf	(___fldiv@a+2)^(0+128)
  8559  1320  3000               	movlw	0
  8560  1321  00A1               	movwf	(___fldiv@a+1)^(0+128)
  8561  1322  3000               	movlw	0
  8562  1323  00A0               	movwf	___fldiv@a^(0+128)
  8563  1324                     l736:	
  8564  1324  0823               	movf	(___fldiv@a+3)^(0+128),w
  8565  1325  0422               	iorwf	(___fldiv@a+2)^(0+128),w
  8566  1326  0421               	iorwf	(___fldiv@a+1)^(0+128),w
  8567  1327  0420               	iorwf	___fldiv@a^(0+128),w
  8568  1328  1D03               	skipz
  8569  1329  2B3F               	goto	l3708
  8570  132A  3000               	movlw	0
  8571  132B  00A7               	movwf	(___fldiv@b+3)^(0+128)
  8572  132C  3000               	movlw	0
  8573  132D  00A6               	movwf	(___fldiv@b+2)^(0+128)
  8574  132E  3000               	movlw	0
  8575  132F  00A5               	movwf	(___fldiv@b+1)^(0+128)
  8576  1330  3000               	movlw	0
  8577  1331  00A4               	movwf	___fldiv@b^(0+128)
  8578  1332  3080               	movlw	128
  8579  1333  04A6               	iorwf	(___fldiv@b^(0+128)+2),f
  8580  1334  307F               	movlw	127
  8581  1335  04A7               	iorwf	((___fldiv@b+1)^(0+128)+2),f
  8582  1336  0827               	movf	(___fldiv@b+3)^(0+128),w
  8583  1337  00A3               	movwf	(?___fldiv+3)^(0+128)
  8584  1338  0826               	movf	(___fldiv@b+2)^(0+128),w
  8585  1339  00A2               	movwf	(?___fldiv+2)^(0+128)
  8586  133A  0825               	movf	(___fldiv@b+1)^(0+128),w
  8587  133B  00A1               	movwf	(?___fldiv+1)^(0+128)
  8588  133C  0824               	movf	___fldiv@b^(0+128),w
  8589  133D  00A0               	movwf	?___fldiv^(0+128)
  8590  133E  0008               	return
  8591  133F                     l3708:	
  8592  133F  0838               	movf	___fldiv@bexp^(0+128),w
  8593  1340  1D03               	btfss	3,2
  8594  1341  2B53               	goto	l3714
  8595  1342  3000               	movlw	0
  8596  1343  00A7               	movwf	(___fldiv@b+3)^(0+128)
  8597  1344  3000               	movlw	0
  8598  1345  00A6               	movwf	(___fldiv@b+2)^(0+128)
  8599  1346  3000               	movlw	0
  8600  1347  00A5               	movwf	(___fldiv@b+1)^(0+128)
  8601  1348  3000               	movlw	0
  8602  1349  00A4               	movwf	___fldiv@b^(0+128)
  8603  134A  0827               	movf	(___fldiv@b+3)^(0+128),w
  8604  134B  00A3               	movwf	(?___fldiv+3)^(0+128)
  8605  134C  0826               	movf	(___fldiv@b+2)^(0+128),w
  8606  134D  00A2               	movwf	(?___fldiv+2)^(0+128)
  8607  134E  0825               	movf	(___fldiv@b+1)^(0+128),w
  8608  134F  00A1               	movwf	(?___fldiv+1)^(0+128)
  8609  1350  0824               	movf	___fldiv@b^(0+128),w
  8610  1351  00A0               	movwf	?___fldiv^(0+128)
  8611  1352  0008               	return
  8612  1353                     l3714:	
  8613  1353  0839               	movf	___fldiv@aexp^(0+128),w
  8614  1354  00A8               	movwf	??___fldiv^(0+128)
  8615  1355  01A9               	clrf	(??___fldiv^(0+128)+1)
  8616  1356  09A8               	comf	??___fldiv^(0+128),f
  8617  1357  09A9               	comf	(??___fldiv^(0+128)+1),f
  8618  1358  0AA8               	incf	??___fldiv^(0+128),f
  8619  1359  1903               	skipnz
  8620  135A  0AA9               	incf	(??___fldiv^(0+128)+1),f
  8621  135B  0838               	movf	___fldiv@bexp^(0+128),w
  8622  135C  0728               	addwf	??___fldiv^(0+128),w
  8623  135D  00AA               	movwf	(??___fldiv+2)^(0+128)
  8624  135E  0829               	movf	(??___fldiv+1)^(0+128),w
  8625  135F  1803               	skipnc
  8626  1360  0A29               	incf	(??___fldiv+1)^(0+128),w
  8627  1361  00AB               	movwf	((??___fldiv+2)^(0+128)+1)
  8628  1362  082A               	movf	(??___fldiv+2)^(0+128),w
  8629  1363  3E7F               	addlw	127
  8630  1364  00B2               	movwf	___fldiv@new_exp^(0+128)
  8631  1365  3000               	movlw	0
  8632  1366  3D2B               	addwfc	(??___fldiv+3)^(0+128),w
  8633  1367  00B3               	movwf	(___fldiv@new_exp+1)^(0+128)
  8634  1368  0827               	movf	(___fldiv@b+3)^(0+128),w
  8635  1369  00B1               	movwf	(___fldiv@rem+3)^(0+128)
  8636  136A  0826               	movf	(___fldiv@b+2)^(0+128),w
  8637  136B  00B0               	movwf	(___fldiv@rem+2)^(0+128)
  8638  136C  0825               	movf	(___fldiv@b+1)^(0+128),w
  8639  136D  00AF               	movwf	(___fldiv@rem+1)^(0+128)
  8640  136E  0824               	movf	___fldiv@b^(0+128),w
  8641  136F  00AE               	movwf	___fldiv@rem^(0+128)
  8642  1370  3000               	movlw	0
  8643  1371  00A7               	movwf	(___fldiv@b+3)^(0+128)
  8644  1372  3000               	movlw	0
  8645  1373  00A6               	movwf	(___fldiv@b+2)^(0+128)
  8646  1374  3000               	movlw	0
  8647  1375  00A5               	movwf	(___fldiv@b+1)^(0+128)
  8648  1376  3000               	movlw	0
  8649  1377  00A4               	movwf	___fldiv@b^(0+128)
  8650  1378  3000               	movlw	0
  8651  1379  00B7               	movwf	(___fldiv@grs+3)^(0+128)
  8652  137A  3000               	movlw	0
  8653  137B  00B6               	movwf	(___fldiv@grs+2)^(0+128)
  8654  137C  3000               	movlw	0
  8655  137D  00B5               	movwf	(___fldiv@grs+1)^(0+128)
  8656  137E  3000               	movlw	0
  8657  137F  00B4               	movwf	___fldiv@grs^(0+128)
  8658  1380  01B9               	clrf	___fldiv@aexp^(0+128)
  8659  1381                     l3742:	
  8660  1381  301A               	movlw	26
  8661  1382  0239               	subwf	___fldiv@aexp^(0+128),w
  8662  1383  1803               	btfsc	3,0
  8663  1384  2BBD               	goto	l3744
  8664  1385  0839               	movf	___fldiv@aexp^(0+128),w
  8665  1386  1903               	btfsc	3,2
  8666  1387  2B9F               	goto	l3734
  8667  1388  3001               	movlw	1
  8668  1389                     u5955:	
  8669  1389  35AE               	lslf	___fldiv@rem^(0+128),f
  8670  138A  0DAF               	rlf	(___fldiv@rem+1)^(0+128),f
  8671  138B  0DB0               	rlf	(___fldiv@rem+2)^(0+128),f
  8672  138C  0DB1               	rlf	(___fldiv@rem+3)^(0+128),f
  8673  138D  0B89               	decfsz	9,f
  8674  138E  2B89               	goto	u5955
  8675  138F  3001               	movlw	1
  8676  1390                     u5965:	
  8677  1390  35A4               	lslf	___fldiv@b^(0+128),f
  8678  1391  0DA5               	rlf	(___fldiv@b+1)^(0+128),f
  8679  1392  0DA6               	rlf	(___fldiv@b+2)^(0+128),f
  8680  1393  0DA7               	rlf	(___fldiv@b+3)^(0+128),f
  8681  1394  0B89               	decfsz	9,f
  8682  1395  2B90               	goto	u5965
  8683  1396  1BB7               	btfsc	(___fldiv@grs+3)^(0+128),7
  8684  1397  1424               	bsf	___fldiv@b^(0+128),0
  8685  1398  3001               	movlw	1
  8686  1399                     u5985:	
  8687  1399  35B4               	lslf	___fldiv@grs^(0+128),f
  8688  139A  0DB5               	rlf	(___fldiv@grs+1)^(0+128),f
  8689  139B  0DB6               	rlf	(___fldiv@grs+2)^(0+128),f
  8690  139C  0DB7               	rlf	(___fldiv@grs+3)^(0+128),f
  8691  139D  0B89               	decfsz	9,f
  8692  139E  2B99               	goto	u5985
  8693  139F                     l3734:	
  8694  139F  0823               	movf	(___fldiv@a+3)^(0+128),w
  8695  13A0  0231               	subwf	(___fldiv@rem+3)^(0+128),w
  8696  13A1  1D03               	skipz
  8697  13A2  2BAD               	goto	u5995
  8698  13A3  0822               	movf	(___fldiv@a+2)^(0+128),w
  8699  13A4  0230               	subwf	(___fldiv@rem+2)^(0+128),w
  8700  13A5  1D03               	skipz
  8701  13A6  2BAD               	goto	u5995
  8702  13A7  0821               	movf	(___fldiv@a+1)^(0+128),w
  8703  13A8  022F               	subwf	(___fldiv@rem+1)^(0+128),w
  8704  13A9  1D03               	skipz
  8705  13AA  2BAD               	goto	u5995
  8706  13AB  0820               	movf	___fldiv@a^(0+128),w
  8707  13AC  022E               	subwf	___fldiv@rem^(0+128),w
  8708  13AD                     u5995:	
  8709  13AD  1C03               	skipc
  8710  13AE  2BB8               	goto	l3740
  8711  13AF  1737               	bsf	(___fldiv@grs^(0+128)+3),6
  8712  13B0  0820               	movf	___fldiv@a^(0+128),w
  8713  13B1  02AE               	subwf	___fldiv@rem^(0+128),f
  8714  13B2  0821               	movf	(___fldiv@a+1)^(0+128),w
  8715  13B3  3BAF               	subwfb	(___fldiv@rem+1)^(0+128),f
  8716  13B4  0822               	movf	(___fldiv@a+2)^(0+128),w
  8717  13B5  3BB0               	subwfb	(___fldiv@rem+2)^(0+128),f
  8718  13B6  0823               	movf	(___fldiv@a+3)^(0+128),w
  8719  13B7  3BB1               	subwfb	(___fldiv@rem+3)^(0+128),f
  8720  13B8                     l3740:	
  8721  13B8  3001               	movlw	1
  8722  13B9  00A8               	movwf	??___fldiv^(0+128)
  8723  13BA  0828               	movf	??___fldiv^(0+128),w
  8724  13BB  07B9               	addwf	___fldiv@aexp^(0+128),f
  8725  13BC  2B81               	goto	l3742
  8726  13BD                     l3744:	
  8727  13BD  0831               	movf	(___fldiv@rem+3)^(0+128),w
  8728  13BE  0430               	iorwf	(___fldiv@rem+2)^(0+128),w
  8729  13BF  042F               	iorwf	(___fldiv@rem+1)^(0+128),w
  8730  13C0  042E               	iorwf	___fldiv@rem^(0+128),w
  8731  13C1  1D03               	btfss	3,2
  8732  13C2  1434               	bsf	___fldiv@grs^(0+128),0
  8733  13C3                     l3758:	
  8734  13C3  1BA6               	btfsc	(___fldiv@b+2)^(0+128),7
  8735  13C4  2BDA               	goto	l3760
  8736  13C5  3001               	movlw	1
  8737  13C6                     u6025:	
  8738  13C6  35A4               	lslf	___fldiv@b^(0+128),f
  8739  13C7  0DA5               	rlf	(___fldiv@b+1)^(0+128),f
  8740  13C8  0DA6               	rlf	(___fldiv@b+2)^(0+128),f
  8741  13C9  0DA7               	rlf	(___fldiv@b+3)^(0+128),f
  8742  13CA  0B89               	decfsz	9,f
  8743  13CB  2BC6               	goto	u6025
  8744  13CC  1BB7               	btfsc	(___fldiv@grs+3)^(0+128),7
  8745  13CD  1424               	bsf	___fldiv@b^(0+128),0
  8746  13CE  3001               	movlw	1
  8747  13CF                     u6045:	
  8748  13CF  35B4               	lslf	___fldiv@grs^(0+128),f
  8749  13D0  0DB5               	rlf	(___fldiv@grs+1)^(0+128),f
  8750  13D1  0DB6               	rlf	(___fldiv@grs+2)^(0+128),f
  8751  13D2  0DB7               	rlf	(___fldiv@grs+3)^(0+128),f
  8752  13D3  0B89               	decfsz	9,f
  8753  13D4  2BCF               	goto	u6045
  8754  13D5  30FF               	movlw	255
  8755  13D6  07B2               	addwf	___fldiv@new_exp^(0+128),f
  8756  13D7  30FF               	movlw	255
  8757  13D8  3DB3               	addwfc	(___fldiv@new_exp+1)^(0+128),f
  8758  13D9  2BC3               	goto	l3758
  8759  13DA                     l3760:	
  8760  13DA  01B9               	clrf	___fldiv@aexp^(0+128)
  8761  13DB  1FB7               	btfss	(___fldiv@grs+3)^(0+128),7
  8762  13DC  2BF3               	goto	l3770
  8763  13DD  30FF               	movlw	255
  8764  13DE  0534               	andwf	___fldiv@grs^(0+128),w
  8765  13DF  00A8               	movwf	??___fldiv^(0+128)
  8766  13E0  30FF               	movlw	255
  8767  13E1  0535               	andwf	(___fldiv@grs+1)^(0+128),w
  8768  13E2  00A9               	movwf	(??___fldiv^(0+128)+1)
  8769  13E3  30FF               	movlw	255
  8770  13E4  0536               	andwf	(___fldiv@grs+2)^(0+128),w
  8771  13E5  00AA               	movwf	(??___fldiv^(0+128)+2)
  8772  13E6  307F               	movlw	127
  8773  13E7  0537               	andwf	(___fldiv@grs+3)^(0+128),w
  8774  13E8  00AB               	movwf	(??___fldiv^(0+128)+3)
  8775  13E9  082B               	movf	(??___fldiv+3)^(0+128),w
  8776  13EA  042A               	iorwf	(??___fldiv+2)^(0+128),w
  8777  13EB  0429               	iorwf	(??___fldiv+1)^(0+128),w
  8778  13EC  0428               	iorwf	??___fldiv^(0+128),w
  8779  13ED  1D03               	btfss	3,2
  8780  13EE  2BF1               	goto	l3768
  8781  13EF  1C24               	btfss	___fldiv@b^(0+128),0
  8782  13F0  2BF3               	goto	l3770
  8783  13F1                     l3768:	
  8784  13F1  01B9               	clrf	___fldiv@aexp^(0+128)
  8785  13F2  0AB9               	incf	___fldiv@aexp^(0+128),f
  8786  13F3                     l3770:	
  8787  13F3  0839               	movf	___fldiv@aexp^(0+128),w
  8788  13F4  1903               	btfsc	3,2
  8789  13F5  2C1C               	goto	l3780
  8790  13F6  3001               	movlw	1
  8791  13F7  07A4               	addwf	___fldiv@b^(0+128),f
  8792  13F8  3000               	movlw	0
  8793  13F9  3DA5               	addwfc	(___fldiv@b+1)^(0+128),f
  8794  13FA  3000               	movlw	0
  8795  13FB  3DA6               	addwfc	(___fldiv@b+2)^(0+128),f
  8796  13FC  3000               	movlw	0
  8797  13FD  3DA7               	addwfc	(___fldiv@b+3)^(0+128),f
  8798  13FE  1C27               	btfss	(___fldiv@b+3)^(0+128),0
  8799  13FF  2C1C               	goto	l3780
  8800  1400  0824               	movf	___fldiv@b^(0+128),w
  8801  1401  00A8               	movwf	??___fldiv^(0+128)
  8802  1402  0825               	movf	(___fldiv@b+1)^(0+128),w
  8803  1403  00A9               	movwf	(??___fldiv^(0+128)+1)
  8804  1404  0826               	movf	(___fldiv@b+2)^(0+128),w
  8805  1405  00AA               	movwf	(??___fldiv^(0+128)+2)
  8806  1406  0827               	movf	(___fldiv@b+3)^(0+128),w
  8807  1407  00AB               	movwf	(??___fldiv^(0+128)+3)
  8808  1408  3001               	movlw	1
  8809  1409  00AC               	movwf	(??___fldiv+4)^(0+128)
  8810  140A                     u6115:	
  8811  140A  37AB               	asrf	(??___fldiv^(0+128)+3),f
  8812  140B  0CAA               	rrf	(??___fldiv^(0+128)+2),f
  8813  140C  0CA9               	rrf	(??___fldiv^(0+128)+1),f
  8814  140D  0CA8               	rrf	??___fldiv^(0+128),f
  8815  140E  0BAC               	decfsz	(??___fldiv+4)^(0+128),f
  8816  140F  2C0A               	goto	u6115
  8817  1410  082B               	movf	(??___fldiv+3)^(0+128),w
  8818  1411  00A7               	movwf	(___fldiv@b+3)^(0+128)
  8819  1412  082A               	movf	(??___fldiv+2)^(0+128),w
  8820  1413  00A6               	movwf	(___fldiv@b+2)^(0+128)
  8821  1414  0829               	movf	(??___fldiv+1)^(0+128),w
  8822  1415  00A5               	movwf	(___fldiv@b+1)^(0+128)
  8823  1416  0828               	movf	??___fldiv^(0+128),w
  8824  1417  00A4               	movwf	___fldiv@b^(0+128)
  8825  1418  3001               	movlw	1
  8826  1419  07B2               	addwf	___fldiv@new_exp^(0+128),f
  8827  141A  3000               	movlw	0
  8828  141B  3DB3               	addwfc	(___fldiv@new_exp+1)^(0+128),f
  8829  141C                     l3780:	
  8830  141C  0833               	movf	(___fldiv@new_exp+1)^(0+128),w
  8831  141D  3A80               	xorlw	128
  8832  141E  00A8               	movwf	??___fldiv^(0+128)
  8833  141F  3080               	movlw	128
  8834  1420  0228               	subwf	??___fldiv^(0+128),w
  8835  1421  1D03               	skipz
  8836  1422  2C25               	goto	u6125
  8837  1423  30FF               	movlw	255
  8838  1424  0232               	subwf	___fldiv@new_exp^(0+128),w
  8839  1425                     u6125:	
  8840  1425  1C03               	skipc
  8841  1426  2C34               	goto	l757
  8842  1427  30FF               	movlw	255
  8843  1428  0021               	movlb	1	; select bank1
  8844  1429  00B2               	movwf	___fldiv@new_exp^(0+128)
  8845  142A  3000               	movlw	0
  8846  142B  00B3               	movwf	(___fldiv@new_exp^(0+128)+1)
  8847  142C  3000               	movlw	0
  8848  142D  00A7               	movwf	(___fldiv@b+3)^(0+128)
  8849  142E  3000               	movlw	0
  8850  142F  00A6               	movwf	(___fldiv@b+2)^(0+128)
  8851  1430  3000               	movlw	0
  8852  1431  00A5               	movwf	(___fldiv@b+1)^(0+128)
  8853  1432  3000               	movlw	0
  8854  1433  00A4               	movwf	___fldiv@b^(0+128)
  8855  1434                     l757:	
  8856  1434  0021               	movlb	1	; select bank1
  8857  1435  0833               	movf	(___fldiv@new_exp+1)^(0+128),w
  8858  1436  3A80               	xorlw	128
  8859  1437  00A8               	movwf	??___fldiv^(0+128)
  8860  1438  3080               	movlw	128
  8861  1439  0228               	subwf	??___fldiv^(0+128),w
  8862  143A  1D03               	skipz
  8863  143B  2C3E               	goto	u6135
  8864  143C  3001               	movlw	1
  8865  143D  0232               	subwf	___fldiv@new_exp^(0+128),w
  8866  143E                     u6135:	
  8867  143E  1803               	skipnc
  8868  143F  2C4C               	goto	l758
  8869  1440  0021               	movlb	1	; select bank1
  8870  1441  01B2               	clrf	___fldiv@new_exp^(0+128)
  8871  1442  01B3               	clrf	(___fldiv@new_exp+1)^(0+128)
  8872  1443  3000               	movlw	0
  8873  1444  00A7               	movwf	(___fldiv@b+3)^(0+128)
  8874  1445  3000               	movlw	0
  8875  1446  00A6               	movwf	(___fldiv@b+2)^(0+128)
  8876  1447  3000               	movlw	0
  8877  1448  00A5               	movwf	(___fldiv@b+1)^(0+128)
  8878  1449  3000               	movlw	0
  8879  144A  00A4               	movwf	___fldiv@b^(0+128)
  8880  144B  01AD               	clrf	___fldiv@sign^(0+128)
  8881  144C                     l758:	
  8882  144C  0021               	movlb	1	; select bank1
  8883  144D  0832               	movf	___fldiv@new_exp^(0+128),w
  8884  144E  00A8               	movwf	??___fldiv^(0+128)
  8885  144F  0828               	movf	??___fldiv^(0+128),w
  8886  1450  00B8               	movwf	___fldiv@bexp^(0+128)
  8887  1451  1C38               	btfss	___fldiv@bexp^(0+128),0
  8888  1452  2C55               	goto	l3794
  8889  1453  17A6               	bsf	(___fldiv@b^(0+128)+2),7
  8890  1454  2C59               	goto	l760
  8891  1455                     l3794:	
  8892  1455  307F               	movlw	127
  8893  1456  00A8               	movwf	??___fldiv^(0+128)
  8894  1457  0828               	movf	??___fldiv^(0+128),w
  8895  1458  05A6               	andwf	(___fldiv@b^(0+128)+2),f
  8896  1459                     l760:	
  8897  1459  3638               	lsrf	___fldiv@bexp^(0+128),w
  8898  145A  00A8               	movwf	??___fldiv^(0+128)
  8899  145B  0828               	movf	??___fldiv^(0+128),w
  8900  145C  00A7               	movwf	(___fldiv@b^(0+128)+3)
  8901  145D  082D               	movf	___fldiv@sign^(0+128),w
  8902  145E  00A8               	movwf	??___fldiv^(0+128)
  8903  145F  0828               	movf	??___fldiv^(0+128),w
  8904  1460  04A7               	iorwf	(___fldiv@b^(0+128)+3),f
  8905  1461  0827               	movf	(___fldiv@b+3)^(0+128),w
  8906  1462  00A3               	movwf	(?___fldiv+3)^(0+128)
  8907  1463  0826               	movf	(___fldiv@b+2)^(0+128),w
  8908  1464  00A2               	movwf	(?___fldiv+2)^(0+128)
  8909  1465  0825               	movf	(___fldiv@b+1)^(0+128),w
  8910  1466  00A1               	movwf	(?___fldiv+1)^(0+128)
  8911  1467  0824               	movf	___fldiv@b^(0+128),w
  8912  1468  00A0               	movwf	?___fldiv^(0+128)
  8913  1469  0008               	return
  8914  146A                     __end_of___fldiv:	
  8915                           
  8916                           	psect	intentry
  8917  0004                     __pintentry:	
  8918 ;; *************** function _ISR *****************
  8919 ;; Defined at:
  8920 ;;		line 154 in file "main.c"
  8921 ;; Parameters:    Size  Location     Type
  8922 ;;		None
  8923 ;; Auto vars:     Size  Location     Type
  8924 ;;		None
  8925 ;; Return value:  Size  Location     Type
  8926 ;;                  1    wreg      void 
  8927 ;; Registers used:
  8928 ;;		wreg, status,2, status,0, pclath, cstack
  8929 ;; Tracked objects:
  8930 ;;		On entry : 0/0
  8931 ;;		On exit  : 0/0
  8932 ;;		Unchanged: 0/0
  8933 ;; Data sizes:     COMMON   BANK0   BANK1   BANK2   BANK3   BANK4   BANK5   BANK6   BANK7   BANK8   BANK9  BANK10  BANK1
      +1  BANK12
  8934 ;;      Params:         0       0       0       0       0       0       0       0       0       0       0       0       
      +0       0
  8935 ;;      Locals:         0       0       0       0       0       0       0       0       0       0       0       0       
      +0       0
  8936 ;;      Temps:          0       2       0       0       0       0       0       0       0       0       0       0       
      +0       0
  8937 ;;      Totals:         0       2       0       0       0       0       0       0       0       0       0       0       
      +0       0
  8938 ;;Total ram usage:        2 bytes
  8939 ;; Hardware stack levels used:    1
  8940 ;; Hardware stack levels required when called:    1
  8941 ;; This function calls:
  8942 ;;		i1___fladd
  8943 ;;		i1___fldiv
  8944 ;;		i1___xxtofl
  8945 ;; This function is called by:
  8946 ;;		Interrupt level 1
  8947 ;; This function uses a non-reentrant model
  8948 ;;
  8949                           
  8950  0004                     _ISR:	
  8951                           
  8952                           ;incstack = 0
  8953                           ; Regs used in _ISR: [wreg+status,2+status,0+pclath+cstack]
  8954  0004  147E               	bsf	126,0	;set compiler interrupt flag (level 1)
  8955  0005  3180               	pagesel	$
  8956  0006  0020               	movlb	0	; select bank0
  8957  0007  087F               	movf	127,w
  8958  0008  00D3               	movwf	??_ISR+1
  8959                           
  8960                           ;main.c: 156: if (SMT1PRAIF)
  8961  0009  1C93               	btfss	19,1	;volatile
  8962  000A  287A               	goto	i1l91
  8963                           
  8964                           ;main.c: 157: {
  8965                           ;main.c: 158: SMT1PRAIF = 0;
  8966  000B  1093               	bcf	19,1	;volatile
  8967                           
  8968                           ;main.c: 160: acqCounter++;
  8969  000C  3001               	movlw	1
  8970  000D  07D8               	addwf	_acqCounter,f	;volatile
  8971  000E  3000               	movlw	0
  8972  000F  3DD9               	addwfc	_acqCounter+1,f	;volatile
  8973                           
  8974                           ;main.c: 161: acqHolder += 20000000.0 / (double)SMT1CPR;
  8975  0010  304B               	movlw	75
  8976  0011  00A7               	movwf	i1___fldiv@b+3
  8977  0012  3098               	movlw	152
  8978  0013  00A6               	movwf	i1___fldiv@b+2
  8979  0014  3096               	movlw	150
  8980  0015  00A5               	movwf	i1___fldiv@b+1
  8981  0016  3080               	movlw	128
  8982  0017  00A4               	movwf	i1___fldiv@b
  8983  0018  003B               	movlb	27	; select bank27
  8984  0019  080F               	movf	15,w	;volatile
  8985  001A  00F0               	movwf	i1___xxtofl@val
  8986  001B  0810               	movf	16,w	;volatile
  8987  001C  00F1               	movwf	i1___xxtofl@val+1
  8988  001D  0811               	movf	17,w	;volatile
  8989  001E  00F2               	movwf	i1___xxtofl@val+2
  8990  001F  01F3               	clrf	i1___xxtofl@val+3
  8991  0020  3000               	movlw	0
  8992  0021  319D  2585  3180   	fcall	i1___xxtofl
  8993  0024  0873               	movf	?i1___xxtofl+3,w
  8994  0025  0020               	movlb	0	; select bank0
  8995  0026  00A3               	movwf	i1___fldiv@a+3
  8996  0027  0872               	movf	?i1___xxtofl+2,w
  8997  0028  00A2               	movwf	i1___fldiv@a+2
  8998  0029  0871               	movf	?i1___xxtofl+1,w
  8999  002A  00A1               	movwf	i1___fldiv@a+1
  9000  002B  0870               	movf	?i1___xxtofl,w
  9001  002C  00A0               	movwf	i1___fldiv@a
  9002  002D  3191  214C  3180   	fcall	i1___fldiv
  9003  0030  0020               	movlb	0	; select bank0
  9004  0031  0823               	movf	?i1___fldiv+3,w
  9005  0032  00BD               	movwf	i1___fladd@b+3
  9006  0033  0822               	movf	?i1___fldiv+2,w
  9007  0034  00BC               	movwf	i1___fladd@b+2
  9008  0035  0821               	movf	?i1___fldiv+1,w
  9009  0036  00BB               	movwf	i1___fladd@b+1
  9010  0037  0820               	movf	?i1___fldiv,w
  9011  0038  00BA               	movwf	i1___fladd@b
  9012  0039  0857               	movf	_acqHolder+3,w	;volatile
  9013  003A  00C1               	movwf	i1___fladd@a+3
  9014  003B  0856               	movf	_acqHolder+2,w	;volatile
  9015  003C  00C0               	movwf	i1___fladd@a+2
  9016  003D  0855               	movf	_acqHolder+1,w	;volatile
  9017  003E  00BF               	movwf	i1___fladd@a+1
  9018  003F  0854               	movf	_acqHolder,w	;volatile
  9019  0040  00BE               	movwf	i1___fladd@a
  9020  0041  3196  2604  3180   	fcall	i1___fladd
  9021  0044  0020               	movlb	0	; select bank0
  9022  0045  083D               	movf	?i1___fladd+3,w
  9023  0046  00D7               	movwf	_acqHolder+3	;volatile
  9024  0047  083C               	movf	?i1___fladd+2,w
  9025  0048  00D6               	movwf	_acqHolder+2	;volatile
  9026  0049  083B               	movf	?i1___fladd+1,w
  9027  004A  00D5               	movwf	_acqHolder+1	;volatile
  9028  004B  083A               	movf	?i1___fladd,w
  9029  004C  00D4               	movwf	_acqHolder	;volatile
  9030                           
  9031                           ;main.c: 163: if (acqCounter >= 60)
  9032  004D  0859               	movf	_acqCounter+1,w	;volatile
  9033  004E  3A80               	xorlw	128
  9034  004F  00D2               	movwf	??_ISR
  9035  0050  3080               	movlw	128
  9036  0051  0252               	subwf	??_ISR,w
  9037  0052  1D03               	skipz
  9038  0053  2856               	goto	u707_25
  9039  0054  303C               	movlw	60
  9040  0055  0258               	subwf	_acqCounter,w	;volatile
  9041  0056                     u707_25:	
  9042  0056  1C03               	skipc
  9043  0057  2892               	goto	i1l98
  9044                           
  9045                           ;main.c: 164: {
  9046                           ;main.c: 165: acqCounter = 0;
  9047  0058  0020               	movlb	0	; select bank0
  9048  0059  01D8               	clrf	_acqCounter	;volatile
  9049  005A  01D9               	clrf	_acqCounter+1	;volatile
  9050                           
  9051                           ;main.c: 166: acqOut = acqHolder;
  9052  005B  0857               	movf	_acqHolder+3,w	;volatile
  9053  005C  0023               	movlb	3	; select bank3
  9054  005D  00A3               	movwf	(_acqOut+3)^(0+384)	;volatile
  9055  005E  0020               	movlb	0	; select bank0
  9056  005F  0856               	movf	_acqHolder+2,w	;volatile
  9057  0060  0023               	movlb	3	; select bank3
  9058  0061  00A2               	movwf	(_acqOut+2)^(0+384)	;volatile
  9059  0062  0020               	movlb	0	; select bank0
  9060  0063  0855               	movf	_acqHolder+1,w	;volatile
  9061  0064  0023               	movlb	3	; select bank3
  9062  0065  00A1               	movwf	(_acqOut+1)^(0+384)	;volatile
  9063  0066  0020               	movlb	0	; select bank0
  9064  0067  0854               	movf	_acqHolder,w	;volatile
  9065  0068  0023               	movlb	3	; select bank3
  9066  0069  00A0               	movwf	_acqOut^(0+384)	;volatile
  9067                           
  9068                           ;main.c: 167: acqGate = 1;
  9069  006A  3001               	movlw	1
  9070  006B  0020               	movlb	0	; select bank0
  9071  006C  00D2               	movwf	??_ISR
  9072  006D  0852               	movf	??_ISR,w
  9073  006E  0023               	movlb	3	; select bank3
  9074  006F  00A4               	movwf	_acqGate^(0+384)	;volatile
  9075                           
  9076                           ;main.c: 168: acqHolder = 0;
  9077  0070  3000               	movlw	0
  9078  0071  0020               	movlb	0	; select bank0
  9079  0072  00D7               	movwf	_acqHolder+3	;volatile
  9080  0073  3000               	movlw	0
  9081  0074  00D6               	movwf	_acqHolder+2	;volatile
  9082  0075  3000               	movlw	0
  9083  0076  00D5               	movwf	_acqHolder+1	;volatile
  9084  0077  3000               	movlw	0
  9085  0078  00D4               	movwf	_acqHolder	;volatile
  9086                           
  9087                           ;main.c: 169: }
  9088                           ;main.c: 170: }
  9089  0079  2892               	goto	i1l98
  9090  007A                     i1l91:	
  9091                           
  9092                           ;main.c: 172: else if (ZCDIF)
  9093  007A  1E12               	btfss	18,4	;volatile
  9094  007B  2892               	goto	i1l98
  9095                           
  9096                           ;main.c: 173: {
  9097                           ;main.c: 174: ZCDIF = 0;
  9098  007C  1212               	bcf	18,4	;volatile
  9099                           
  9100                           ;main.c: 176: if (AT1PHS < 177 || AT1PHS > 181)
  9101  007D  3000               	movlw	0
  9102  007E  0030               	movlb	16	; select bank16
  9103  007F  0213               	subwf	19,w	;volatile
  9104  0080  30B1               	movlw	177
  9105  0081  1903               	skipnz
  9106  0082  0212               	subwf	18,w	;volatile
  9107  0083  1C03               	skipc
  9108  0084  288C               	goto	i1l4292
  9109  0085  3000               	movlw	0
  9110  0086  0213               	subwf	19,w	;volatile
  9111  0087  30B6               	movlw	182
  9112  0088  1903               	skipnz
  9113  0089  0212               	subwf	18,w	;volatile
  9114  008A  1C03               	skipc
  9115  008B  2892               	goto	i1l98
  9116  008C                     i1l4292:	
  9117                           
  9118                           ;main.c: 177: {
  9119                           ;main.c: 178: missedCycle = 1;
  9120  008C  3001               	movlw	1
  9121  008D  0020               	movlb	0	; select bank0
  9122  008E  00D2               	movwf	??_ISR
  9123  008F  0852               	movf	??_ISR,w
  9124  0090  0023               	movlb	3	; select bank3
  9125  0091  00A5               	movwf	_missedCycle^(0+384)	;volatile
  9126  0092                     i1l98:	
  9127  0092  0020               	movlb	0	; select bank0
  9128  0093  0853               	movf	??_ISR+1,w
  9129  0094  00FF               	movwf	127
  9130  0095  107E               	bcf	126,0	;clear compiler interrupt flag (level 1)
  9131  0096  0009               	retfie
  9132  0097                     __end_of_ISR:	
  9133                           
  9134                           	psect	text23
  9135  1D85                     __ptext23:	
  9136 ;; *************** function i1___xxtofl *****************
  9137 ;; Defined at:
  9138 ;;		line 10 in file "/Applications/microchip/xc8/v1.37/sources/common/xxtofl.c"
  9139 ;; Parameters:    Size  Location     Type
  9140 ;;  sign            1    wreg     unsigned char 
  9141 ;;  val             4    0[COMMON] long 
  9142 ;; Auto vars:     Size  Location     Type
  9143 ;;  sign            1    8[COMMON] unsigned char 
  9144 ;;  __xxtofl        4   10[COMMON] unsigned long 
  9145 ;;  __xxtofl        1    9[COMMON] unsigned char 
  9146 ;; Return value:  Size  Location     Type
  9147 ;;                  4    0[COMMON] unsigned char 
  9148 ;; Registers used:
  9149 ;;		wreg, status,2, status,0
  9150 ;; Tracked objects:
  9151 ;;		On entry : 0/0
  9152 ;;		On exit  : 0/0
  9153 ;;		Unchanged: 0/0
  9154 ;; Data sizes:     COMMON   BANK0   BANK1   BANK2   BANK3   BANK4   BANK5   BANK6   BANK7   BANK8   BANK9  BANK10  BANK1
      +1  BANK12
  9155 ;;      Params:         4       0       0       0       0       0       0       0       0       0       0       0       
      +0       0
  9156 ;;      Locals:         6       0       0       0       0       0       0       0       0       0       0       0       
      +0       0
  9157 ;;      Temps:          4       0       0       0       0       0       0       0       0       0       0       0       
      +0       0
  9158 ;;      Totals:        14       0       0       0       0       0       0       0       0       0       0       0       
      +0       0
  9159 ;;Total ram usage:       14 bytes
  9160 ;; Hardware stack levels used:    1
  9161 ;; This function calls:
  9162 ;;		Nothing
  9163 ;; This function is called by:
  9164 ;;		_ISR
  9165 ;; This function uses a non-reentrant model
  9166 ;;
  9167                           
  9168                           
  9169                           ;psect for function i1___xxtofl
  9170  1D85                     i1___xxtofl:	
  9171                           
  9172                           ;incstack = 0
  9173                           ; Regs used in i1___xxtofl: [wreg+status,2+status,0]
  9174                           ;i1___xxtofl@sign stored from wreg
  9175  1D85  00F8               	movwf	i1___xxtofl@sign
  9176  1D86  0878               	movf	i1___xxtofl@sign,w
  9177  1D87  1D03               	btfss	3,2
  9178  1D88  1FF3               	btfss	i1___xxtofl@val+3,7
  9179  1D89  2D9A               	goto	i1l4136
  9180  1D8A  0970               	comf	i1___xxtofl@val,w
  9181  1D8B  00FA               	movwf	i1___xxtofl@arg
  9182  1D8C  0971               	comf	i1___xxtofl@val+1,w
  9183  1D8D  00FB               	movwf	i1___xxtofl@arg+1
  9184  1D8E  0972               	comf	i1___xxtofl@val+2,w
  9185  1D8F  00FC               	movwf	i1___xxtofl@arg+2
  9186  1D90  0973               	comf	i1___xxtofl@val+3,w
  9187  1D91  00FD               	movwf	i1___xxtofl@arg+3
  9188  1D92  0AFA               	incf	i1___xxtofl@arg,f
  9189  1D93  1903               	skipnz
  9190  1D94  0AFB               	incf	i1___xxtofl@arg+1,f
  9191  1D95  1903               	skipnz
  9192  1D96  0AFC               	incf	i1___xxtofl@arg+2,f
  9193  1D97  1903               	skipnz
  9194  1D98  0AFD               	incf	i1___xxtofl@arg+3,f
  9195  1D99  2DA2               	goto	i1l795
  9196  1D9A                     i1l4136:	
  9197  1D9A  0873               	movf	i1___xxtofl@val+3,w
  9198  1D9B  00FD               	movwf	i1___xxtofl@arg+3
  9199  1D9C  0872               	movf	i1___xxtofl@val+2,w
  9200  1D9D  00FC               	movwf	i1___xxtofl@arg+2
  9201  1D9E  0871               	movf	i1___xxtofl@val+1,w
  9202  1D9F  00FB               	movwf	i1___xxtofl@arg+1
  9203  1DA0  0870               	movf	i1___xxtofl@val,w
  9204  1DA1  00FA               	movwf	i1___xxtofl@arg
  9205  1DA2                     i1l795:	
  9206  1DA2  0873               	movf	i1___xxtofl@val+3,w
  9207  1DA3  0472               	iorwf	i1___xxtofl@val+2,w
  9208  1DA4  0471               	iorwf	i1___xxtofl@val+1,w
  9209  1DA5  0470               	iorwf	i1___xxtofl@val,w
  9210  1DA6  1D03               	skipz
  9211  1DA7  2DB1               	goto	i1l4142
  9212  1DA8  3000               	movlw	0
  9213  1DA9  00F3               	movwf	?i1___xxtofl+3
  9214  1DAA  3000               	movlw	0
  9215  1DAB  00F2               	movwf	?i1___xxtofl+2
  9216  1DAC  3000               	movlw	0
  9217  1DAD  00F1               	movwf	?i1___xxtofl+1
  9218  1DAE  3000               	movlw	0
  9219  1DAF  00F0               	movwf	?i1___xxtofl
  9220  1DB0  0008               	return
  9221  1DB1                     i1l4142:	
  9222  1DB1  3096               	movlw	150
  9223  1DB2  00F4               	movwf	??i1___xxtofl
  9224  1DB3  0874               	movf	??i1___xxtofl,w
  9225  1DB4  00F9               	movwf	i1___xxtofl@exp
  9226  1DB5                     i1l4146:	
  9227  1DB5  30FE               	movlw	254
  9228  1DB6  057D               	andwf	i1___xxtofl@arg+3,w
  9229  1DB7  1903               	btfsc	3,2
  9230  1DB8  2DD8               	goto	i1l801
  9231  1DB9  3001               	movlw	1
  9232  1DBA  00F4               	movwf	??i1___xxtofl
  9233  1DBB  0874               	movf	??i1___xxtofl,w
  9234  1DBC  07F9               	addwf	i1___xxtofl@exp,f
  9235  1DBD  3001               	movlw	1
  9236  1DBE                     u690_25:	
  9237  1DBE  36FD               	lsrf	i1___xxtofl@arg+3,f
  9238  1DBF  0CFC               	rrf	i1___xxtofl@arg+2,f
  9239  1DC0  0CFB               	rrf	i1___xxtofl@arg+1,f
  9240  1DC1  0CFA               	rrf	i1___xxtofl@arg,f
  9241  1DC2  0B89               	decfsz	9,f
  9242  1DC3  2DBE               	goto	u690_25
  9243  1DC4  2DB5               	goto	i1l4146
  9244  1DC5                     i1l4148:	
  9245  1DC5  3001               	movlw	1
  9246  1DC6  00F4               	movwf	??i1___xxtofl
  9247  1DC7  0874               	movf	??i1___xxtofl,w
  9248  1DC8  07F9               	addwf	i1___xxtofl@exp,f
  9249  1DC9  3001               	movlw	1
  9250  1DCA  07FA               	addwf	i1___xxtofl@arg,f
  9251  1DCB  3000               	movlw	0
  9252  1DCC  3DFB               	addwfc	i1___xxtofl@arg+1,f
  9253  1DCD  3000               	movlw	0
  9254  1DCE  3DFC               	addwfc	i1___xxtofl@arg+2,f
  9255  1DCF  3000               	movlw	0
  9256  1DD0  3DFD               	addwfc	i1___xxtofl@arg+3,f
  9257  1DD1  3001               	movlw	1
  9258  1DD2                     u692_25:	
  9259  1DD2  36FD               	lsrf	i1___xxtofl@arg+3,f
  9260  1DD3  0CFC               	rrf	i1___xxtofl@arg+2,f
  9261  1DD4  0CFB               	rrf	i1___xxtofl@arg+1,f
  9262  1DD5  0CFA               	rrf	i1___xxtofl@arg,f
  9263  1DD6  0B89               	decfsz	9,f
  9264  1DD7  2DD2               	goto	u692_25
  9265  1DD8                     i1l801:	
  9266  1DD8  30FF               	movlw	255
  9267  1DD9  057D               	andwf	i1___xxtofl@arg+3,w
  9268  1DDA  1903               	btfsc	3,2
  9269  1DDB  2DE6               	goto	i1l4156
  9270  1DDC  2DC5               	goto	i1l4148
  9271  1DDD                     i1l4154:	
  9272  1DDD  3001               	movlw	1
  9273  1DDE  02F9               	subwf	i1___xxtofl@exp,f
  9274  1DDF  3001               	movlw	1
  9275  1DE0                     u694_25:	
  9276  1DE0  35FA               	lslf	i1___xxtofl@arg,f
  9277  1DE1  0DFB               	rlf	i1___xxtofl@arg+1,f
  9278  1DE2  0DFC               	rlf	i1___xxtofl@arg+2,f
  9279  1DE3  0DFD               	rlf	i1___xxtofl@arg+3,f
  9280  1DE4  0B89               	decfsz	9,f
  9281  1DE5  2DE0               	goto	u694_25
  9282  1DE6                     i1l4156:	
  9283  1DE6  1BFC               	btfsc	i1___xxtofl@arg+2,7
  9284  1DE7  2DEC               	goto	i1l808
  9285  1DE8  3002               	movlw	2
  9286  1DE9  0279               	subwf	i1___xxtofl@exp,w
  9287  1DEA  1803               	skipnc
  9288  1DEB  2DDD               	goto	i1l4154
  9289  1DEC                     i1l808:	
  9290  1DEC  1879               	btfsc	i1___xxtofl@exp,0
  9291  1DED  2DF6               	goto	i1l809
  9292  1DEE  30FF               	movlw	255
  9293  1DEF  05FA               	andwf	i1___xxtofl@arg,f
  9294  1DF0  30FF               	movlw	255
  9295  1DF1  05FB               	andwf	i1___xxtofl@arg+1,f
  9296  1DF2  307F               	movlw	127
  9297  1DF3  05FC               	andwf	i1___xxtofl@arg+2,f
  9298  1DF4  30FF               	movlw	255
  9299  1DF5  05FD               	andwf	i1___xxtofl@arg+3,f
  9300  1DF6                     i1l809:	
  9301  1DF6  1003               	clrc
  9302  1DF7  0CF9               	rrf	i1___xxtofl@exp,f
  9303  1DF8  0879               	movf	i1___xxtofl@exp,w
  9304  1DF9  00F4               	movwf	??i1___xxtofl
  9305  1DFA  01F5               	clrf	??i1___xxtofl+1
  9306  1DFB  01F6               	clrf	??i1___xxtofl+2
  9307  1DFC  01F7               	clrf	??i1___xxtofl+3
  9308  1DFD  3018               	movlw	24
  9309  1DFE                     u698_25:	
  9310  1DFE  35F4               	lslf	??i1___xxtofl,f
  9311  1DFF  0DF5               	rlf	??i1___xxtofl+1,f
  9312  1E00  0DF6               	rlf	??i1___xxtofl+2,f
  9313  1E01  0DF7               	rlf	??i1___xxtofl+3,f
  9314  1E02  0B89               	decfsz	9,f
  9315  1E03  2DFE               	goto	u698_25
  9316  1E04  0874               	movf	??i1___xxtofl,w
  9317  1E05  04FA               	iorwf	i1___xxtofl@arg,f
  9318  1E06  0875               	movf	??i1___xxtofl+1,w
  9319  1E07  04FB               	iorwf	i1___xxtofl@arg+1,f
  9320  1E08  0876               	movf	??i1___xxtofl+2,w
  9321  1E09  04FC               	iorwf	i1___xxtofl@arg+2,f
  9322  1E0A  0877               	movf	??i1___xxtofl+3,w
  9323  1E0B  04FD               	iorwf	i1___xxtofl@arg+3,f
  9324  1E0C  0878               	movf	i1___xxtofl@sign,w
  9325  1E0D  1D03               	btfss	3,2
  9326  1E0E  1FF3               	btfss	i1___xxtofl@val+3,7
  9327  1E0F  2E11               	goto	i1l4170
  9328  1E10  17FD               	bsf	i1___xxtofl@arg+3,7
  9329  1E11                     i1l4170:	
  9330  1E11  087D               	movf	i1___xxtofl@arg+3,w
  9331  1E12  00F3               	movwf	?i1___xxtofl+3
  9332  1E13  087C               	movf	i1___xxtofl@arg+2,w
  9333  1E14  00F2               	movwf	?i1___xxtofl+2
  9334  1E15  087B               	movf	i1___xxtofl@arg+1,w
  9335  1E16  00F1               	movwf	?i1___xxtofl+1
  9336  1E17  087A               	movf	i1___xxtofl@arg,w
  9337  1E18  00F0               	movwf	?i1___xxtofl
  9338  1E19  0008               	return
  9339  1E1A                     __end_ofi1___xxtofl:	
  9340                           
  9341                           	psect	text24
  9342  114C                     __ptext24:	
  9343 ;; *************** function i1___fldiv *****************
  9344 ;; Defined at:
  9345 ;;		line 8 in file "/Applications/microchip/xc8/v1.37/sources/common/sprcdiv.c"
  9346 ;; Parameters:    Size  Location     Type
  9347 ;;  a               4    0[BANK0 ] unsigned char 
  9348 ;;  b               4    4[BANK0 ] unsigned char 
  9349 ;; Auto vars:     Size  Location     Type
  9350 ;;  __fldiv         4   20[BANK0 ] unsigned long 
  9351 ;;  __fldiv         4   14[BANK0 ] unsigned long 
  9352 ;;  __fldiv         2   18[BANK0 ] int 
  9353 ;;  __fldiv         1   25[BANK0 ] unsigned char 
  9354 ;;  __fldiv         1   24[BANK0 ] unsigned char 
  9355 ;;  __fldiv         1   13[BANK0 ] unsigned char 
  9356 ;; Return value:  Size  Location     Type
  9357 ;;                  4    0[BANK0 ] unsigned char 
  9358 ;; Registers used:
  9359 ;;		wreg, status,2, status,0
  9360 ;; Tracked objects:
  9361 ;;		On entry : 0/0
  9362 ;;		On exit  : 0/0
  9363 ;;		Unchanged: 0/0
  9364 ;; Data sizes:     COMMON   BANK0   BANK1   BANK2   BANK3   BANK4   BANK5   BANK6   BANK7   BANK8   BANK9  BANK10  BANK1
      +1  BANK12
  9365 ;;      Params:         0       8       0       0       0       0       0       0       0       0       0       0       
      +0       0
  9366 ;;      Locals:         0      13       0       0       0       0       0       0       0       0       0       0       
      +0       0
  9367 ;;      Temps:          0       5       0       0       0       0       0       0       0       0       0       0       
      +0       0
  9368 ;;      Totals:         0      26       0       0       0       0       0       0       0       0       0       0       
      +0       0
  9369 ;;Total ram usage:       26 bytes
  9370 ;; Hardware stack levels used:    1
  9371 ;; This function calls:
  9372 ;;		Nothing
  9373 ;; This function is called by:
  9374 ;;		_ISR
  9375 ;; This function uses a non-reentrant model
  9376 ;;
  9377                           
  9378                           
  9379                           ;psect for function i1___fldiv
  9380  114C                     i1___fldiv:	
  9381                           
  9382                           ;incstack = 0
  9383                           ; Regs used in i1___fldiv: [wreg+status,2+status,0]
  9384  114C  0020               	movlb	0	; select bank0
  9385  114D  0827               	movf	i1___fldiv@b+3,w
  9386  114E  3980               	andlw	128
  9387  114F  00A8               	movwf	??i1___fldiv
  9388  1150  0828               	movf	??i1___fldiv,w
  9389  1151  00AD               	movwf	i1___fldiv@sign
  9390  1152  3527               	lslf	i1___fldiv@b+3,w
  9391  1153  00A8               	movwf	??i1___fldiv
  9392  1154  0828               	movf	??i1___fldiv,w
  9393  1155  00B8               	movwf	i1___fldiv@bexp
  9394  1156  1BA6               	btfsc	i1___fldiv@b+2,7
  9395  1157  1438               	bsf	i1___fldiv@bexp,0
  9396  1158  0838               	movf	i1___fldiv@bexp,w
  9397  1159  1903               	btfsc	3,2
  9398  115A  2969               	goto	i1l4012
  9399  115B  0A38               	incf	i1___fldiv@bexp,w
  9400  115C  1D03               	btfss	3,2
  9401  115D  2966               	goto	i1l4008
  9402  115E  3000               	movlw	0
  9403  115F  00A7               	movwf	i1___fldiv@b+3
  9404  1160  3000               	movlw	0
  9405  1161  00A6               	movwf	i1___fldiv@b+2
  9406  1162  3000               	movlw	0
  9407  1163  00A5               	movwf	i1___fldiv@b+1
  9408  1164  3000               	movlw	0
  9409  1165  00A4               	movwf	i1___fldiv@b
  9410  1166                     i1l4008:	
  9411  1166  17A6               	bsf	i1___fldiv@b+2,7
  9412  1167  01A7               	clrf	i1___fldiv@b+3
  9413  1168  2971               	goto	i1l4014
  9414  1169                     i1l4012:	
  9415  1169  3000               	movlw	0
  9416  116A  00A7               	movwf	i1___fldiv@b+3
  9417  116B  3000               	movlw	0
  9418  116C  00A6               	movwf	i1___fldiv@b+2
  9419  116D  3000               	movlw	0
  9420  116E  00A5               	movwf	i1___fldiv@b+1
  9421  116F  3000               	movlw	0
  9422  1170  00A4               	movwf	i1___fldiv@b
  9423  1171                     i1l4014:	
  9424  1171  0823               	movf	i1___fldiv@a+3,w
  9425  1172  3980               	andlw	128
  9426  1173  00A8               	movwf	??i1___fldiv
  9427  1174  0828               	movf	??i1___fldiv,w
  9428  1175  06AD               	xorwf	i1___fldiv@sign,f
  9429  1176  3523               	lslf	i1___fldiv@a+3,w
  9430  1177  00A8               	movwf	??i1___fldiv
  9431  1178  0828               	movf	??i1___fldiv,w
  9432  1179  00B9               	movwf	i1___fldiv@aexp
  9433  117A  1BA2               	btfsc	i1___fldiv@a+2,7
  9434  117B  1439               	bsf	i1___fldiv@aexp,0
  9435  117C  0839               	movf	i1___fldiv@aexp,w
  9436  117D  1903               	btfsc	3,2
  9437  117E  298D               	goto	i1l4032
  9438  117F  0A39               	incf	i1___fldiv@aexp,w
  9439  1180  1D03               	btfss	3,2
  9440  1181  298A               	goto	i1l4028
  9441  1182  3000               	movlw	0
  9442  1183  00A3               	movwf	i1___fldiv@a+3
  9443  1184  3000               	movlw	0
  9444  1185  00A2               	movwf	i1___fldiv@a+2
  9445  1186  3000               	movlw	0
  9446  1187  00A1               	movwf	i1___fldiv@a+1
  9447  1188  3000               	movlw	0
  9448  1189  00A0               	movwf	i1___fldiv@a
  9449  118A                     i1l4028:	
  9450  118A  17A2               	bsf	i1___fldiv@a+2,7
  9451  118B  01A3               	clrf	i1___fldiv@a+3
  9452  118C  2995               	goto	i1l736
  9453  118D                     i1l4032:	
  9454  118D  3000               	movlw	0
  9455  118E  00A3               	movwf	i1___fldiv@a+3
  9456  118F  3000               	movlw	0
  9457  1190  00A2               	movwf	i1___fldiv@a+2
  9458  1191  3000               	movlw	0
  9459  1192  00A1               	movwf	i1___fldiv@a+1
  9460  1193  3000               	movlw	0
  9461  1194  00A0               	movwf	i1___fldiv@a
  9462  1195                     i1l736:	
  9463  1195  0823               	movf	i1___fldiv@a+3,w
  9464  1196  0422               	iorwf	i1___fldiv@a+2,w
  9465  1197  0421               	iorwf	i1___fldiv@a+1,w
  9466  1198  0420               	iorwf	i1___fldiv@a,w
  9467  1199  1D03               	skipz
  9468  119A  29B0               	goto	i1l4038
  9469  119B  3000               	movlw	0
  9470  119C  00A7               	movwf	i1___fldiv@b+3
  9471  119D  3000               	movlw	0
  9472  119E  00A6               	movwf	i1___fldiv@b+2
  9473  119F  3000               	movlw	0
  9474  11A0  00A5               	movwf	i1___fldiv@b+1
  9475  11A1  3000               	movlw	0
  9476  11A2  00A4               	movwf	i1___fldiv@b
  9477  11A3  3080               	movlw	128
  9478  11A4  04A6               	iorwf	i1___fldiv@b+2,f
  9479  11A5  307F               	movlw	127
  9480  11A6  04A7               	iorwf	i1___fldiv@b+3,f
  9481  11A7  0827               	movf	i1___fldiv@b+3,w
  9482  11A8  00A3               	movwf	?i1___fldiv+3
  9483  11A9  0826               	movf	i1___fldiv@b+2,w
  9484  11AA  00A2               	movwf	?i1___fldiv+2
  9485  11AB  0825               	movf	i1___fldiv@b+1,w
  9486  11AC  00A1               	movwf	?i1___fldiv+1
  9487  11AD  0824               	movf	i1___fldiv@b,w
  9488  11AE  00A0               	movwf	?i1___fldiv
  9489  11AF  0008               	return
  9490  11B0                     i1l4038:	
  9491  11B0  0838               	movf	i1___fldiv@bexp,w
  9492  11B1  1D03               	btfss	3,2
  9493  11B2  29C4               	goto	i1l4044
  9494  11B3  3000               	movlw	0
  9495  11B4  00A7               	movwf	i1___fldiv@b+3
  9496  11B5  3000               	movlw	0
  9497  11B6  00A6               	movwf	i1___fldiv@b+2
  9498  11B7  3000               	movlw	0
  9499  11B8  00A5               	movwf	i1___fldiv@b+1
  9500  11B9  3000               	movlw	0
  9501  11BA  00A4               	movwf	i1___fldiv@b
  9502  11BB  0827               	movf	i1___fldiv@b+3,w
  9503  11BC  00A3               	movwf	?i1___fldiv+3
  9504  11BD  0826               	movf	i1___fldiv@b+2,w
  9505  11BE  00A2               	movwf	?i1___fldiv+2
  9506  11BF  0825               	movf	i1___fldiv@b+1,w
  9507  11C0  00A1               	movwf	?i1___fldiv+1
  9508  11C1  0824               	movf	i1___fldiv@b,w
  9509  11C2  00A0               	movwf	?i1___fldiv
  9510  11C3  0008               	return
  9511  11C4                     i1l4044:	
  9512  11C4  0839               	movf	i1___fldiv@aexp,w
  9513  11C5  00A8               	movwf	??i1___fldiv
  9514  11C6  01A9               	clrf	??i1___fldiv+1
  9515  11C7  09A8               	comf	??i1___fldiv,f
  9516  11C8  09A9               	comf	??i1___fldiv+1,f
  9517  11C9  0AA8               	incf	??i1___fldiv,f
  9518  11CA  1903               	skipnz
  9519  11CB  0AA9               	incf	??i1___fldiv+1,f
  9520  11CC  0838               	movf	i1___fldiv@bexp,w
  9521  11CD  0728               	addwf	??i1___fldiv,w
  9522  11CE  00AA               	movwf	??i1___fldiv+2
  9523  11CF  0829               	movf	??i1___fldiv+1,w
  9524  11D0  1803               	skipnc
  9525  11D1  0A29               	incf	??i1___fldiv+1,w
  9526  11D2  00AB               	movwf	??i1___fldiv+3
  9527  11D3  082A               	movf	??i1___fldiv+2,w
  9528  11D4  3E7F               	addlw	127
  9529  11D5  00B2               	movwf	i1___fldiv@new_exp
  9530  11D6  3000               	movlw	0
  9531  11D7  3D2B               	addwfc	??i1___fldiv+3,w
  9532  11D8  00B3               	movwf	i1___fldiv@new_exp+1
  9533  11D9  0827               	movf	i1___fldiv@b+3,w
  9534  11DA  00B1               	movwf	i1___fldiv@rem+3
  9535  11DB  0826               	movf	i1___fldiv@b+2,w
  9536  11DC  00B0               	movwf	i1___fldiv@rem+2
  9537  11DD  0825               	movf	i1___fldiv@b+1,w
  9538  11DE  00AF               	movwf	i1___fldiv@rem+1
  9539  11DF  0824               	movf	i1___fldiv@b,w
  9540  11E0  00AE               	movwf	i1___fldiv@rem
  9541  11E1  3000               	movlw	0
  9542  11E2  00A7               	movwf	i1___fldiv@b+3
  9543  11E3  3000               	movlw	0
  9544  11E4  00A6               	movwf	i1___fldiv@b+2
  9545  11E5  3000               	movlw	0
  9546  11E6  00A5               	movwf	i1___fldiv@b+1
  9547  11E7  3000               	movlw	0
  9548  11E8  00A4               	movwf	i1___fldiv@b
  9549  11E9  3000               	movlw	0
  9550  11EA  00B7               	movwf	i1___fldiv@grs+3
  9551  11EB  3000               	movlw	0
  9552  11EC  00B6               	movwf	i1___fldiv@grs+2
  9553  11ED  3000               	movlw	0
  9554  11EE  00B5               	movwf	i1___fldiv@grs+1
  9555  11EF  3000               	movlw	0
  9556  11F0  00B4               	movwf	i1___fldiv@grs
  9557  11F1  01B9               	clrf	i1___fldiv@aexp
  9558  11F2                     i1l4072:	
  9559  11F2  301A               	movlw	26
  9560  11F3  0239               	subwf	i1___fldiv@aexp,w
  9561  11F4  1803               	btfsc	3,0
  9562  11F5  2A2E               	goto	i1l4074
  9563  11F6  0839               	movf	i1___fldiv@aexp,w
  9564  11F7  1903               	btfsc	3,2
  9565  11F8  2A10               	goto	i1l4064
  9566  11F9  3001               	movlw	1
  9567  11FA                     u667_25:	
  9568  11FA  35AE               	lslf	i1___fldiv@rem,f
  9569  11FB  0DAF               	rlf	i1___fldiv@rem+1,f
  9570  11FC  0DB0               	rlf	i1___fldiv@rem+2,f
  9571  11FD  0DB1               	rlf	i1___fldiv@rem+3,f
  9572  11FE  0B89               	decfsz	9,f
  9573  11FF  29FA               	goto	u667_25
  9574  1200  3001               	movlw	1
  9575  1201                     u668_25:	
  9576  1201  35A4               	lslf	i1___fldiv@b,f
  9577  1202  0DA5               	rlf	i1___fldiv@b+1,f
  9578  1203  0DA6               	rlf	i1___fldiv@b+2,f
  9579  1204  0DA7               	rlf	i1___fldiv@b+3,f
  9580  1205  0B89               	decfsz	9,f
  9581  1206  2A01               	goto	u668_25
  9582  1207  1BB7               	btfsc	i1___fldiv@grs+3,7
  9583  1208  1424               	bsf	i1___fldiv@b,0
  9584  1209  3001               	movlw	1
  9585  120A                     u670_25:	
  9586  120A  35B4               	lslf	i1___fldiv@grs,f
  9587  120B  0DB5               	rlf	i1___fldiv@grs+1,f
  9588  120C  0DB6               	rlf	i1___fldiv@grs+2,f
  9589  120D  0DB7               	rlf	i1___fldiv@grs+3,f
  9590  120E  0B89               	decfsz	9,f
  9591  120F  2A0A               	goto	u670_25
  9592  1210                     i1l4064:	
  9593  1210  0823               	movf	i1___fldiv@a+3,w
  9594  1211  0231               	subwf	i1___fldiv@rem+3,w
  9595  1212  1D03               	skipz
  9596  1213  2A1E               	goto	u671_25
  9597  1214  0822               	movf	i1___fldiv@a+2,w
  9598  1215  0230               	subwf	i1___fldiv@rem+2,w
  9599  1216  1D03               	skipz
  9600  1217  2A1E               	goto	u671_25
  9601  1218  0821               	movf	i1___fldiv@a+1,w
  9602  1219  022F               	subwf	i1___fldiv@rem+1,w
  9603  121A  1D03               	skipz
  9604  121B  2A1E               	goto	u671_25
  9605  121C  0820               	movf	i1___fldiv@a,w
  9606  121D  022E               	subwf	i1___fldiv@rem,w
  9607  121E                     u671_25:	
  9608  121E  1C03               	skipc
  9609  121F  2A29               	goto	i1l4070
  9610  1220  1737               	bsf	i1___fldiv@grs+3,6
  9611  1221  0820               	movf	i1___fldiv@a,w
  9612  1222  02AE               	subwf	i1___fldiv@rem,f
  9613  1223  0821               	movf	i1___fldiv@a+1,w
  9614  1224  3BAF               	subwfb	i1___fldiv@rem+1,f
  9615  1225  0822               	movf	i1___fldiv@a+2,w
  9616  1226  3BB0               	subwfb	i1___fldiv@rem+2,f
  9617  1227  0823               	movf	i1___fldiv@a+3,w
  9618  1228  3BB1               	subwfb	i1___fldiv@rem+3,f
  9619  1229                     i1l4070:	
  9620  1229  3001               	movlw	1
  9621  122A  00A8               	movwf	??i1___fldiv
  9622  122B  0828               	movf	??i1___fldiv,w
  9623  122C  07B9               	addwf	i1___fldiv@aexp,f
  9624  122D  29F2               	goto	i1l4072
  9625  122E                     i1l4074:	
  9626  122E  0831               	movf	i1___fldiv@rem+3,w
  9627  122F  0430               	iorwf	i1___fldiv@rem+2,w
  9628  1230  042F               	iorwf	i1___fldiv@rem+1,w
  9629  1231  042E               	iorwf	i1___fldiv@rem,w
  9630  1232  1D03               	btfss	3,2
  9631  1233  1434               	bsf	i1___fldiv@grs,0
  9632  1234                     i1l4088:	
  9633  1234  1BA6               	btfsc	i1___fldiv@b+2,7
  9634  1235  2A4B               	goto	i1l4090
  9635  1236  3001               	movlw	1
  9636  1237                     u674_25:	
  9637  1237  35A4               	lslf	i1___fldiv@b,f
  9638  1238  0DA5               	rlf	i1___fldiv@b+1,f
  9639  1239  0DA6               	rlf	i1___fldiv@b+2,f
  9640  123A  0DA7               	rlf	i1___fldiv@b+3,f
  9641  123B  0B89               	decfsz	9,f
  9642  123C  2A37               	goto	u674_25
  9643  123D  1BB7               	btfsc	i1___fldiv@grs+3,7
  9644  123E  1424               	bsf	i1___fldiv@b,0
  9645  123F  3001               	movlw	1
  9646  1240                     u676_25:	
  9647  1240  35B4               	lslf	i1___fldiv@grs,f
  9648  1241  0DB5               	rlf	i1___fldiv@grs+1,f
  9649  1242  0DB6               	rlf	i1___fldiv@grs+2,f
  9650  1243  0DB7               	rlf	i1___fldiv@grs+3,f
  9651  1244  0B89               	decfsz	9,f
  9652  1245  2A40               	goto	u676_25
  9653  1246  30FF               	movlw	255
  9654  1247  07B2               	addwf	i1___fldiv@new_exp,f
  9655  1248  30FF               	movlw	255
  9656  1249  3DB3               	addwfc	i1___fldiv@new_exp+1,f
  9657  124A  2A34               	goto	i1l4088
  9658  124B                     i1l4090:	
  9659  124B  01B9               	clrf	i1___fldiv@aexp
  9660  124C  1FB7               	btfss	i1___fldiv@grs+3,7
  9661  124D  2A64               	goto	i1l4100
  9662  124E  30FF               	movlw	255
  9663  124F  0534               	andwf	i1___fldiv@grs,w
  9664  1250  00A8               	movwf	??i1___fldiv
  9665  1251  30FF               	movlw	255
  9666  1252  0535               	andwf	i1___fldiv@grs+1,w
  9667  1253  00A9               	movwf	??i1___fldiv+1
  9668  1254  30FF               	movlw	255
  9669  1255  0536               	andwf	i1___fldiv@grs+2,w
  9670  1256  00AA               	movwf	??i1___fldiv+2
  9671  1257  307F               	movlw	127
  9672  1258  0537               	andwf	i1___fldiv@grs+3,w
  9673  1259  00AB               	movwf	??i1___fldiv+3
  9674  125A  082B               	movf	??i1___fldiv+3,w
  9675  125B  042A               	iorwf	??i1___fldiv+2,w
  9676  125C  0429               	iorwf	??i1___fldiv+1,w
  9677  125D  0428               	iorwf	??i1___fldiv,w
  9678  125E  1D03               	btfss	3,2
  9679  125F  2A62               	goto	i1l4098
  9680  1260  1C24               	btfss	i1___fldiv@b,0
  9681  1261  2A64               	goto	i1l4100
  9682  1262                     i1l4098:	
  9683  1262  01B9               	clrf	i1___fldiv@aexp
  9684  1263  0AB9               	incf	i1___fldiv@aexp,f
  9685  1264                     i1l4100:	
  9686  1264  0839               	movf	i1___fldiv@aexp,w
  9687  1265  1903               	btfsc	3,2
  9688  1266  2A8D               	goto	i1l4110
  9689  1267  3001               	movlw	1
  9690  1268  07A4               	addwf	i1___fldiv@b,f
  9691  1269  3000               	movlw	0
  9692  126A  3DA5               	addwfc	i1___fldiv@b+1,f
  9693  126B  3000               	movlw	0
  9694  126C  3DA6               	addwfc	i1___fldiv@b+2,f
  9695  126D  3000               	movlw	0
  9696  126E  3DA7               	addwfc	i1___fldiv@b+3,f
  9697  126F  1C27               	btfss	i1___fldiv@b+3,0
  9698  1270  2A8D               	goto	i1l4110
  9699  1271  0824               	movf	i1___fldiv@b,w
  9700  1272  00A8               	movwf	??i1___fldiv
  9701  1273  0825               	movf	i1___fldiv@b+1,w
  9702  1274  00A9               	movwf	??i1___fldiv+1
  9703  1275  0826               	movf	i1___fldiv@b+2,w
  9704  1276  00AA               	movwf	??i1___fldiv+2
  9705  1277  0827               	movf	i1___fldiv@b+3,w
  9706  1278  00AB               	movwf	??i1___fldiv+3
  9707  1279  3001               	movlw	1
  9708  127A  00AC               	movwf	??i1___fldiv+4
  9709  127B                     u683_25:	
  9710  127B  37AB               	asrf	??i1___fldiv+3,f
  9711  127C  0CAA               	rrf	??i1___fldiv+2,f
  9712  127D  0CA9               	rrf	??i1___fldiv+1,f
  9713  127E  0CA8               	rrf	??i1___fldiv,f
  9714  127F  0BAC               	decfsz	??i1___fldiv+4,f
  9715  1280  2A7B               	goto	u683_25
  9716  1281  082B               	movf	??i1___fldiv+3,w
  9717  1282  00A7               	movwf	i1___fldiv@b+3
  9718  1283  082A               	movf	??i1___fldiv+2,w
  9719  1284  00A6               	movwf	i1___fldiv@b+2
  9720  1285  0829               	movf	??i1___fldiv+1,w
  9721  1286  00A5               	movwf	i1___fldiv@b+1
  9722  1287  0828               	movf	??i1___fldiv,w
  9723  1288  00A4               	movwf	i1___fldiv@b
  9724  1289  3001               	movlw	1
  9725  128A  07B2               	addwf	i1___fldiv@new_exp,f
  9726  128B  3000               	movlw	0
  9727  128C  3DB3               	addwfc	i1___fldiv@new_exp+1,f
  9728  128D                     i1l4110:	
  9729  128D  0833               	movf	i1___fldiv@new_exp+1,w
  9730  128E  3A80               	xorlw	128
  9731  128F  00A8               	movwf	??i1___fldiv
  9732  1290  3080               	movlw	128
  9733  1291  0228               	subwf	??i1___fldiv,w
  9734  1292  1D03               	skipz
  9735  1293  2A96               	goto	u684_25
  9736  1294  30FF               	movlw	255
  9737  1295  0232               	subwf	i1___fldiv@new_exp,w
  9738  1296                     u684_25:	
  9739  1296  1C03               	skipc
  9740  1297  2AA5               	goto	i1l757
  9741  1298  30FF               	movlw	255
  9742  1299  0020               	movlb	0	; select bank0
  9743  129A  00B2               	movwf	i1___fldiv@new_exp
  9744  129B  3000               	movlw	0
  9745  129C  00B3               	movwf	i1___fldiv@new_exp+1
  9746  129D  3000               	movlw	0
  9747  129E  00A7               	movwf	i1___fldiv@b+3
  9748  129F  3000               	movlw	0
  9749  12A0  00A6               	movwf	i1___fldiv@b+2
  9750  12A1  3000               	movlw	0
  9751  12A2  00A5               	movwf	i1___fldiv@b+1
  9752  12A3  3000               	movlw	0
  9753  12A4  00A4               	movwf	i1___fldiv@b
  9754  12A5                     i1l757:	
  9755  12A5  0020               	movlb	0	; select bank0
  9756  12A6  0833               	movf	i1___fldiv@new_exp+1,w
  9757  12A7  3A80               	xorlw	128
  9758  12A8  00A8               	movwf	??i1___fldiv
  9759  12A9  3080               	movlw	128
  9760  12AA  0228               	subwf	??i1___fldiv,w
  9761  12AB  1D03               	skipz
  9762  12AC  2AAF               	goto	u685_25
  9763  12AD  3001               	movlw	1
  9764  12AE  0232               	subwf	i1___fldiv@new_exp,w
  9765  12AF                     u685_25:	
  9766  12AF  1803               	skipnc
  9767  12B0  2ABD               	goto	i1l758
  9768  12B1  0020               	movlb	0	; select bank0
  9769  12B2  01B2               	clrf	i1___fldiv@new_exp
  9770  12B3  01B3               	clrf	i1___fldiv@new_exp+1
  9771  12B4  3000               	movlw	0
  9772  12B5  00A7               	movwf	i1___fldiv@b+3
  9773  12B6  3000               	movlw	0
  9774  12B7  00A6               	movwf	i1___fldiv@b+2
  9775  12B8  3000               	movlw	0
  9776  12B9  00A5               	movwf	i1___fldiv@b+1
  9777  12BA  3000               	movlw	0
  9778  12BB  00A4               	movwf	i1___fldiv@b
  9779  12BC  01AD               	clrf	i1___fldiv@sign
  9780  12BD                     i1l758:	
  9781  12BD  0020               	movlb	0	; select bank0
  9782  12BE  0832               	movf	i1___fldiv@new_exp,w
  9783  12BF  00A8               	movwf	??i1___fldiv
  9784  12C0  0828               	movf	??i1___fldiv,w
  9785  12C1  00B8               	movwf	i1___fldiv@bexp
  9786  12C2  1C38               	btfss	i1___fldiv@bexp,0
  9787  12C3  2AC6               	goto	i1l4124
  9788  12C4  17A6               	bsf	i1___fldiv@b+2,7
  9789  12C5  2ACA               	goto	i1l760
  9790  12C6                     i1l4124:	
  9791  12C6  307F               	movlw	127
  9792  12C7  00A8               	movwf	??i1___fldiv
  9793  12C8  0828               	movf	??i1___fldiv,w
  9794  12C9  05A6               	andwf	i1___fldiv@b+2,f
  9795  12CA                     i1l760:	
  9796  12CA  3638               	lsrf	i1___fldiv@bexp,w
  9797  12CB  00A8               	movwf	??i1___fldiv
  9798  12CC  0828               	movf	??i1___fldiv,w
  9799  12CD  00A7               	movwf	i1___fldiv@b+3
  9800  12CE  082D               	movf	i1___fldiv@sign,w
  9801  12CF  00A8               	movwf	??i1___fldiv
  9802  12D0  0828               	movf	??i1___fldiv,w
  9803  12D1  04A7               	iorwf	i1___fldiv@b+3,f
  9804  12D2  0827               	movf	i1___fldiv@b+3,w
  9805  12D3  00A3               	movwf	?i1___fldiv+3
  9806  12D4  0826               	movf	i1___fldiv@b+2,w
  9807  12D5  00A2               	movwf	?i1___fldiv+2
  9808  12D6  0825               	movf	i1___fldiv@b+1,w
  9809  12D7  00A1               	movwf	?i1___fldiv+1
  9810  12D8  0824               	movf	i1___fldiv@b,w
  9811  12D9  00A0               	movwf	?i1___fldiv
  9812  12DA  0008               	return
  9813  12DB                     __end_ofi1___fldiv:	
  9814                           
  9815                           	psect	text25
  9816  1604                     __ptext25:	
  9817 ;; *************** function i1___fladd *****************
  9818 ;; Defined at:
  9819 ;;		line 10 in file "/Applications/microchip/xc8/v1.37/sources/common/sprcadd.c"
  9820 ;; Parameters:    Size  Location     Type
  9821 ;;  b               4   26[BANK0 ] unsigned char 
  9822 ;;  a               4   30[BANK0 ] unsigned char 
  9823 ;; Auto vars:     Size  Location     Type
  9824 ;;  __fladd         1   49[BANK0 ] unsigned char 
  9825 ;;  __fladd         1   48[BANK0 ] unsigned char 
  9826 ;;  __fladd         1   47[BANK0 ] unsigned char 
  9827 ;;  __fladd         1   46[BANK0 ] unsigned char 
  9828 ;; Return value:  Size  Location     Type
  9829 ;;                  4   26[BANK0 ] unsigned char 
  9830 ;; Registers used:
  9831 ;;		wreg, status,2, status,0
  9832 ;; Tracked objects:
  9833 ;;		On entry : 0/0
  9834 ;;		On exit  : 0/0
  9835 ;;		Unchanged: 0/0
  9836 ;; Data sizes:     COMMON   BANK0   BANK1   BANK2   BANK3   BANK4   BANK5   BANK6   BANK7   BANK8   BANK9  BANK10  BANK1
      +1  BANK12
  9837 ;;      Params:         0       8       0       0       0       0       0       0       0       0       0       0       
      +0       0
  9838 ;;      Locals:         0       4       0       0       0       0       0       0       0       0       0       0       
      +0       0
  9839 ;;      Temps:          0      12       0       0       0       0       0       0       0       0       0       0       
      +0       0
  9840 ;;      Totals:         0      24       0       0       0       0       0       0       0       0       0       0       
      +0       0
  9841 ;;Total ram usage:       24 bytes
  9842 ;; Hardware stack levels used:    1
  9843 ;; This function calls:
  9844 ;;		Nothing
  9845 ;; This function is called by:
  9846 ;;		_ISR
  9847 ;; This function uses a non-reentrant model
  9848 ;;
  9849                           
  9850                           
  9851                           ;psect for function i1___fladd
  9852  1604                     i1___fladd:	
  9853                           
  9854                           ;incstack = 0
  9855                           ; Regs used in i1___fladd: [wreg+status,2+status,0]
  9856  1604  0020               	movlb	0	; select bank0
  9857  1605  083D               	movf	i1___fladd@b+3,w
  9858  1606  3980               	andlw	128
  9859  1607  00C2               	movwf	??i1___fladd
  9860  1608  0842               	movf	??i1___fladd,w
  9861  1609  00CE               	movwf	i1___fladd@signs
  9862  160A  353D               	lslf	i1___fladd@b+3,w
  9863  160B  00C2               	movwf	??i1___fladd
  9864  160C  0842               	movf	??i1___fladd,w
  9865  160D  00D0               	movwf	i1___fladd@bexp
  9866  160E  1BBC               	btfsc	i1___fladd@b+2,7
  9867  160F  1450               	bsf	i1___fladd@bexp,0
  9868  1610  0850               	movf	i1___fladd@bexp,w
  9869  1611  1903               	btfsc	3,2
  9870  1612  2E21               	goto	i1l3818
  9871  1613  0A50               	incf	i1___fladd@bexp,w
  9872  1614  1D03               	btfss	3,2
  9873  1615  2E1E               	goto	i1l3814
  9874  1616  3000               	movlw	0
  9875  1617  00BD               	movwf	i1___fladd@b+3
  9876  1618  3000               	movlw	0
  9877  1619  00BC               	movwf	i1___fladd@b+2
  9878  161A  3000               	movlw	0
  9879  161B  00BB               	movwf	i1___fladd@b+1
  9880  161C  3000               	movlw	0
  9881  161D  00BA               	movwf	i1___fladd@b
  9882  161E                     i1l3814:	
  9883  161E  17BC               	bsf	i1___fladd@b+2,7
  9884  161F  01BD               	clrf	i1___fladd@b+3
  9885  1620  2E29               	goto	i1l3820
  9886  1621                     i1l3818:	
  9887  1621  3000               	movlw	0
  9888  1622  00BD               	movwf	i1___fladd@b+3
  9889  1623  3000               	movlw	0
  9890  1624  00BC               	movwf	i1___fladd@b+2
  9891  1625  3000               	movlw	0
  9892  1626  00BB               	movwf	i1___fladd@b+1
  9893  1627  3000               	movlw	0
  9894  1628  00BA               	movwf	i1___fladd@b
  9895  1629                     i1l3820:	
  9896  1629  0841               	movf	i1___fladd@a+3,w
  9897  162A  3980               	andlw	128
  9898  162B  00C2               	movwf	??i1___fladd
  9899  162C  0842               	movf	??i1___fladd,w
  9900  162D  00CF               	movwf	i1___fladd@aexp
  9901  162E  084F               	movf	i1___fladd@aexp,w
  9902  162F  064E               	xorwf	i1___fladd@signs,w
  9903  1630  1D03               	btfss	3,2
  9904  1631  174E               	bsf	i1___fladd@signs,6
  9905  1632  3541               	lslf	i1___fladd@a+3,w
  9906  1633  00C2               	movwf	??i1___fladd
  9907  1634  0842               	movf	??i1___fladd,w
  9908  1635  00CF               	movwf	i1___fladd@aexp
  9909  1636  1BC0               	btfsc	i1___fladd@a+2,7
  9910  1637  144F               	bsf	i1___fladd@aexp,0
  9911  1638  084F               	movf	i1___fladd@aexp,w
  9912  1639  1903               	btfsc	3,2
  9913  163A  2E49               	goto	i1l3842
  9914  163B  0A4F               	incf	i1___fladd@aexp,w
  9915  163C  1D03               	btfss	3,2
  9916  163D  2E46               	goto	i1l3838
  9917  163E  3000               	movlw	0
  9918  163F  00C1               	movwf	i1___fladd@a+3
  9919  1640  3000               	movlw	0
  9920  1641  00C0               	movwf	i1___fladd@a+2
  9921  1642  3000               	movlw	0
  9922  1643  00BF               	movwf	i1___fladd@a+1
  9923  1644  3000               	movlw	0
  9924  1645  00BE               	movwf	i1___fladd@a
  9925  1646                     i1l3838:	
  9926  1646  17C0               	bsf	i1___fladd@a+2,7
  9927  1647  01C1               	clrf	i1___fladd@a+3
  9928  1648  2E51               	goto	i1l680
  9929  1649                     i1l3842:	
  9930  1649  3000               	movlw	0
  9931  164A  00C1               	movwf	i1___fladd@a+3
  9932  164B  3000               	movlw	0
  9933  164C  00C0               	movwf	i1___fladd@a+2
  9934  164D  3000               	movlw	0
  9935  164E  00BF               	movwf	i1___fladd@a+1
  9936  164F  3000               	movlw	0
  9937  1650  00BE               	movwf	i1___fladd@a
  9938  1651                     i1l680:	
  9939  1651  0850               	movf	i1___fladd@bexp,w
  9940  1652  024F               	subwf	i1___fladd@aexp,w
  9941  1653  1803               	skipnc
  9942  1654  2E97               	goto	i1l3878
  9943  1655  1F4E               	btfss	i1___fladd@signs,6
  9944  1656  2E5B               	goto	i1l3848
  9945  1657  3080               	movlw	128
  9946  1658  00C2               	movwf	??i1___fladd
  9947  1659  0842               	movf	??i1___fladd,w
  9948  165A  06CE               	xorwf	i1___fladd@signs,f
  9949  165B                     i1l3848:	
  9950  165B  0850               	movf	i1___fladd@bexp,w
  9951  165C  00C2               	movwf	??i1___fladd
  9952  165D  0842               	movf	??i1___fladd,w
  9953  165E  00D1               	movwf	i1___fladd@grs
  9954  165F  084F               	movf	i1___fladd@aexp,w
  9955  1660  00C2               	movwf	??i1___fladd
  9956  1661  0842               	movf	??i1___fladd,w
  9957  1662  00D0               	movwf	i1___fladd@bexp
  9958  1663  0851               	movf	i1___fladd@grs,w
  9959  1664  00C2               	movwf	??i1___fladd
  9960  1665  0842               	movf	??i1___fladd,w
  9961  1666  00CF               	movwf	i1___fladd@aexp
  9962  1667  083A               	movf	i1___fladd@b,w
  9963  1668  00C2               	movwf	??i1___fladd
  9964  1669  0842               	movf	??i1___fladd,w
  9965  166A  00D1               	movwf	i1___fladd@grs
  9966  166B  083E               	movf	i1___fladd@a,w
  9967  166C  00C2               	movwf	??i1___fladd
  9968  166D  0842               	movf	??i1___fladd,w
  9969  166E  00BA               	movwf	i1___fladd@b
  9970  166F  0851               	movf	i1___fladd@grs,w
  9971  1670  00C2               	movwf	??i1___fladd
  9972  1671  0842               	movf	??i1___fladd,w
  9973  1672  00BE               	movwf	i1___fladd@a
  9974  1673  083B               	movf	i1___fladd@b+1,w
  9975  1674  00C2               	movwf	??i1___fladd
  9976  1675  0842               	movf	??i1___fladd,w
  9977  1676  00D1               	movwf	i1___fladd@grs
  9978  1677  083F               	movf	i1___fladd@a+1,w
  9979  1678  00C2               	movwf	??i1___fladd
  9980  1679  0842               	movf	??i1___fladd,w
  9981  167A  00BB               	movwf	i1___fladd@b+1
  9982  167B  0851               	movf	i1___fladd@grs,w
  9983  167C  00C2               	movwf	??i1___fladd
  9984  167D  0842               	movf	??i1___fladd,w
  9985  167E  00BF               	movwf	i1___fladd@a+1
  9986  167F  083C               	movf	i1___fladd@b+2,w
  9987  1680  00C2               	movwf	??i1___fladd
  9988  1681  0842               	movf	??i1___fladd,w
  9989  1682  00D1               	movwf	i1___fladd@grs
  9990  1683  0840               	movf	i1___fladd@a+2,w
  9991  1684  00C2               	movwf	??i1___fladd
  9992  1685  0842               	movf	??i1___fladd,w
  9993  1686  00BC               	movwf	i1___fladd@b+2
  9994  1687  0851               	movf	i1___fladd@grs,w
  9995  1688  00C2               	movwf	??i1___fladd
  9996  1689  0842               	movf	??i1___fladd,w
  9997  168A  00C0               	movwf	i1___fladd@a+2
  9998  168B  083D               	movf	i1___fladd@b+3,w
  9999  168C  00C2               	movwf	??i1___fladd
 10000  168D  0842               	movf	??i1___fladd,w
 10001  168E  00D1               	movwf	i1___fladd@grs
 10002  168F  0841               	movf	i1___fladd@a+3,w
 10003  1690  00C2               	movwf	??i1___fladd
 10004  1691  0842               	movf	??i1___fladd,w
 10005  1692  00BD               	movwf	i1___fladd@b+3
 10006  1693  0851               	movf	i1___fladd@grs,w
 10007  1694  00C2               	movwf	??i1___fladd
 10008  1695  0842               	movf	??i1___fladd,w
 10009  1696  00C1               	movwf	i1___fladd@a+3
 10010  1697                     i1l3878:	
 10011  1697  01D1               	clrf	i1___fladd@grs
 10012  1698  0850               	movf	i1___fladd@bexp,w
 10013  1699  00C2               	movwf	??i1___fladd
 10014  169A  01C3               	clrf	??i1___fladd+1
 10015  169B  09C2               	comf	??i1___fladd,f
 10016  169C  09C3               	comf	??i1___fladd+1,f
 10017  169D  0AC2               	incf	??i1___fladd,f
 10018  169E  1903               	skipnz
 10019  169F  0AC3               	incf	??i1___fladd+1,f
 10020  16A0  084F               	movf	i1___fladd@aexp,w
 10021  16A1  0742               	addwf	??i1___fladd,w
 10022  16A2  00C4               	movwf	??i1___fladd+2
 10023  16A3  0843               	movf	??i1___fladd+1,w
 10024  16A4  1803               	skipnc
 10025  16A5  0A43               	incf	??i1___fladd+1,w
 10026  16A6  00C5               	movwf	??i1___fladd+3
 10027  16A7  0845               	movf	??i1___fladd+3,w
 10028  16A8  3A80               	xorlw	128
 10029  16A9  00C6               	movwf	??i1___fladd+4
 10030  16AA  3080               	movlw	128
 10031  16AB  0246               	subwf	??i1___fladd+4,w
 10032  16AC  1D03               	skipz
 10033  16AD  2EB0               	goto	u624_25
 10034  16AE  301A               	movlw	26
 10035  16AF  0244               	subwf	??i1___fladd+2,w
 10036  16B0                     u624_25:	
 10037  16B0  1C03               	skipc
 10038  16B1  2EE4               	goto	i1l3896
 10039  16B2  0020               	movlb	0	; select bank0
 10040  16B3  083D               	movf	i1___fladd@b+3,w
 10041  16B4  043C               	iorwf	i1___fladd@b+2,w
 10042  16B5  043B               	iorwf	i1___fladd@b+1,w
 10043  16B6  043A               	iorwf	i1___fladd@b,w
 10044  16B7  1903               	btfsc	3,2
 10045  16B8  2EBB               	goto	u625_20
 10046  16B9  3001               	movlw	1
 10047  16BA  2EBC               	goto	u626_20
 10048  16BB                     u625_20:	
 10049  16BB  3000               	movlw	0
 10050  16BC                     u626_20:	
 10051  16BC  00C2               	movwf	??i1___fladd
 10052  16BD  0842               	movf	??i1___fladd,w
 10053  16BE  00D1               	movwf	i1___fladd@grs
 10054  16BF  3000               	movlw	0
 10055  16C0  00BD               	movwf	i1___fladd@b+3
 10056  16C1  3000               	movlw	0
 10057  16C2  00BC               	movwf	i1___fladd@b+2
 10058  16C3  3000               	movlw	0
 10059  16C4  00BB               	movwf	i1___fladd@b+1
 10060  16C5  3000               	movlw	0
 10061  16C6  00BA               	movwf	i1___fladd@b
 10062  16C7  084F               	movf	i1___fladd@aexp,w
 10063  16C8  00C2               	movwf	??i1___fladd
 10064  16C9  0842               	movf	??i1___fladd,w
 10065  16CA  00D0               	movwf	i1___fladd@bexp
 10066  16CB  2EE9               	goto	i1l684
 10067  16CC                     i1l686:	
 10068  16CC  1C51               	btfss	i1___fladd@grs,0
 10069  16CD  2ED4               	goto	i1l3886
 10070  16CE  3651               	lsrf	i1___fladd@grs,w
 10071  16CF  3801               	iorlw	1
 10072  16D0  00C2               	movwf	??i1___fladd
 10073  16D1  0842               	movf	??i1___fladd,w
 10074  16D2  00D1               	movwf	i1___fladd@grs
 10075  16D3  2ED6               	goto	i1l3888
 10076  16D4                     i1l3886:	
 10077  16D4  1003               	clrc
 10078  16D5  0CD1               	rrf	i1___fladd@grs,f
 10079  16D6                     i1l3888:	
 10080  16D6  183A               	btfsc	i1___fladd@b,0
 10081  16D7  17D1               	bsf	i1___fladd@grs,7
 10082  16D8  3001               	movlw	1
 10083  16D9  00C2               	movwf	??i1___fladd
 10084  16DA                     u629_25:	
 10085  16DA  37BD               	asrf	i1___fladd@b+3,f
 10086  16DB  0CBC               	rrf	i1___fladd@b+2,f
 10087  16DC  0CBB               	rrf	i1___fladd@b+1,f
 10088  16DD  0CBA               	rrf	i1___fladd@b,f
 10089  16DE  0BC2               	decfsz	??i1___fladd& (0+127),f
 10090  16DF  2EDA               	goto	u629_25
 10091  16E0  3001               	movlw	1
 10092  16E1  00C2               	movwf	??i1___fladd
 10093  16E2  0842               	movf	??i1___fladd,w
 10094  16E3  07D0               	addwf	i1___fladd@bexp,f
 10095  16E4                     i1l3896:	
 10096  16E4  0020               	movlb	0	; select bank0
 10097  16E5  084F               	movf	i1___fladd@aexp,w
 10098  16E6  0250               	subwf	i1___fladd@bexp,w
 10099  16E7  1C03               	skipc
 10100  16E8  2ECC               	goto	i1l686
 10101  16E9                     i1l684:	
 10102  16E9  1B4E               	btfsc	i1___fladd@signs,6
 10103  16EA  2F1C               	goto	i1l3922
 10104  16EB  0850               	movf	i1___fladd@bexp,w
 10105  16EC  1D03               	btfss	3,2
 10106  16ED  2EF7               	goto	i1l3904
 10107  16EE  3000               	movlw	0
 10108  16EF  00BD               	movwf	?i1___fladd+3
 10109  16F0  3000               	movlw	0
 10110  16F1  00BC               	movwf	?i1___fladd+2
 10111  16F2  3000               	movlw	0
 10112  16F3  00BB               	movwf	?i1___fladd+1
 10113  16F4  3000               	movlw	0
 10114  16F5  00BA               	movwf	?i1___fladd
 10115  16F6  0008               	return
 10116  16F7                     i1l3904:	
 10117  16F7  083E               	movf	i1___fladd@a,w
 10118  16F8  07BA               	addwf	i1___fladd@b,f
 10119  16F9  083F               	movf	i1___fladd@a+1,w
 10120  16FA  3DBB               	addwfc	i1___fladd@b+1,f
 10121  16FB  0840               	movf	i1___fladd@a+2,w
 10122  16FC  3DBC               	addwfc	i1___fladd@b+2,f
 10123  16FD  0841               	movf	i1___fladd@a+3,w
 10124  16FE  3DBD               	addwfc	i1___fladd@b+3,f
 10125  16FF  1C3D               	btfss	i1___fladd@b+3,0
 10126  1700  2FA9               	goto	i1l3956
 10127  1701  1C51               	btfss	i1___fladd@grs,0
 10128  1702  2F0B               	goto	i1l3912
 10129  1703  1003               	clrc
 10130  1704  0CD1               	rrf	i1___fladd@grs,f
 10131  1705  0851               	movf	i1___fladd@grs,w
 10132  1706  3801               	iorlw	1
 10133  1707  00C2               	movwf	??i1___fladd
 10134  1708  0842               	movf	??i1___fladd,w
 10135  1709  00D1               	movwf	i1___fladd@grs
 10136  170A  2F0D               	goto	i1l3914
 10137  170B                     i1l3912:	
 10138  170B  1003               	clrc
 10139  170C  0CD1               	rrf	i1___fladd@grs,f
 10140  170D                     i1l3914:	
 10141  170D  183A               	btfsc	i1___fladd@b,0
 10142  170E  17D1               	bsf	i1___fladd@grs,7
 10143  170F  3001               	movlw	1
 10144  1710  00C2               	movwf	??i1___fladd
 10145  1711                     u636_25:	
 10146  1711  37BD               	asrf	i1___fladd@b+3,f
 10147  1712  0CBC               	rrf	i1___fladd@b+2,f
 10148  1713  0CBB               	rrf	i1___fladd@b+1,f
 10149  1714  0CBA               	rrf	i1___fladd@b,f
 10150  1715  0BC2               	decfsz	??i1___fladd& (0+127),f
 10151  1716  2F11               	goto	u636_25
 10152  1717  3001               	movlw	1
 10153  1718  00C2               	movwf	??i1___fladd
 10154  1719  0842               	movf	??i1___fladd,w
 10155  171A  07D0               	addwf	i1___fladd@bexp,f
 10156  171B  2FA9               	goto	i1l3956
 10157  171C                     i1l3922:	
 10158  171C  083D               	movf	i1___fladd@b+3,w
 10159  171D  3A80               	xorlw	128
 10160  171E  00C2               	movwf	??i1___fladd
 10161  171F  0841               	movf	i1___fladd@a+3,w
 10162  1720  3A80               	xorlw	128
 10163  1721  0242               	subwf	??i1___fladd,w
 10164  1722  1D03               	skipz
 10165  1723  2F2E               	goto	u637_23
 10166  1724  0840               	movf	i1___fladd@a+2,w
 10167  1725  023C               	subwf	i1___fladd@b+2,w
 10168  1726  1D03               	skipz
 10169  1727  2F2E               	goto	u637_23
 10170  1728  083F               	movf	i1___fladd@a+1,w
 10171  1729  023B               	subwf	i1___fladd@b+1,w
 10172  172A  1D03               	skipz
 10173  172B  2F2E               	goto	u637_23
 10174  172C  083E               	movf	i1___fladd@a,w
 10175  172D  023A               	subwf	i1___fladd@b,w
 10176  172E                     u637_23:	
 10177  172E  1803               	skipnc
 10178  172F  2F79               	goto	i1l3932
 10179  1730  30FF               	movlw	255
 10180  1731  00C2               	movwf	??i1___fladd
 10181  1732  30FF               	movlw	255
 10182  1733  00C3               	movwf	??i1___fladd+1
 10183  1734  30FF               	movlw	255
 10184  1735  00C4               	movwf	??i1___fladd+2
 10185  1736  30FF               	movlw	255
 10186  1737  00C5               	movwf	??i1___fladd+3
 10187  1738  083E               	movf	i1___fladd@a,w
 10188  1739  00C6               	movwf	??i1___fladd+4
 10189  173A  083F               	movf	i1___fladd@a+1,w
 10190  173B  00C7               	movwf	??i1___fladd+5
 10191  173C  0840               	movf	i1___fladd@a+2,w
 10192  173D  00C8               	movwf	??i1___fladd+6
 10193  173E  0841               	movf	i1___fladd@a+3,w
 10194  173F  00C9               	movwf	??i1___fladd+7
 10195  1740  093A               	comf	i1___fladd@b,w
 10196  1741  00CA               	movwf	??i1___fladd+8
 10197  1742  093B               	comf	i1___fladd@b+1,w
 10198  1743  00CB               	movwf	??i1___fladd+9
 10199  1744  093C               	comf	i1___fladd@b+2,w
 10200  1745  00CC               	movwf	??i1___fladd+10
 10201  1746  093D               	comf	i1___fladd@b+3,w
 10202  1747  00CD               	movwf	??i1___fladd+11
 10203  1748  0ACA               	incf	??i1___fladd+8,f
 10204  1749  1903               	skipnz
 10205  174A  0ACB               	incf	??i1___fladd+9,f
 10206  174B  1903               	skipnz
 10207  174C  0ACC               	incf	??i1___fladd+10,f
 10208  174D  1903               	skipnz
 10209  174E  0ACD               	incf	??i1___fladd+11,f
 10210  174F  084A               	movf	??i1___fladd+8,w
 10211  1750  07C6               	addwf	??i1___fladd+4,f
 10212  1751  084B               	movf	??i1___fladd+9,w
 10213  1752  3DC7               	addwfc	??i1___fladd+5,f
 10214  1753  084C               	movf	??i1___fladd+10,w
 10215  1754  3DC8               	addwfc	??i1___fladd+6,f
 10216  1755  084D               	movf	??i1___fladd+11,w
 10217  1756  3DC9               	addwfc	??i1___fladd+7,f
 10218  1757  0846               	movf	??i1___fladd+4,w
 10219  1758  07C2               	addwf	??i1___fladd,f
 10220  1759  0847               	movf	??i1___fladd+5,w
 10221  175A  3DC3               	addwfc	??i1___fladd+1,f
 10222  175B  0848               	movf	??i1___fladd+6,w
 10223  175C  3DC4               	addwfc	??i1___fladd+2,f
 10224  175D  0849               	movf	??i1___fladd+7,w
 10225  175E  3DC5               	addwfc	??i1___fladd+3,f
 10226  175F  0845               	movf	??i1___fladd+3,w
 10227  1760  00BD               	movwf	i1___fladd@b+3
 10228  1761  0844               	movf	??i1___fladd+2,w
 10229  1762  00BC               	movwf	i1___fladd@b+2
 10230  1763  0843               	movf	??i1___fladd+1,w
 10231  1764  00BB               	movwf	i1___fladd@b+1
 10232  1765  0842               	movf	??i1___fladd,w
 10233  1766  00BA               	movwf	i1___fladd@b
 10234  1767  3080               	movlw	128
 10235  1768  00C2               	movwf	??i1___fladd
 10236  1769  0842               	movf	??i1___fladd,w
 10237  176A  06CE               	xorwf	i1___fladd@signs,f
 10238  176B  09D1               	comf	i1___fladd@grs,f
 10239  176C  0AD1               	incf	i1___fladd@grs,f
 10240  176D  0851               	movf	i1___fladd@grs,w
 10241  176E  1D03               	btfss	3,2
 10242  176F  2F81               	goto	i1l701
 10243  1770  3001               	movlw	1
 10244  1771  07BA               	addwf	i1___fladd@b,f
 10245  1772  3000               	movlw	0
 10246  1773  3DBB               	addwfc	i1___fladd@b+1,f
 10247  1774  3000               	movlw	0
 10248  1775  3DBC               	addwfc	i1___fladd@b+2,f
 10249  1776  3000               	movlw	0
 10250  1777  3DBD               	addwfc	i1___fladd@b+3,f
 10251  1778  2F81               	goto	i1l701
 10252  1779                     i1l3932:	
 10253  1779  083E               	movf	i1___fladd@a,w
 10254  177A  02BA               	subwf	i1___fladd@b,f
 10255  177B  083F               	movf	i1___fladd@a+1,w
 10256  177C  3BBB               	subwfb	i1___fladd@b+1,f
 10257  177D  0840               	movf	i1___fladd@a+2,w
 10258  177E  3BBC               	subwfb	i1___fladd@b+2,f
 10259  177F  0841               	movf	i1___fladd@a+3,w
 10260  1780  3BBD               	subwfb	i1___fladd@b+3,f
 10261  1781                     i1l701:	
 10262  1781  083D               	movf	i1___fladd@b+3,w
 10263  1782  043C               	iorwf	i1___fladd@b+2,w
 10264  1783  043B               	iorwf	i1___fladd@b+1,w
 10265  1784  043A               	iorwf	i1___fladd@b,w
 10266  1785  1D03               	skipz
 10267  1786  2FA7               	goto	i1l3954
 10268  1787  0851               	movf	i1___fladd@grs,w
 10269  1788  1D03               	btfss	3,2
 10270  1789  2FA7               	goto	i1l3954
 10271  178A  3000               	movlw	0
 10272  178B  00BD               	movwf	?i1___fladd+3
 10273  178C  3000               	movlw	0
 10274  178D  00BC               	movwf	?i1___fladd+2
 10275  178E  3000               	movlw	0
 10276  178F  00BB               	movwf	?i1___fladd+1
 10277  1790  3000               	movlw	0
 10278  1791  00BA               	movwf	?i1___fladd
 10279  1792  0008               	return
 10280  1793                     i1l3940:	
 10281  1793  3001               	movlw	1
 10282  1794                     u641_25:	
 10283  1794  35BA               	lslf	i1___fladd@b,f
 10284  1795  0DBB               	rlf	i1___fladd@b+1,f
 10285  1796  0DBC               	rlf	i1___fladd@b+2,f
 10286  1797  0DBD               	rlf	i1___fladd@b+3,f
 10287  1798  0B89               	decfsz	9,f
 10288  1799  2F94               	goto	u641_25
 10289  179A  1BD1               	btfsc	i1___fladd@grs,7
 10290  179B  143A               	bsf	i1___fladd@b,0
 10291  179C  1C51               	btfss	i1___fladd@grs,0
 10292  179D  2FA0               	goto	i1l3948
 10293  179E  1403               	setc
 10294  179F  2FA1               	goto	L13
 10295  17A0                     i1l3948:	
 10296  17A0  1003               	clrc
 10297  17A1                     L13:	
 10298  17A1  0DD1               	rlf	i1___fladd@grs,f
 10299  17A2  0850               	movf	i1___fladd@bexp,w
 10300  17A3  1903               	btfsc	3,2
 10301  17A4  2FA7               	goto	i1l3954
 10302  17A5  3001               	movlw	1
 10303  17A6  02D0               	subwf	i1___fladd@bexp,f
 10304  17A7                     i1l3954:	
 10305  17A7  1FBC               	btfss	i1___fladd@b+2,7
 10306  17A8  2F93               	goto	i1l3940
 10307  17A9                     i1l3956:	
 10308  17A9  01CF               	clrf	i1___fladd@aexp
 10309  17AA  1FD1               	btfss	i1___fladd@grs,7
 10310  17AB  2FB4               	goto	i1l3966
 10311  17AC  0851               	movf	i1___fladd@grs,w
 10312  17AD  397F               	andlw	127
 10313  17AE  1D03               	btfss	3,2
 10314  17AF  2FB2               	goto	i1l3964
 10315  17B0  1C3A               	btfss	i1___fladd@b,0
 10316  17B1  2FB4               	goto	i1l3966
 10317  17B2                     i1l3964:	
 10318  17B2  01CF               	clrf	i1___fladd@aexp
 10319  17B3  0ACF               	incf	i1___fladd@aexp,f
 10320  17B4                     i1l3966:	
 10321  17B4  084F               	movf	i1___fladd@aexp,w
 10322  17B5  1903               	btfsc	3,2
 10323  17B6  2FE0               	goto	i1l714
 10324  17B7  3001               	movlw	1
 10325  17B8  07BA               	addwf	i1___fladd@b,f
 10326  17B9  3000               	movlw	0
 10327  17BA  3DBB               	addwfc	i1___fladd@b+1,f
 10328  17BB  3000               	movlw	0
 10329  17BC  3DBC               	addwfc	i1___fladd@b+2,f
 10330  17BD  3000               	movlw	0
 10331  17BE  3DBD               	addwfc	i1___fladd@b+3,f
 10332  17BF  1C3D               	btfss	i1___fladd@b+3,0
 10333  17C0  2FE0               	goto	i1l714
 10334  17C1  083A               	movf	i1___fladd@b,w
 10335  17C2  00C2               	movwf	??i1___fladd
 10336  17C3  083B               	movf	i1___fladd@b+1,w
 10337  17C4  00C3               	movwf	??i1___fladd+1
 10338  17C5  083C               	movf	i1___fladd@b+2,w
 10339  17C6  00C4               	movwf	??i1___fladd+2
 10340  17C7  083D               	movf	i1___fladd@b+3,w
 10341  17C8  00C5               	movwf	??i1___fladd+3
 10342  17C9  3001               	movlw	1
 10343  17CA  00C6               	movwf	??i1___fladd+4
 10344  17CB                     u651_25:	
 10345  17CB  37C5               	asrf	??i1___fladd+3,f
 10346  17CC  0CC4               	rrf	??i1___fladd+2,f
 10347  17CD  0CC3               	rrf	??i1___fladd+1,f
 10348  17CE  0CC2               	rrf	??i1___fladd,f
 10349  17CF  0BC6               	decfsz	??i1___fladd+4,f
 10350  17D0  2FCB               	goto	u651_25
 10351  17D1  0845               	movf	??i1___fladd+3,w
 10352  17D2  00BD               	movwf	i1___fladd@b+3
 10353  17D3  0844               	movf	??i1___fladd+2,w
 10354  17D4  00BC               	movwf	i1___fladd@b+2
 10355  17D5  0843               	movf	??i1___fladd+1,w
 10356  17D6  00BB               	movwf	i1___fladd@b+1
 10357  17D7  0842               	movf	??i1___fladd,w
 10358  17D8  00BA               	movwf	i1___fladd@b
 10359  17D9  0A50               	incf	i1___fladd@bexp,w
 10360  17DA  1903               	btfsc	3,2
 10361  17DB  2FE0               	goto	i1l714
 10362  17DC  3001               	movlw	1
 10363  17DD  00C2               	movwf	??i1___fladd
 10364  17DE  0842               	movf	??i1___fladd,w
 10365  17DF  07D0               	addwf	i1___fladd@bexp,f
 10366  17E0                     i1l714:	
 10367  17E0  0A50               	incf	i1___fladd@bexp,w
 10368  17E1  1D03               	btfss	3,2
 10369  17E2  0850               	movf	i1___fladd@bexp,w
 10370  17E3  1D03               	btfss	3,2
 10371  17E4  2FF0               	goto	i1l3984
 10372  17E5  3000               	movlw	0
 10373  17E6  00BD               	movwf	i1___fladd@b+3
 10374  17E7  3000               	movlw	0
 10375  17E8  00BC               	movwf	i1___fladd@b+2
 10376  17E9  3000               	movlw	0
 10377  17EA  00BB               	movwf	i1___fladd@b+1
 10378  17EB  3000               	movlw	0
 10379  17EC  00BA               	movwf	i1___fladd@b
 10380  17ED  0850               	movf	i1___fladd@bexp,w
 10381  17EE  1903               	btfsc	3,2
 10382  17EF  01CE               	clrf	i1___fladd@signs
 10383  17F0                     i1l3984:	
 10384  17F0  1C50               	btfss	i1___fladd@bexp,0
 10385  17F1  2FF4               	goto	i1l3988
 10386  17F2  17BC               	bsf	i1___fladd@b+2,7
 10387  17F3  2FF8               	goto	i1l722
 10388  17F4                     i1l3988:	
 10389  17F4  307F               	movlw	127
 10390  17F5  00C2               	movwf	??i1___fladd
 10391  17F6  0842               	movf	??i1___fladd,w
 10392  17F7  05BC               	andwf	i1___fladd@b+2,f
 10393  17F8                     i1l722:	
 10394  17F8  3650               	lsrf	i1___fladd@bexp,w
 10395  17F9  00C2               	movwf	??i1___fladd
 10396  17FA  0842               	movf	??i1___fladd,w
 10397  17FB  00BD               	movwf	i1___fladd@b+3
 10398  17FC  1FCE               	btfss	i1___fladd@signs,7
 10399  17FD  0008               	return
 10400  17FE  17BD               	bsf	i1___fladd@b+3,7
 10401  17FF  0008               	return
 10402  1800                     __end_ofi1___fladd:	
 10403  007E                     btemp	set	126	;btemp
 10404  007E                     int$flags	set	126
 10405  007E                     wtemp	set	126
 10406  007E                     wtemp0	set	126
 10407  0080                     wtemp1	set	128
 10408  0082                     wtemp2	set	130
 10409  0084                     wtemp3	set	132
 10410  0086                     wtemp4	set	134
 10411  0088                     wtemp5	set	136
 10412  007F                     wtemp6	set	127
 10413  007E                     ttemp	set	126
 10414  007E                     ttemp0	set	126
 10415  0081                     ttemp1	set	129
 10416  0084                     ttemp2	set	132
 10417  0087                     ttemp3	set	135
 10418  007F                     ttemp4	set	127
 10419  007E                     ltemp	set	126
 10420  007E                     ltemp0	set	126
 10421  0082                     ltemp1	set	130
 10422  0086                     ltemp2	set	134
 10423  0080                     ltemp3	set	128


Data Sizes:
    Strings     36
    Constant    144
    Data        0
    BSS         12
    Persistent  0
    Stack       0

Auto Spaces:
    Space          Size  Autos    Used
    COMMON           14     14      14
    BANK0            80     52      58
    BANK1            80     79      79
    BANK2            80     78      78
    BANK3            80      3       9
    BANK4            80      0       0
    BANK5            80      0       0
    BANK6            80      0       0
    BANK7            80      0       0
    BANK8            80      0       0
    BANK9            80      0       0
    BANK10           80      0       0
    BANK11           80      0       0
    BANK12           48      0       0

Pointer List with Targets:

    printf@f	PTR const unsigned char  size(2) Largest target is 36
		 -> STR_1(CODE[36]), 

    printf@ap	PTR void [1] size(1) Largest target is 2
		 -> ?_printf(BANK2[2]), 


Critical Paths under _main in COMMON

    None.

Critical Paths under _ISR in COMMON

    _ISR->i1___xxtofl
    i1___fldiv->i1___xxtofl
    i1___fladd->i1___xxtofl

Critical Paths under _main in BANK0

    None.

Critical Paths under _ISR in BANK0

    _ISR->i1___fladd
    i1___fladd->i1___fldiv

Critical Paths under _main in BANK1

    _printf->___fladd
    _scale->___flmul
    _fround->___flmul
    ___flmul->___awdiv
    ___awdiv->___awmod
    ___llmod->___lldiv
    ___fltol->_scale
    ___flsub->___fladd
    ___fladd->_fround

Critical Paths under _ISR in BANK1

    None.

Critical Paths under _main in BANK2

    _main->_printf
    _printf->___flsub
    ___flsub->___fladd

Critical Paths under _ISR in BANK2

    None.

Critical Paths under _main in BANK3

    None.

Critical Paths under _ISR in BANK3

    None.

Critical Paths under _main in BANK4

    None.

Critical Paths under _ISR in BANK4

    None.

Critical Paths under _main in BANK5

    None.

Critical Paths under _ISR in BANK5

    None.

Critical Paths under _main in BANK6

    None.

Critical Paths under _ISR in BANK6

    None.

Critical Paths under _main in BANK7

    None.

Critical Paths under _ISR in BANK7

    None.

Critical Paths under _main in BANK8

    None.

Critical Paths under _ISR in BANK8

    None.

Critical Paths under _main in BANK9

    None.

Critical Paths under _ISR in BANK9

    None.

Critical Paths under _main in BANK10

    None.

Critical Paths under _ISR in BANK10

    None.

Critical Paths under _main in BANK11

    None.

Critical Paths under _ISR in BANK11

    None.

Critical Paths under _main in BANK12

    None.

Critical Paths under _ISR in BANK12

    None.

Call Graph Tables:

 ---------------------------------------------------------------------------------
 (Depth) Function   	        Calls       Base Space   Used Autos Params    Refs
 ---------------------------------------------------------------------------------
 (0) _main                                                 9     9      0   33545
                                             72 BANK2      6     6      0
                                              0 BANK3      3     3      0
                            ___fldiv
                             _printf
                              _putch
 ---------------------------------------------------------------------------------
 (1) _printf                                              49    37     12   32083
                                             28 BANK2     44    32     12
                            ___awdiv
                            ___fladd
                            ___fldiv (ARG)
                             ___flge
                            ___flmul
                            ___flneg
                            ___flsub
                            ___fltol
                            ___lldiv
                            ___llmod
                             ___wmul
                           ___xxtofl
                         __div_to_l_
                        __tdiv_to_l_
                             _fround
                            _isdigit
                              _putch
                              _scale
 ---------------------------------------------------------------------------------
 (2) _scale                                               29    25      4    7466
                                             42 BANK1     25    21      4
                            ___awdiv
                            ___awmod
                            ___flmul
 ---------------------------------------------------------------------------------
 (1) _putch                                                1     1      0      22
                                              0 BANK1      1     1      0
 ---------------------------------------------------------------------------------
 (2) _isdigit                                              2     2      0      68
                                              0 BANK1      2     2      0
 ---------------------------------------------------------------------------------
 (2) _fround                                              37    33      4    7268
                                             42 BANK1     33    29      4
                            ___awdiv
                            ___awmod
                            ___flmul
 ---------------------------------------------------------------------------------
 (3) ___flmul                                             26    18      8    3949
                                             16 BANK1     26    18      8
                          __Umul8_16
                            ___awdiv (ARG)
                            ___awmod (ARG)
 ---------------------------------------------------------------------------------
 (4) __Umul8_16                                            9     7      2     691
                                              0 BANK1      9     7      2
 ---------------------------------------------------------------------------------
 (3) ___awmod                                              7     3      4    1448
                                              0 BANK1      7     3      4
 ---------------------------------------------------------------------------------
 (3) ___awdiv                                              9     5      4    1580
                                              7 BANK1      9     5      4
                            ___awmod (ARG)
 ---------------------------------------------------------------------------------
 (2) __tdiv_to_l_                                         16    10      6     431
                                              0 BANK1     16    10      6
 ---------------------------------------------------------------------------------
 (2) __div_to_l_                                          19    11      8     431
                                              0 BANK1     19    11      8
 ---------------------------------------------------------------------------------
 (2) ___xxtofl                                            14    10      4     424
                                              0 BANK1     14    10      4
 ---------------------------------------------------------------------------------
 (2) ___wmul                                               6     2      4     476
                                              0 BANK1      6     2      4
 ---------------------------------------------------------------------------------
 (2) ___llmod                                             10     2      8     671
                                             14 BANK1     10     2      8
                            ___lldiv (ARG)
 ---------------------------------------------------------------------------------
 (2) ___lldiv                                             14     6      8     546
                                              0 BANK1     14     6      8
 ---------------------------------------------------------------------------------
 (2) ___fltol                                             11     7      4     421
                                             67 BANK1     11     7      4
                            ___flmul (ARG)
                              _scale (ARG)
 ---------------------------------------------------------------------------------
 (2) ___flsub                                              8     0      8    2525
                                             20 BANK2      8     0      8
                            ___fladd
                           ___xxtofl (ARG)
 ---------------------------------------------------------------------------------
 (3) ___fladd                                             24    16      8    2352
                                             75 BANK1      4     4      0
                                              0 BANK2     20    12      8
                             _fround (ARG)
 ---------------------------------------------------------------------------------
 (2) ___flneg                                              4     0      4     109
                                              0 BANK1      4     0      4
 ---------------------------------------------------------------------------------
 (2) ___flge                                              16     8      8     694
                                              0 BANK1     16     8      8
 ---------------------------------------------------------------------------------
 (1) ___fldiv                                             26    18      8    1299
                                              0 BANK1     26    18      8
 ---------------------------------------------------------------------------------
 Estimated maximum stack depth 4
 ---------------------------------------------------------------------------------
 (Depth) Function   	        Calls       Base Space   Used Autos Params    Refs
 ---------------------------------------------------------------------------------
 (5) _ISR                                                  2     2      0    3455
                                             50 BANK0      2     2      0
                          i1___fladd
                          i1___fldiv
                         i1___xxtofl
 ---------------------------------------------------------------------------------
 (6) i1___xxtofl                                          14    10      4     348
                                              0 COMMON    14    10      4
 ---------------------------------------------------------------------------------
 (6) i1___fldiv                                           26    18      8    1107
                                              0 BANK0     26    18      8
                         i1___xxtofl (ARG)
 ---------------------------------------------------------------------------------
 (6) i1___fladd                                           24    16      8    2000
                                             26 BANK0     24    16      8
                          i1___fldiv (ARG)
                         i1___xxtofl (ARG)
 ---------------------------------------------------------------------------------
 Estimated maximum stack depth 6
 ---------------------------------------------------------------------------------

 Call Graph Graphs:

 _main (ROOT)
   ___fldiv
   _printf
     ___awdiv
       ___awmod (ARG)
     ___fladd
       _fround (ARG)
         ___awdiv
           ___awmod (ARG)
         ___awmod
         ___flmul
           __Umul8_16
           ___awdiv (ARG)
             ___awmod (ARG)
           ___awmod (ARG)
     ___fldiv (ARG)
     ___flge (ARG)
     ___flmul (ARG)
       __Umul8_16
       ___awdiv (ARG)
         ___awmod (ARG)
       ___awmod (ARG)
     ___flneg (ARG)
     ___flsub (ARG)
       ___fladd
         _fround (ARG)
           ___awdiv
             ___awmod (ARG)
           ___awmod
           ___flmul
             __Umul8_16
             ___awdiv (ARG)
               ___awmod (ARG)
             ___awmod (ARG)
       ___xxtofl (ARG)
     ___fltol (ARG)
       ___flmul (ARG)
         __Umul8_16
         ___awdiv (ARG)
           ___awmod (ARG)
         ___awmod (ARG)
       _scale (ARG)
         ___awdiv
           ___awmod (ARG)
         ___awmod
         ___flmul
           __Umul8_16
           ___awdiv (ARG)
             ___awmod (ARG)
           ___awmod (ARG)
     ___lldiv (ARG)
     ___llmod (ARG)
       ___lldiv (ARG)
     ___wmul (ARG)
     ___xxtofl (ARG)
     __div_to_l_ (ARG)
     __tdiv_to_l_ (ARG)
     _fround (ARG)
       ___awdiv
         ___awmod (ARG)
       ___awmod
       ___flmul
         __Umul8_16
         ___awdiv (ARG)
           ___awmod (ARG)
         ___awmod (ARG)
     _isdigit (ARG)
     _putch (ARG)
     _scale (ARG)
       ___awdiv
         ___awmod (ARG)
       ___awmod
       ___flmul
         __Umul8_16
         ___awdiv (ARG)
           ___awmod (ARG)
         ___awmod (ARG)
   _putch

 _ISR (ROOT)
   i1___fladd
     i1___fldiv (ARG)
       i1___xxtofl (ARG)
     i1___xxtofl (ARG)
   i1___fldiv
     i1___xxtofl (ARG)
   i1___xxtofl

 Address spaces:
Name               Size   Autos  Total    Cost      Usage
BIGRAM             3F0      0       0       0        0.0%
NULL                 0      0       0       0        0.0%
CODE                 0      0       0       0        0.0%
BITCOMMON            E      0       0       1        0.0%
BITSFR0              0      0       0       1        0.0%
SFR0                 0      0       0       1        0.0%
COMMON               E      E       E       2      100.0%
BITSFR1              0      0       0       2        0.0%
SFR1                 0      0       0       2        0.0%
BITSFR2              0      0       0       3        0.0%
SFR2                 0      0       0       3        0.0%
STACK                0      0       0       3        0.0%
BITBANK0            50      0       0       4        0.0%
BITSFR3              0      0       0       4        0.0%
SFR3                 0      0       0       4        0.0%
BANK0               50     34      3A       5       72.5%
BITSFR4              0      0       0       5        0.0%
SFR4                 0      0       0       5        0.0%
BITBANK1            50      0       0       6        0.0%
BITSFR5              0      0       0       6        0.0%
SFR5                 0      0       0       6        0.0%
BANK1               50     4F      4F       7       98.8%
BITSFR6              0      0       0       7        0.0%
SFR6                 0      0       0       7        0.0%
BITBANK2            50      0       0       8        0.0%
BITSFR7              0      0       0       8        0.0%
SFR7                 0      0       0       8        0.0%
BANK2               50     4E      4E       9       97.5%
BITSFR8              0      0       0       9        0.0%
SFR8                 0      0       0       9        0.0%
BITBANK3            50      0       0      10        0.0%
BITSFR9              0      0       0      10        0.0%
SFR9                 0      0       0      10        0.0%
BANK3               50      3       9      11       11.2%
BITSFR10             0      0       0      11        0.0%
SFR10                0      0       0      11        0.0%
BITBANK4            50      0       0      12        0.0%
BITSFR11             0      0       0      12        0.0%
SFR11                0      0       0      12        0.0%
BANK4               50      0       0      13        0.0%
BITSFR12             0      0       0      13        0.0%
SFR12                0      0       0      13        0.0%
BITBANK5            50      0       0      14        0.0%
BITSFR13             0      0       0      14        0.0%
SFR13                0      0       0      14        0.0%
BANK5               50      0       0      15        0.0%
BITSFR14             0      0       0      15        0.0%
SFR14                0      0       0      15        0.0%
BITBANK6            50      0       0      16        0.0%
BITSFR15             0      0       0      16        0.0%
SFR15                0      0       0      16        0.0%
BANK6               50      0       0      17        0.0%
BITSFR16             0      0       0      17        0.0%
SFR16                0      0       0      17        0.0%
BITBANK7            50      0       0      18        0.0%
BITSFR17             0      0       0      18        0.0%
SFR17                0      0       0      18        0.0%
BANK7               50      0       0      19        0.0%
BITSFR18             0      0       0      19        0.0%
SFR18                0      0       0      19        0.0%
BITSFR19             0      0       0      20        0.0%
SFR19                0      0       0      20        0.0%
ABS                  0      0      EE      20        0.0%
BITBANK8            50      0       0      21        0.0%
BITSFR20             0      0       0      21        0.0%
SFR20                0      0       0      21        0.0%
BANK8               50      0       0      22        0.0%
BITSFR21             0      0       0      22        0.0%
SFR21                0      0       0      22        0.0%
BITBANK9            50      0       0      23        0.0%
BITSFR22             0      0       0      23        0.0%
SFR22                0      0       0      23        0.0%
BANK9               50      0       0      24        0.0%
BITSFR23             0      0       0      24        0.0%
SFR23                0      0       0      24        0.0%
BITBANK10           50      0       0      25        0.0%
BITSFR24             0      0       0      25        0.0%
SFR24                0      0       0      25        0.0%
BANK10              50      0       0      26        0.0%
BITSFR25             0      0       0      26        0.0%
SFR25                0      0       0      26        0.0%
BITBANK11           50      0       0      27        0.0%
BITSFR26             0      0       0      27        0.0%
SFR26                0      0       0      27        0.0%
BANK11              50      0       0      28        0.0%
BITSFR27             0      0       0      28        0.0%
SFR27                0      0       0      28        0.0%
BITBANK12           30      0       0      29        0.0%
BITSFR28             0      0       0      29        0.0%
SFR28                0      0       0      29        0.0%
BANK12              30      0       0      30        0.0%
BITSFR29             0      0       0      30        0.0%
SFR29                0      0       0      30        0.0%
BITSFR30             0      0       0      31        0.0%
SFR30                0      0       0      31        0.0%
DATA                 0      0      EE      31        0.0%
BITSFR31             0      0       0      32        0.0%
SFR31                0      0       0      32        0.0%


Microchip Technology PIC Macro Assembler V1.37 build -260352376 
Symbol Table                                                                                   Mon May 16 20:31:04 2016

           ___fldiv@aexp 00B9             ___fldiv@bexp 00B8              i1___fladd@a 003E  
            i1___fladd@b 003A             ___fldiv@sign 00AD              i1___fldiv@a 0020  
            i1___fldiv@b 0024              __CFG_CP$OFF 0000                       l84 1149  
           ___awdiv@sign 00AD      ___wmul@multiplicand 00A2      __Umul8_16@word_mpld 00A6  
            __CFG_LVP$ON 0000               i1___xxtofl 1D85              __CFG_ZCD$ON 0000  
                    l101 1C0A                      l221 06F8                      l161 016C  
                    l146 00D1                      l403 0854                      l243 07D0  
                    l413 08D8                      l247 1C18                      l169 02CA  
                    l418 1ECB                      l507 1F7B                      l701 0CD8  
                    l517 1FF4                      l456 1D73                      l705 0CF9  
                    l801 1E6E                      l722 0D64                      l714 0D47  
                    l814 07E2                      l760 1459                      l736 1324  
                    l680 0B71                      l808 1E82                      l809 1E8C  
                    l684 0C33                      l757 1434                      l758 144C  
                    l686 0C0F                      l795 1E38                      l788 0B03  
                    _GIE 005F                      _ISR 0004             ___awmod@sign 00A6  
           __CFG_BORV$LO 0000                      wreg 0009            i1___fladd@grs 0051  
           __CFG_IESO$ON 0000             ___flmul@aexp 00C2             ___flmul@bexp 00C3  
           ___flmul@sign 00BD             ___flmul@temp 00C8             ___flmul@prod 00C4  
                   ?_ISR 0070            i1___fldiv@grs 0034            i1___fldiv@rem 002E  
           ___fltol@exp1 00ED                     l3000 0AD9                     l3100 1F63  
                   l3006 0AF0                     l3030 1549                     l3200 1C12  
                   l3122 1FB6                     l3114 1F9C                     l3140 1FEB  
                   l3132 1FD0                     l3060 0E9D                     l3222 1F0E  
                   l3302 1050                     l3142 1FF7                     l3134 1FDE  
                   l3038 15D3                     l3054 0E32                     l3312 1C34  
                   l3152 083A                     l3072 0F77                     l3064 0EBB  
                   l3226 1F37                     l3218 1EE5                     l3314 1C42  
                   l3322 1C65                     l2610 1CBF                     l3090 07FE  
                   l3402 0121                     l3252 1D21                     l2702 0B36  
                   l3270 1D5D                     l3318 1C5A                     l3350 1E5B  
                   l3174 0899                     l3166 0879                     l3078 0FE2  
                   l3502 040C                     l3430 0199                     l3422 016E  
                   l3414 0131                     l2704 0B3F                     l3344 1E47  
                   l3192 08CF                     l3184 08B4                     l2616 1CCA  
                   l3512 0456                     l3440 01EC                     l3424 0189  
                   l3416 0167                     l4232 10C0                     l2802 0C61  
                   l2722 0B64                     l3290 1025                     l3338 1E30  
                   l3194 08DB                     l3186 08C2                     l2642 1D01  
                   l2634 1CF0                     l2626 1CD2                     l3602 069C  
                   l2732 0B7E                     l2716 0B54                     l3276 1D6A  
                   l3268 1D4F                     l3372 1EA7                     l3356 1E73  
                   l3348 1E4B                     l2628 1CDE                     l3620 070B  
                   l3612 06E0                     l3532 0493                     l3516 0464  
                   l3508 0439                     l3702 131C                     l2806 0C70  
                   l2726 0B68                     l3278 1D76                     l3358 1E7C  
                   l2638 1CF9                     l2654 1C79                     l2910 0921  
                   l3550 0528                     l3526 0474                     l3470 02FF  
                   l3390 00DF                     l3382 00CB                     l2832 0CFE  
                   l2824 0CED                     l2816 0CD0                     l2840 0D08  
                   l3288 1017                     l2680 1CAF                     l2672 1C9E  
                   l2592 07DC                     l2912 0923                     l3640 0751  
                   l3632 073E                     l3608 06C9                     l3528 048A  
                   l3544 04AE                     l3464 02A8                     l3456 0240  
                   l4256 10E6                     l3714 1353                     l2850 0D16  
                   l2770 0C19                     l2762 0BD1                     l3298 1045  
                   l2666 1C86                     l2658 1C80                     l2922 0939  
                   l2914 092B                     l3634 0741                     l3626 071F  
                   l3562 0557                     l3546 051F                     l3482 0356  
                   l3394 00EC                     l3740 13B8                     l3708 133F  
                   l2772 0C1B                     l2780 0C2E                     l2692 0B22  
                   l2668 1C92                     l2676 1CA7                     l3652 0771  
                   l3660 077F                     l3628 0722                     l3556 0542  
                   l3492 03AA                     l3580 0662                     l3388 00D6  
                   l3734 139F                     l3742 1381                     l2838 0D05  
                   l3646 0760                     l3590 0688                     l3574 0654  
                   l3478 0337                     l3662 00AF                     l3760 13DA  
                   l3744 13BD                     l2872 0D5F                     l2776 0C20  
                   l3648 0764                     l3496 0406                     l3770 13F3  
                   l3682 12F8                     l2698 0B32                     l3578 065D  
                   l3780 141C                     l3684 1300                     l2868 0D5A  
                   l2796 0C5A                     l2788 0C42                     l2892 08FE  
                   l3596 0696                     l3758 13C3                     l3678 12F5  
                   l2798 0C5C                     l2974 0A6B                     l2894 0900  
                   l3768 13F1                     l2984 0A99                     l2976 0A82  
                   l2896 0908                     l3794 1455                     l3698 1319  
                   l2986 0A9B                     l2996 0AC4                     STR_1 1890  
                   u4003 0C83                     u4045 0CEE                     u5005 1D6B  
                   u4145 0D2F                     u4305 09DE                     u5115 1C37  
                   u4315 0A34             printf@tmpval 0153                     u5045 101A  
                   u4325 0A4B                     u5135 1C50                     u5215 1E68  
                   u4335 0A5A                     u6025 13C6                     u5065 1026  
                   u5145 1C5B                     u3625 1CD5                     u4345 0A6E  
                   u6115 140A                     u5075 103A                     u5235 1E76  
                   u4435 0AB2                     _PEIE 005E                     u6125 1425  
                   u6045 13CF                     u5085 1046                     u4605 1FAD  
                   u3645 1CDF                     u3725 1C89                     u4445 0ACD  
                   u4365 0A77                     u6135 143E                     u4615 1FB7  
                   u3655 1CE9                     u3575 07E3                     u4455 0AE3  
                   u4295 09AF                     u3665 1CF1                     u3745 1C98  
                   u5425 02D4                     u5275 1E94                     u5195 1E54  
                   u3755 1C9F                     u5435 0309                     u3925 0C23  
                   u4725 087A                     u5605 053D                     u7117 1070  
                   u4815 08D0                     u4735 088E                     u4655 1FD1  
                   u7127 1080                     u3880 0BF9                     u4745 089A  
                   u5705 06D8                     u5465 0335                     u7137 108E  
                   u3890 0BFA                     i1l91 007A                     u3875 0BEE  
                   u4595 1F9D                     u5715 06F0                     u5555 047E  
                   u4845 1C19                     u4685 1FEC                     u5565 049D  
                   u4855 1C1E                     u5495 042F                     u4945 1D2A  
                   u4785 08B5                     i1l98 0092                     u3995 0C64  
                   u5755 0717                     u5595 0531                     u5765 0731  
                   u5685 06BF                     u4975 1D50                     u5955 1389  
                   u5965 1390                     u5985 1399                     u5995 13AD  
                   _SPEN 0CEF                     _TXEN 0CF5                     _TXIF 0084  
                   _SYNC 0CF4             __CFG_WRT$OFF 0000            __CFG_FCMEN$ON 0000  
            main@minutes 01A7              main@seconds 01A8                     _main 1059  
                   fsr0h 0005                     fsr1h 0007                     fsr0l 0004  
                   indf0 0000                     fsr1l 0006                     btemp 007E  
          __CFG_BOREN$ON 0000                     ltemp 007E           i1___fladd@aexp 004F  
         i1___fladd@bexp 0050                     start 0097                     ttemp 007E  
                   wtemp 007E            __CFG_FOSC$ECH 0000          ___fldiv@new_exp 00B2  
          __CFG_MCLRE$ON 0000                    ??_ISR 0052           i1___fldiv@aexp 0039  
         i1___fldiv@bexp 0038           i1___fldiv@sign 002D            ___fltol@sign1 00EC  
        __end_of___fladd 0D70                    ?_main 0070          __end_of___fldiv 146A  
        __end_of___awdiv 1D06          __end_of___flneg 1C05            __CFG_WDTE$OFF 0000  
        __end_of___awmod 1CB4          __end_of___flmul 0B10          __end_of___flsub 081F  
        __end_of___fltol 1D85          __end_of___lldiv 1059          ___awdiv@divisor 00A7  
        __end_of___llmod 1C6E                    _LATB5 086D                    _LATB6 086E  
                  i1l701 1781                    i1l801 1DD8                    i1l722 17F8  
                  i1l714 17E0                    i1l680 1651                    i1l760 12CA  
                  i1l736 1195                    i1l808 1DEC                    i1l809 1DF6  
                  i1l684 16E9                    i1l757 12A5                    i1l686 16CC  
                  i1l758 12BD                    i1l795 1DA2          ___awdiv@counter 00AC  
                  _ZCDIE 0494                    _ZCDIF 0094                    _TXREG 019A  
          __CFG_PWRTE$ON 0000          __end_of_dpowers 1890                    _scale 0D70  
        __end_of_isdigit 0800                    _putch 1C05                    ltemp0 007E  
                  ltemp1 0082                    ltemp2 0086                    ltemp3 0080  
                  ttemp0 007E                    ttemp1 0081                    ttemp2 0084  
                  ttemp3 0087                    ttemp4 007F                    status 0003  
                  wtemp0 007E                    wtemp1 0080                    wtemp2 0082  
                  wtemp3 0084                    wtemp4 0086                    wtemp5 0088  
                  wtemp6 007F       __size_ofi1___fladd 01FC       __size_ofi1___fldiv 018F  
        i1___fladd@signs 004E          __initialization 0099             __end_of_main 114C  
         __CFG_LPBOR$OFF 0000                   ??_main 0168              ?i1___xxtofl 0070  
         __CFG_PLLEN$OFF 0000     __size_of__tdiv_to_l_ 00B6         ___llmod@dividend 00B2  
                 ?_scale 00CA                   _AT1PHS 0812                   _AT1RES 080C  
       ___awdiv@dividend 00A9                   _ANSELA 018C                   ?_putch 0070  
                 _ANSELB 018D                   _ANSELC 018E                   _RB7PPS 0E9F  
                 i1l4100 1264                   i1l4012 1169                   i1l4110 128D  
                 i1l4014 1171                   i1l4032 118D                   i1l4008 1166  
                 i1l4124 12C6                   i1l4044 11C4                   i1l4028 118A  
                 i1l4070 1229                   i1l4038 11B0                   i1l4142 1DB1  
                 i1l4064 1210                   i1l4072 11F2                   i1l4136 1D9A  
                 i1l4090 124B                   i1l4074 122E                   i1l4170 1E11  
                 i1l4154 1DDD                   i1l4146 1DB5                   i1l4156 1DE6  
                 i1l4148 1DC5                   i1l4088 1234                   i1l4098 1262  
                 i1l3820 1629                   i1l4292 008C                   i1l3814 161E  
                 i1l3912 170B                   i1l3904 16F7                   i1l3914 170D  
                 i1l3922 171C                   i1l3842 1649                   i1l3818 1621  
                 i1l3940 1793                   i1l3932 1779                   i1l3838 1646  
                 i1l3848 165B                   i1l3954 17A7                   i1l3964 17B2  
                 i1l3948 17A0                   i1l3956 17A9                   i1l3966 17B4  
                 i1l3886 16D4                   i1l3878 1697                   i1l3984 17F0  
                 i1l3888 16D6                   i1l3896 16E4                   i1l3988 17F4  
                 u624_25 16B0                   u625_20 16BB                   u641_25 1794  
                 u626_20 16BC                   _ZCD1EN 08E7                   u651_25 17CB  
                 u707_25 0056                   u636_25 1711                   u637_23 172E  
                 u629_25 16DA                   u670_25 120A                   u671_25 121E  
                 u674_25 1237                   u690_25 1DBE                   u683_25 127B  
                 u667_25 11FA                   u684_25 1296                   u676_25 1240  
                 u668_25 1201                   u692_25 1DD2                   u685_25 12AF  
                 u694_25 1DE0                   u698_25 1DFE                   _TRISB5 046D  
                 _TRISB6 046E         __end_of___xxtofl 1EB0         __end_of__powers_ 1868  
                 ___flge 1EB0                   _acqOut 01A0                ??___fladd 0128  
                 ___wmul 1C0F                ??___fldiv 00A8                ??___awdiv 00AB  
              ??___flneg 00A4           __CFG_STVREN$ON 0000                ??___awmod 00A4  
              ??___flmul 00B8                ??___flsub 00EF                ??___fltol 00E7  
              ??___lldiv 00A8                ??___llmod 00B6                   _fround 146A  
       ___awdiv@quotient 00AE          ___awmod@divisor 00A0          ___awmod@counter 00A5  
                 _printf 00AA        __end_ofi1___fladd 1800        __end_ofi1___fldiv 12DB  
              ??_isdigit 00A0       __size_of__Umul8_16 0020               ___flge@ff1 00A0  
             ___flge@ff2 00A4             ___xxtofl@arg 00AA             ___xxtofl@exp 00A9  
           ___xxtofl@val 00A0  __end_of__initialization 00A6               ___flneg@f1 00A0  
    __size_ofi1___xxtofl 0095               ___fltol@f1 00E3           __pcstackCOMMON 0070  
             _acqCounter 0058            __end_of_scale 1000            __end_of_putch 1C0F  
             __div_to_l_ 081F          __div_to_l_@exp1 00B2          __div_to_l_@cntr 00B1  
                ??_scale 00CE          __div_to_l_@quot 00AD                  ??_putch 00A0  
             __pbssBANK0 0054               __pbssBANK3 01A0           i1___xxtofl@arg 007A  
         i1___xxtofl@exp 0079           i1___xxtofl@val 0070            __div_to_l_@f1 00A0  
          __div_to_l_@f2 00A4        __end_of__Umul8_16 07F1               __pmaintext 1059  
                ?___flge 00A0                  ?___wmul 00A0          __CFG_PPS1WAY$ON 0000  
             __pintentry 0004                  ?_fround 00CA                  ?_printf 013C  
        __CFG_WDTCCS$SWC 0000                ?___xxtofl 00A0                  _SP1BRGL 019B  
                _SMT1CPR 0D8F        __end_of__npowers_ 1834          __size_of___flge 009A  
                ___fladd 0B10                  ___fldiv 12DB                  ___awdiv 1CB4  
                ___flneg 1BFB                  ___awmod 1C6E                  ___flmul 08E4  
                ___flsub 0800                  ___fltol 1D06                  ___lldiv 1006  
        __size_of___wmul 001C                  ___llmod 1C2B                  _acqGate 01A4  
             _fround$818 00E6               _fround$819 00E2          __size_of_fround 019A  
           ??i1___xxtofl 0074                  __ptext1 00AA                  __ptext2 0D70  
                __ptext3 1C05                  __ptext4 07F1                  __ptext5 146A  
                __ptext6 08E4                  __ptext7 07D1                  __ptext8 1C6E  
                __ptext9 1CB4          __size_of_printf 0727             __size_of_ISR 0093  
            ?__div_to_l_ 00A0                  _dpowers 1868                  _isdigit 07F1  
             ??___xxtofl 00A4         ___awmod@dividend 00A2     end_of_initialization 00A6  
        ___lldiv@divisor 00A0       __end_ofi1___xxtofl 1E1A          ___lldiv@counter 00AD  
                printf@c 0167                  printf@f 013C                _SMT1PRAIE 0499  
              _SMT1PRAIF 0099             __pstringtext 1800           __tdiv_to_l_@f1 00A0  
         __tdiv_to_l_@f2 00A3               _printf$821 014E            ??__tdiv_to_l_ 00A6  
            ___fladd@grs 00EE            ___xxtofl@sign 00A8                i1___fladd 1604  
              i1___fldiv 114C              ___fldiv@grs 00B4              ___fldiv@rem 00AE  
            ___flmul@grs 00BE              printf@width 015F      __size_of__div_to_l_ 00C5  
            _AT1CON0bits 0814           __end_of___flge 1F4A           __end_of___wmul 1C2B  
         __end_of_fround 1604           __end_of_printf 07D1      start_initialization 0099  
            __end_of_ISR 0097      __end_of__tdiv_to_l_ 2000               ?i1___fladd 003A  
             ?i1___fldiv 0020          ___llmod@divisor 00AE          ___llmod@counter 00B7  
               ??___flge 00A8                 ??___wmul 00A4                __Umul8_16 07D1  
               ??_fround 00CE                 ??_printf 0148                ___fladd@a 0124  
              ___fladd@b 0120               fround@prec 00EA                ___fldiv@a 00A0  
              ___fldiv@b 00A4                ___flmul@a 00B4                ___flmul@b 00B0  
              ___flsub@a 0134                ___flsub@b 0138                ___latbits 0002  
          __pcstackBANK0 0020            __pcstackBANK1 00A0            __pcstackBANK2 0120  
          __pcstackBANK3 01A6        __size_of___xxtofl 0096                _acqHolder 0054  
        i1___xxtofl@sign 0078        i1___fldiv@new_exp 0032                 ?___fladd 0120  
               ?___fldiv 00A0                 ?___awdiv 00A7                 ?___flneg 00A0  
               ?___awmod 00A0                 ?___flmul 00B0                 ?___flsub 0134  
               ?___fltol 00E3                 ?___lldiv 00A0                 ?___llmod 00AE  
              __npowers_ 1800               ?__Umul8_16 00A0              __tdiv_to_l_ 1F4A  
           ??__div_to_l_ 00A8                 ?_isdigit 0070                _scale$820 00DE  
            ??i1___fladd 0042              ??i1___fldiv 0028           __size_of_scale 0290  
         __size_of_putch 000A           ___wmul@product 00A4       __end_of__div_to_l_ 08E4  
               _ZCD1INTN 08E0     __CFG_WDTCPS$WDTCPS1F 0000        ___wmul@multiplier 00A0  
             printf@flag 015D               printf@fval 0161               printf@prec 0165  
              main@hours 01A6             _SMT1CON0bits 0D98             _SMT1CON1bits 0D99  
             _AT1SIGbits 088D              ??__Umul8_16 00A2         __size_of___fladd 0260  
       __size_of___fldiv 018F         __size_of___awdiv 0052         __size_of___flneg 000A  
       __size_of___awmod 0046         __size_of___flmul 022C         __size_of___flsub 001F  
       __size_of___fltol 007F         __size_of___lldiv 0053         __size_of___llmod 0043  
            _isdigit$490 00A0                 ___xxtofl 1E1A         __size_of_isdigit 000F  
               __ptext10 1F4A                 __ptext11 081F                 __ptext20 1EB0  
               __ptext12 1E1A                 __ptext21 12DB                 __ptext13 1C0F  
               __ptext14 1C2B                 __ptext23 1D85                 __ptext15 1006  
               __ptext24 114C                 __ptext16 1D06                 __ptext25 1604  
               __ptext17 0800                 __ptext18 0B10                 __ptext19 1BFB  
               __powers_ 1834            __size_of_main 00F3     __CFG_WDTCWS$WDTCWSSW 0000  
               int$flags 007E                printf@exp 015B                printf@val 0157  
            _missedCycle 01A5                putch@byte 00A0                 isdigit@c 00A1  
               scale@scl 00E2              _SMT1WINbits 0D9D                 intlevel1 0000  
       __tdiv_to_l_@exp1 00AF         __tdiv_to_l_@cntr 00AE         __tdiv_to_l_@quot 00AA  
       ___lldiv@dividend 00A4        __CFG_CLKOUTEN$OFF 0000                 printf@ap 0152  
           ?__tdiv_to_l_ 00A0   __Umul8_16@multiplicand 00A0         ___lldiv@quotient 00A9  
          ___fladd@signs 00EB             ___fladd@aexp 00EC             ___fladd@bexp 00ED  
   __Umul8_16@multiplier 00A8        __Umul8_16@product 00A4  
